
Driverhost.elf:     file format elf32-avr

Sections:
Idx Name          Size      VMA       LMA       File off  Algn
  0 .data         000000c4  00800100  000078ea  0000797e  2**0
                  CONTENTS, ALLOC, LOAD, DATA
  1 .text         000078ea  00000000  00000000  00000094  2**1
                  CONTENTS, ALLOC, LOAD, READONLY, CODE
  2 .bss          000006c4  008001c4  008001c4  00007a42  2**0
                  ALLOC
  3 .comment      00000060  00000000  00000000  00007a42  2**0
                  CONTENTS, READONLY
  4 .note.gnu.avr.deviceinfo 00000040  00000000  00000000  00007aa4  2**2
                  CONTENTS, READONLY

Disassembly of section .text:

00000000 <__vectors>:
       0:	0c 94 29 02 	jmp	0x452	; 0x452 <__ctors_end>
       4:	0c 94 46 02 	jmp	0x48c	; 0x48c <__bad_interrupt>
       8:	0c 94 46 02 	jmp	0x48c	; 0x48c <__bad_interrupt>
       c:	0c 94 46 02 	jmp	0x48c	; 0x48c <__bad_interrupt>
      10:	0c 94 46 02 	jmp	0x48c	; 0x48c <__bad_interrupt>
      14:	0c 94 46 02 	jmp	0x48c	; 0x48c <__bad_interrupt>
      18:	0c 94 46 02 	jmp	0x48c	; 0x48c <__bad_interrupt>
      1c:	0c 94 46 02 	jmp	0x48c	; 0x48c <__bad_interrupt>
      20:	0c 94 46 02 	jmp	0x48c	; 0x48c <__bad_interrupt>
      24:	0c 94 46 02 	jmp	0x48c	; 0x48c <__bad_interrupt>
      28:	0c 94 46 02 	jmp	0x48c	; 0x48c <__bad_interrupt>
      2c:	0c 94 46 02 	jmp	0x48c	; 0x48c <__bad_interrupt>
      30:	0c 94 46 02 	jmp	0x48c	; 0x48c <__bad_interrupt>
      34:	0c 94 46 02 	jmp	0x48c	; 0x48c <__bad_interrupt>
      38:	0c 94 02 3b 	jmp	0x7604	; 0x7604 <__vector_14>
      3c:	0c 94 46 02 	jmp	0x48c	; 0x48c <__bad_interrupt>
      40:	0c 94 46 02 	jmp	0x48c	; 0x48c <__bad_interrupt>
      44:	0c 94 46 02 	jmp	0x48c	; 0x48c <__bad_interrupt>
      48:	0c 94 46 02 	jmp	0x48c	; 0x48c <__bad_interrupt>
      4c:	0c 94 46 02 	jmp	0x48c	; 0x48c <__bad_interrupt>
      50:	0c 94 46 02 	jmp	0x48c	; 0x48c <__bad_interrupt>
      54:	0c 94 46 02 	jmp	0x48c	; 0x48c <__bad_interrupt>
      58:	0c 94 46 02 	jmp	0x48c	; 0x48c <__bad_interrupt>
      5c:	0c 94 46 02 	jmp	0x48c	; 0x48c <__bad_interrupt>
      60:	0c 94 46 02 	jmp	0x48c	; 0x48c <__bad_interrupt>
      64:	0c 94 46 02 	jmp	0x48c	; 0x48c <__bad_interrupt>

00000068 <__trampolines_end>:
      68:	2e 7c       	andi	r18, 0xCE	; 206
      6a:	00 10       	cpse	r0, r0
      6c:	08 00       	.word	0x0008	; ????
      6e:	0c 00       	.word	0x000c	; ????
      70:	00 01       	movw	r0, r0
      72:	67 16       	cp	r6, r23
      74:	0c 00       	.word	0x000c	; ????
      76:	00 02       	muls	r16, r16
      78:	67 3c       	cpi	r22, 0xC7	; 199
      7a:	0c 00       	.word	0x000c	; ????
      7c:	00 03       	mulsu	r16, r16
      7e:	67 5e       	subi	r22, 0xE7	; 231
      80:	0c 00       	.word	0x000c	; ????
      82:	00 04       	cpc	r0, r0
      84:	67 00       	.word	0x0067	; ????
      86:	02 92       	st	-Z, r0
      88:	60 4e       	sbci	r22, 0xE0	; 224
      8a:	22 7c       	andi	r18, 0xC2	; 194
      8c:	00 10       	cpse	r0, r0
      8e:	00 00       	nop
      90:	32 3c       	cpi	r19, 0xC2	; 194
      92:	02 00       	.word	0x0002	; ????
      94:	0c 46       	sbci	r16, 0x6C	; 108
      96:	00 01       	movw	r0, r0
      98:	67 00       	.word	0x0067	; ????
      9a:	01 e6       	ldi	r16, 0x61	; 97
      9c:	0c 46       	sbci	r16, 0x6C	; 108
      9e:	00 02       	muls	r16, r16
      a0:	67 00       	.word	0x0067	; ????
      a2:	01 c0       	rjmp	.+2      	; 0xa6 <__trampolines_end+0x3e>
      a4:	0c 46       	sbci	r16, 0x6C	; 108
      a6:	00 03       	mulsu	r16, r16
      a8:	67 00       	.word	0x0067	; ????
      aa:	01 56       	subi	r16, 0x61	; 97
      ac:	0c 46       	sbci	r16, 0x6C	; 108
      ae:	00 04       	cpc	r0, r0
      b0:	67 00       	.word	0x0067	; ????
      b2:	02 98       	cbi	0x00, 2	; 0
      b4:	60 22       	and	r6, r16
      b6:	91 c8       	rjmp	.-3806   	; 0xfffff1da <__eeprom_end+0xff7ef1da>
      b8:	0c 46       	sbci	r16, 0x6C	; 108
      ba:	00 01       	movw	r0, r0
      bc:	67 00       	.word	0x0067	; ????
      be:	02 00       	.word	0x0002	; ????
      c0:	0c 46       	sbci	r16, 0x6C	; 108
      c2:	00 02       	muls	r16, r16
      c4:	67 00       	.word	0x0067	; ????
      c6:	01 76       	andi	r16, 0x61	; 97
      c8:	0c 46       	sbci	r16, 0x6C	; 108
      ca:	00 03       	mulsu	r16, r16
      cc:	67 00       	.word	0x0067	; ????
      ce:	01 2a       	or	r0, r17
      d0:	0c 46       	sbci	r16, 0x6C	; 108
      d2:	00 04       	cpc	r0, r0
      d4:	67 00       	.word	0x0067	; ????
      d6:	03 10       	cpse	r0, r3
      d8:	61 4e       	sbci	r22, 0xE1	; 225
      da:	42 80       	ldd	r4, Z+2	; 0x02
      dc:	4a fa       	.word	0xfa4a	; ????
      de:	70 01       	movw	r14, r0
      e0:	72 40       	sbci	r23, 0x02	; 2
      e2:	20 7c       	andi	r18, 0xC0	; 192
      e4:	00 ff       	sbrs	r16, 0
      e6:	fc 14       	cp	r15, r12
      e8:	38 3c       	cpi	r19, 0xC8	; 200
      ea:	55 55       	subi	r21, 0x55	; 85
      ec:	24 7c       	andi	r18, 0xC4	; 196
      ee:	00 00       	nop
      f0:	aa aa       	std	Y+50, r10	; 0x32
      f2:	2c 7c       	andi	r18, 0xCC	; 204
      f4:	00 00       	nop
      f6:	55 54       	subi	r21, 0x45	; 69
      f8:	9b cd       	rjmp	.-1226   	; 0xfffffc30 <__eeprom_end+0xff7efc30>
      fa:	36 15       	cp	r19, r6
      fc:	34 8a       	std	Z+20, r3	; 0x14
      fe:	3c 84       	ldd	r3, Y+12	; 0x0c
     100:	34 bc       	out	0x24, r3	; 36
     102:	90 90 61 22 	lds	r9, 0x2261	; 0x802261 <__bss_end+0x19d9>
     106:	3e 1d       	adc	r19, r14
     108:	be 43       	sbci	r27, 0x3E	; 62
     10a:	67 26       	eor	r6, r23
     10c:	1e 15       	cp	r17, r14
     10e:	36 15       	cp	r19, r6
     110:	34 8a       	std	Z+20, r3	; 0x14
     112:	3c 84       	ldd	r3, Y+12	; 0x0c
     114:	34 bc       	out	0x24, r3	; 36
     116:	f0 f0       	brcs	.+60     	; 0x154 <__trampolines_end+0xec>
     118:	61 0e       	add	r6, r17
     11a:	61 0c       	add	r6, r1
     11c:	61 0a       	sbc	r6, r17
     11e:	61 08       	sbc	r6, r1
     120:	61 06       	cpc	r6, r17
     122:	7c 02       	muls	r23, r28
     124:	60 00       	.word	0x0060	; ????
     126:	00 46       	sbci	r16, 0x60	; 96
     128:	34 3c       	cpi	r19, 0xC4	; 196
     12a:	18 00       	.word	0x0018	; ????
     12c:	51 ca       	rjmp	.-2910   	; 0xfffff5d0 <__eeprom_end+0xff7ef5d0>
     12e:	ff fe       	.word	0xfeff	; ????
     130:	4e 75       	andi	r20, 0x5E	; 94
     132:	7c 01       	movw	r14, r24
     134:	30 c1       	rjmp	.+608    	; 0x396 <__trampolines_end+0x32e>
     136:	83 50       	subi	r24, 0x03	; 3
     138:	61 ee       	ldi	r22, 0xE1	; 225
     13a:	3b 02       	muls	r19, r27
     13c:	3a 82       	std	Y+2, r3	; 0x02
     13e:	61 e8       	ldi	r22, 0x81	; 129
     140:	3a bc       	out	0x2a, r3	; 42
     142:	90 90 3e 1d 	lds	r9, 0x1D3E	; 0x801d3e <__bss_end+0x14b6>
     146:	be 43       	sbci	r27, 0x3E	; 62
     148:	67 00       	.word	0x0067	; ????
     14a:	00 9c       	mul	r0, r0
     14c:	1e 15       	cp	r17, r14
     14e:	42 65       	ori	r20, 0x52	; 82
     150:	41 fa       	bst	r4, 1
     152:	02 fa       	bst	r0, 2
     154:	76 03       	mulsu	r23, r22
     156:	7a 02       	muls	r23, r26
     158:	74 01       	movw	r14, r8
     15a:	be 18       	sub	r11, r14
     15c:	67 00       	.word	0x0067	; ????
     15e:	00 90 51 ca 	lds	r0, 0xCA51	; 0x80ca51 <__bss_end+0xc1c9>
     162:	ff f8       	.word	0xf8ff	; ????
     164:	e3 4d       	sbci	r30, 0xD3	; 211
     166:	53 03       	mulsu	r21, r19
     168:	66 ee       	ldi	r22, 0xE6	; 230
     16a:	60 7a       	andi	r22, 0xA0	; 160
     16c:	7a 08       	sbc	r7, r10
     16e:	32 07       	cpc	r19, r18
     170:	ea 69       	ori	r30, 0x9A	; 154
     172:	0c 01       	movw	r0, r24
     174:	00 01       	movw	r0, r0
     176:	67 62       	ori	r22, 0x27	; 39
     178:	0c 01       	movw	r0, r24
     17a:	00 20       	and	r0, r0
     17c:	67 5c       	subi	r22, 0xC7	; 199
     17e:	0c 01       	movw	r0, r24
     180:	00 1c       	adc	r0, r0
     182:	67 56       	subi	r22, 0x67	; 103
     184:	0c 47       	sbci	r16, 0x7C	; 124
     186:	37 a4       	ldd	r3, Z+47	; 0x2f
     188:	67 62       	ori	r22, 0x27	; 39
     18a:	0c 47       	sbci	r16, 0x7C	; 124
     18c:	da a1       	ldd	r29, Y+34	; 0x22
     18e:	67 5c       	subi	r22, 0xC7	; 199
     190:	0c 47       	sbci	r16, 0x7C	; 124
     192:	9d 1c       	adc	r9, r13
     194:	67 56       	subi	r22, 0x67	; 103
     196:	0c 47       	sbci	r16, 0x7C	; 124
     198:	9d 4d       	sbci	r25, 0xDD	; 221
     19a:	67 52       	subi	r22, 0x27	; 39
     19c:	0c 47       	sbci	r16, 0x7C	; 124
     19e:	bf b4       	in	r11, 0x2f	; 47
     1a0:	67 48       	sbci	r22, 0x87	; 135
     1a2:	0c 47       	sbci	r16, 0x7C	; 124
     1a4:	bf b5       	in	r27, 0x2f	; 47
     1a6:	67 44       	sbci	r22, 0x47	; 71
     1a8:	0c 47       	sbci	r16, 0x7C	; 124
     1aa:	bf b6       	in	r11, 0x3f	; 63
     1ac:	67 40       	sbci	r22, 0x07	; 7
     1ae:	0c 47       	sbci	r16, 0x7C	; 124
     1b0:	00 22       	and	r0, r16
     1b2:	67 16       	cp	r6, r23
     1b4:	7c 03       	fmul	r23, r20
     1b6:	0c 47       	sbci	r16, 0x7C	; 124
     1b8:	1f 5d       	subi	r17, 0xDF	; 223
     1ba:	67 2e       	mov	r6, r23
     1bc:	0c 47       	sbci	r16, 0x7C	; 124
     1be:	1f d5       	rcall	.+2622   	; 0xbfe <Exec_WriteCMD_s+0x15c>
     1c0:	67 2a       	or	r6, r23
     1c2:	0c 47       	sbci	r16, 0x7C	; 124
     1c4:	1f da       	rcall	.-3010   	; 0xfffff604 <__eeprom_end+0xff7ef604>
     1c6:	67 26       	eor	r6, r23
     1c8:	60 1c       	adc	r6, r0
     1ca:	7a 10       	cpse	r7, r10
     1cc:	0c 43       	sbci	r16, 0x3C	; 60
     1ce:	22 23       	and	r18, r18
     1d0:	67 1a       	sub	r6, r23
     1d2:	0c 43       	sbci	r16, 0x3C	; 60
     1d4:	22 81       	ldd	r18, Z+2	; 0x02
     1d6:	67 16       	cp	r6, r23
     1d8:	60 0c       	add	r6, r0
     1da:	0c 07       	cpc	r16, r28
     1dc:	00 21       	and	r16, r0
     1de:	67 0a       	sbc	r6, r23
     1e0:	0c 07       	cpc	r16, r28
     1e2:	00 20       	and	r0, r0
     1e4:	67 06       	cpc	r6, r23
     1e6:	42 86       	std	Z+10, r4	; 0x0a
     1e8:	42 80       	ldd	r4, Z+2	; 0x02
     1ea:	e2 4d       	sbci	r30, 0xD2	; 210
     1ec:	e2 4d       	sbci	r30, 0xD2	; 210
     1ee:	48 45       	sbci	r20, 0x58	; 88
     1f0:	22 45       	sbci	r18, 0x52	; 82
     1f2:	42 85       	ldd	r20, Z+10	; 0x0a
     1f4:	53 85       	ldd	r21, Z+11	; 0x0b
     1f6:	4a fa       	.word	0xfa4a	; ????
     1f8:	61 00       	.word	0x0061	; ????
     1fa:	ff 2e       	mov	r15, r31
     1fc:	70 01       	movw	r14, r0
     1fe:	4a fa       	.word	0xfa4a	; ????
     200:	76 7f       	andi	r23, 0xF6	; 246
     202:	26 48       	sbci	r18, 0x86	; 134
     204:	28 49       	sbci	r18, 0x98	; 152
     206:	30 03       	mulsu	r19, r16
     208:	b7 4c       	sbci	r27, 0xC7	; 199
     20a:	66 10       	cpse	r6, r6
     20c:	51 c8       	rjmp	.-3934   	; 0xfffff2b0 <__eeprom_end+0xff7ef2b0>
     20e:	ff fa       	.word	0xfaff	; ????
     210:	20 4b       	sbci	r18, 0xB0	; 176
     212:	22 4c       	sbci	r18, 0xC2	; 194
     214:	92 43       	sbci	r25, 0x32	; 50
     216:	53 41       	sbci	r21, 0x13	; 19
     218:	67 1e       	adc	r6, r23
     21a:	60 e6       	ldi	r22, 0x60	; 96
     21c:	26 48       	sbci	r18, 0x86	; 134
     21e:	28 49       	sbci	r18, 0x98	; 152
     220:	30 03       	mulsu	r19, r16
     222:	34 8a       	std	Z+20, r3	; 0x14
     224:	3c 84       	ldd	r3, Y+12	; 0x0c
     226:	34 bc       	out	0x24, r3	; 36
     228:	a0 a0       	ldd	r10, Z+32	; 0x20
     22a:	36 dc       	rcall	.-1940   	; 0xfffffa98 <__eeprom_end+0xff7efa98>
     22c:	51 c8       	rjmp	.-3934   	; 0xfffff2d0 <__eeprom_end+0xff7ef2d0>
     22e:	ff fc       	.word	0xfcff	; ????
     230:	30 10       	cpse	r3, r0
     232:	b0 50       	subi	r27, 0x00	; 0
     234:	66 fa       	bst	r6, 6
     236:	60 ca       	rjmp	.-2880   	; 0xfffff6f8 <__eeprom_end+0xff7ef6f8>
     238:	70 01       	movw	r14, r0
     23a:	4a fa       	.word	0xfa4a	; ????
     23c:	ba 50       	subi	r27, 0x0A	; 10
     23e:	67 18       	sub	r6, r7
     240:	34 8a       	std	Z+20, r3	; 0x14
     242:	3c 84       	ldd	r3, Y+12	; 0x0c
     244:	34 bc       	out	0x24, r3	; 36
     246:	80 80       	ld	r8, Z
     248:	34 8a       	std	Z+20, r3	; 0x14
     24a:	3c 84       	ldd	r3, Y+12	; 0x0c
     24c:	34 bc       	out	0x24, r3	; 36
     24e:	10 10       	cpse	r1, r0
     250:	34 10       	cpse	r3, r4
     252:	b4 50       	subi	r27, 0x04	; 4
     254:	66 fa       	bst	r6, 6
     256:	60 e4       	ldi	r22, 0x40	; 64
     258:	54 88       	ldd	r5, Z+20	; 0x14
     25a:	b1 c9       	rjmp	.-3230   	; 0xfffff5be <__eeprom_end+0xff7ef5be>
     25c:	65 de       	rcall	.-822    	; 0xffffff28 <__eeprom_end+0xff7eff28>
     25e:	70 01       	movw	r14, r0
     260:	4a fa       	.word	0xfa4a	; ????
     262:	b3 48       	sbci	r27, 0x83	; 131
     264:	67 12       	cpse	r6, r23
     266:	34 8a       	std	Z+20, r3	; 0x14
     268:	3c 84       	ldd	r3, Y+12	; 0x0c
     26a:	34 bc       	out	0x24, r3	; 36
     26c:	a0 a0       	ldd	r10, Z+32	; 0x20
     26e:	31 21       	and	r19, r1
     270:	30 10       	cpse	r3, r0
     272:	b0 50       	subi	r27, 0x00	; 0
     274:	66 fa       	bst	r6, 6
     276:	60 ea       	ldi	r22, 0xA0	; 160
     278:	53 41       	sbci	r21, 0x13	; 19
     27a:	66 e6       	ldi	r22, 0x66	; 102
     27c:	70 01       	movw	r14, r0
     27e:	4a fa       	.word	0xfa4a	; ????
     280:	70 19       	sub	r23, r0
     282:	b3 48       	sbci	r27, 0x83	; 131
     284:	67 1e       	adc	r6, r23
     286:	31 3c       	cpi	r19, 0xC1	; 193
     288:	40 40       	sbci	r20, 0x00	; 0
     28a:	30 a1       	ldd	r19, Z+32	; 0x20
     28c:	61 20       	and	r6, r1
     28e:	30 bc       	out	0x20, r3	; 32
     290:	c0 c0       	rjmp	.+384    	; 0x412 <__FUSE_REGION_LENGTH__+0x12>
     292:	61 22       	and	r6, r17
     294:	b3 48       	sbci	r27, 0x83	; 131
     296:	66 06       	cpc	r6, r22
     298:	42 60       	ori	r20, 0x02	; 2
     29a:	4a 61       	ori	r20, 0x1A	; 26
     29c:	60 e4       	ldi	r22, 0x40	; 64
     29e:	53 00       	.word	0x0053	; ????
     2a0:	66 e4       	ldi	r22, 0x46	; 70
     2a2:	4a fa       	.word	0xfa4a	; ????
     2a4:	53 41       	sbci	r21, 0x13	; 19
     2a6:	66 d8       	rcall	.-3892   	; 0xfffff374 <__eeprom_end+0xff7ef374>
     2a8:	70 01       	movw	r14, r0
     2aa:	42 50       	subi	r20, 0x02	; 2
     2ac:	4a fa       	.word	0xfa4a	; ????
     2ae:	76 0f       	add	r23, r22
     2b0:	53 83       	std	Z+3, r21	; 0x03
     2b2:	66 fc       	sbrc	r6, 6
     2b4:	4e 75       	andi	r20, 0x5E	; 94
     2b6:	76 08       	sbc	r7, r6
     2b8:	53 83       	std	Z+3, r21	; 0x03
     2ba:	66 fc       	sbrc	r6, 6
     2bc:	4e 75       	andi	r20, 0x5E	; 94
     2be:	24 48       	sbci	r18, 0x84	; 132
     2c0:	70 19       	sub	r23, r0
     2c2:	4a 5a       	subi	r20, 0xAA	; 170
     2c4:	67 1c       	adc	r6, r7
     2c6:	35 3c       	cpi	r19, 0xC5	; 197
     2c8:	40 40       	sbci	r20, 0x00	; 0
     2ca:	42 52       	subi	r20, 0x22	; 34
     2cc:	61 e0       	ldi	r22, 0x01	; 1
     2ce:	34 bc       	out	0x24, r3	; 36
     2d0:	c0 c0       	rjmp	.+384    	; 0x452 <__ctors_end>
     2d2:	61 e2       	ldi	r22, 0x21	; 33
     2d4:	4a 5a       	subi	r20, 0xAA	; 170
     2d6:	66 04       	cpc	r6, r6
     2d8:	42 62       	ori	r20, 0x22	; 34
     2da:	60 e6       	ldi	r22, 0x60	; 96
     2dc:	53 00       	.word	0x0053	; ????
     2de:	67 36       	cpi	r22, 0x67	; 103
     2e0:	60 e4       	ldi	r22, 0x40	; 64
     2e2:	b5 c9       	rjmp	.-3222   	; 0xfffff64e <__eeprom_end+0xff7ef64e>
     2e4:	65 da       	rcall	.-2870   	; 0xfffff7b0 <__eeprom_end+0xff7ef7b0>
     2e6:	30 3c       	cpi	r19, 0xC0	; 192
     2e8:	03 e8       	ldi	r16, 0x83	; 131
     2ea:	32 3c       	cpi	r19, 0xC2	; 194
     2ec:	20 20       	and	r2, r0
     2ee:	ba 58       	subi	r27, 0x8A	; 138
     2f0:	67 1e       	adc	r6, r23
     2f2:	31 01       	movw	r6, r2
     2f4:	30 81       	ld	r19, Z
     2f6:	36 3c       	cpi	r19, 0xC6	; 198
     2f8:	42 40       	sbci	r20, 0x02	; 2
     2fa:	51 cb       	rjmp	.-2398   	; 0xfffff99e <__eeprom_end+0xff7ef99e>
     2fc:	ff fe       	.word	0xfeff	; ????
     2fe:	30 bc       	out	0x20, r3	; 32
     300:	a0 a0       	ldd	r10, Z+32	; 0x20
     302:	61 b2       	in	r6, 0x11	; 17
     304:	ba 50       	subi	r27, 0x0A	; 10
     306:	66 04       	cpc	r6, r6
     308:	42 50       	subi	r20, 0x02	; 2
     30a:	60 e2       	ldi	r22, 0x20	; 32
     30c:	53 40       	sbci	r21, 0x03	; 3
     30e:	67 06       	cpc	r6, r23
     310:	b1 c9       	rjmp	.-3230   	; 0xfffff674 <__eeprom_end+0xff7ef674>
     312:	65 da       	rcall	.-2870   	; 0xfffff7de <__eeprom_end+0xff7ef7de>
     314:	70 01       	movw	r14, r0
     316:	4a fa       	.word	0xfa4a	; ????
     318:	33 fc       	sbrc	r3, 3
     31a:	d0 84       	ldd	r13, Z+8	; 0x08
     31c:	00 ff       	sbrs	r16, 0
     31e:	fa 04       	cpc	r15, r10
     320:	28 7c       	andi	r18, 0xC8	; 200
     322:	00 ff       	sbrs	r16, 0
     324:	f8 00       	.word	0x00f8	; ????
     326:	38 bc       	out	0x28, r3	; 40
     328:	98 00       	.word	0x0098	; ????
     32a:	2a 7c       	andi	r18, 0xCA	; 202
     32c:	00 ff       	sbrs	r16, 0
     32e:	f8 08       	sbc	r15, r8
     330:	42 9d       	mul	r20, r2
     332:	38 bc       	out	0x28, r3	; 40
     334:	18 00       	.word	0x0018	; ????
     336:	2c 7c       	andi	r18, 0xCC	; 204
     338:	00 ff       	sbrs	r16, 0
     33a:	f8 0e       	add	r15, r24
     33c:	42 85       	ldd	r20, Z+10	; 0x0a
     33e:	53 85       	ldd	r21, Z+11	; 0x0b
     340:	7c 04       	cpc	r7, r12
     342:	70 01       	movw	r14, r0
     344:	61 00       	.word	0x0061	; ????
     346:	00 84       	ldd	r0, Z+8	; 0x08
     348:	4a fa       	.word	0xfa4a	; ????
     34a:	61 7e       	andi	r22, 0xE1	; 225
     34c:	b1 fc       	sbrc	r11, 1
     34e:	00 04       	cpc	r0, r0
     350:	00 00       	nop
     352:	6d 08       	sbc	r6, r13
     354:	61 7c       	andi	r22, 0xC1	; 193
     356:	32 3c       	cpi	r19, 0xC2	; 194
     358:	00 80       	ld	r0, Z
     35a:	91 c8       	rjmp	.-3806   	; 0xfffff47e <__eeprom_end+0xff7ef47e>
     35c:	26 08       	sbc	r2, r6
     35e:	34 3c       	cpi	r19, 0xC4	; 196
     360:	01 00       	.word	0x0001	; ????
     362:	e0 8b       	std	Z+16, r30	; 0x10
     364:	ee 8b       	std	Y+22, r30	; 0x16
     366:	e7 6a       	ori	r30, 0xA7	; 167
     368:	14 3c       	cpi	r17, 0xC4	; 196
     36a:	00 32       	cpi	r16, 0x20	; 32
     36c:	24 48       	sbci	r18, 0x84	; 132
     36e:	26 49       	sbci	r18, 0x96	; 150
     370:	76 40       	sbci	r23, 0x06	; 6
     372:	61 44       	sbci	r22, 0x41	; 65
     374:	b7 4a       	sbci	r27, 0xA7	; 167
     376:	66 12       	cpse	r6, r22
     378:	55 83       	std	Z+5, r21	; 0x05
     37a:	66 f8       	bld	r6, 6
     37c:	20 4a       	sbci	r18, 0xA0	; 160
     37e:	22 4b       	sbci	r18, 0xB2	; 178
     380:	04 81       	ldd	r16, Z+4	; 0x04
     382:	00 00       	nop
     384:	00 20       	and	r0, r0
     386:	66 e8       	ldi	r22, 0x86	; 134
     388:	4a fa       	.word	0xfa4a	; ????
     38a:	3c 82       	std	Y+4, r3	; 0x04
     38c:	24 48       	sbci	r18, 0x84	; 132
     38e:	26 49       	sbci	r18, 0x96	; 150
     390:	76 40       	sbci	r23, 0x06	; 6
     392:	34 db       	rcall	.-2456   	; 0xfffff9fc <__eeprom_end+0xff7ef9fc>
     394:	55 43       	sbci	r21, 0x35	; 53
     396:	66 fa       	bst	r6, 6
     398:	00 56       	subi	r16, 0x60	; 96
     39a:	00 01       	movw	r0, r0
     39c:	61 1a       	sub	r6, r17
     39e:	4a 55       	subi	r20, 0x5A	; 90
     3a0:	6b fa       	.word	0xfa6b	; ????
     3a2:	02 56       	subi	r16, 0x62	; 98
     3a4:	ff fe       	.word	0xfeff	; ????
     3a6:	24 48       	sbci	r18, 0x84	; 132
     3a8:	76 40       	sbci	r23, 0x06	; 6
     3aa:	4a 1a       	sub	r4, r26
     3ac:	66 ea       	ldi	r22, 0xA6	; 166
     3ae:	53 03       	mulsu	r21, r19
     3b0:	66 f8       	bld	r6, 6
     3b2:	02 56       	subi	r16, 0x62	; 98
     3b4:	ff fd       	.word	0xfdff	; ????
     3b6:	60 b4       	in	r6, 0x20	; 32
     3b8:	13 fc       	sbrc	r1, 3
     3ba:	00 55       	subi	r16, 0x50	; 80
     3bc:	00 ff       	sbrs	r16, 0
     3be:	fa 27       	eor	r31, r26
     3c0:	13 fc       	sbrc	r1, 3
     3c2:	00 aa       	std	Z+48, r0	; 0x30
     3c4:	00 ff       	sbrs	r16, 0
     3c6:	fa 27       	eor	r31, r26
     3c8:	4e 75       	andi	r20, 0x5E	; 94
     3ca:	61 ec       	ldi	r22, 0xC1	; 193
     3cc:	02 54       	subi	r16, 0x42	; 66
     3ce:	df ff       	.word	0xffdf	; ????
     3d0:	4e 75       	andi	r20, 0x5E	; 94
     3d2:	61 e4       	ldi	r22, 0x41	; 65
     3d4:	00 54       	subi	r16, 0x40	; 64
     3d6:	20 00       	.word	0x0020	; ????
     3d8:	4e 75       	andi	r20, 0x5E	; 94
     3da:	22 48       	sbci	r18, 0x82	; 130
     3dc:	ba 59       	subi	r27, 0x9A	; 154
     3de:	66 04       	cpc	r6, r6
     3e0:	55 41       	sbci	r21, 0x15	; 21
     3e2:	66 f8       	bld	r6, 6
     3e4:	4e 75       	andi	r20, 0x5E	; 94
     3e6:	3a bc       	out	0x2a, r3	; 42
     3e8:	22 3c       	cpi	r18, 0xC2	; 194
     3ea:	61 de       	rcall	.-830    	; 0xae <__trampolines_end+0x46>
     3ec:	42 80       	ldd	r4, Z+2	; 0x02
     3ee:	26 00       	.word	0x0026	; ????
     3f0:	34 3c       	cpi	r19, 0xC4	; 196
     3f2:	01 00       	.word	0x0001	; ????
     3f4:	e7 6a       	ori	r30, 0xA7	; 167
     3f6:	4c 3c       	cpi	r20, 0xCC	; 204
     3f8:	30 00       	.word	0x0030	; ????
     3fa:	00 00       	nop
     3fc:	80 00       	.word	0x0080	; ????
     3fe:	20 43       	sbci	r18, 0x30	; 48
     400:	14 3c       	cpi	r17, 0xC4	; 196
     402:	00 36       	cpi	r16, 0x60	; 96
     404:	3c 82       	std	Y+4, r3	; 0x04
     406:	30 85       	ldd	r19, Z+8	; 0x08
     408:	00 56       	subi	r16, 0x60	; 96
     40a:	00 01       	movw	r0, r0
     40c:	61 aa       	std	Z+49, r6	; 0x31
     40e:	4a 55       	subi	r20, 0x5A	; 90
     410:	6b fa       	.word	0xfa6b	; ????
     412:	02 56       	subi	r16, 0x62	; 98
     414:	ff fe       	.word	0xfeff	; ????
     416:	32 3c       	cpi	r19, 0xC2	; 194
     418:	80 00       	.word	0x0080	; ????
     41a:	61 be       	out	0x31, r6	; 49
     41c:	4a 41       	sbci	r20, 0x1A	; 26
     41e:	66 e8       	ldi	r22, 0x86	; 134
     420:	4a 00       	.word	0x004a	; ????
     422:	66 0e       	add	r6, r22
     424:	61 ac       	ldd	r6, Z+57	; 0x39
     426:	32 3c       	cpi	r19, 0xC2	; 194
     428:	01 00       	.word	0x0001	; ????
     42a:	61 ae       	std	Z+57, r6	; 0x39
     42c:	61 9c       	mul	r6, r1
     42e:	4a 41       	sbci	r20, 0x1A	; 26
     430:	66 d6       	rcall	.+3276   	; 0x10fe <Exec_ReadCMD_s+0x2a6>
     432:	02 56       	subi	r16, 0x62	; 98
     434:	ff fd       	.word	0xfdff	; ????
     436:	52 40       	sbci	r21, 0x02	; 2
     438:	02 00       	.word	0x0002	; ????
     43a:	00 07       	cpc	r16, r16
     43c:	66 b0       	in	r6, 0x06	; 6
     43e:	02 56       	subi	r16, 0x62	; 98
     440:	ff f9       	.word	0xf9ff	; ????
     442:	3a bc       	out	0x2a, r3	; 42
     444:	20 0b       	sbc	r18, r16
     446:	70 01       	movw	r14, r0
     448:	4a fa       	.word	0xfa4a	; ????
     44a:	00 00       	nop
     44c:	25 b8       	out	0x05, r2	; 5
     44e:	a7 b4       	in	r10, 0x27	; 39
     450:	2a bd       	out	0x2a, r18	; 42

00000452 <__ctors_end>:
     452:	11 24       	eor	r1, r1
     454:	1f be       	out	0x3f, r1	; 63
     456:	cf ef       	ldi	r28, 0xFF	; 255
     458:	d8 e0       	ldi	r29, 0x08	; 8
     45a:	de bf       	out	0x3e, r29	; 62
     45c:	cd bf       	out	0x3d, r28	; 61

0000045e <__do_copy_data>:
     45e:	11 e0       	ldi	r17, 0x01	; 1
     460:	a0 e0       	ldi	r26, 0x00	; 0
     462:	b1 e0       	ldi	r27, 0x01	; 1
     464:	ea ee       	ldi	r30, 0xEA	; 234
     466:	f8 e7       	ldi	r31, 0x78	; 120
     468:	02 c0       	rjmp	.+4      	; 0x46e <__do_copy_data+0x10>
     46a:	05 90       	lpm	r0, Z+
     46c:	0d 92       	st	X+, r0
     46e:	a4 3c       	cpi	r26, 0xC4	; 196
     470:	b1 07       	cpc	r27, r17
     472:	d9 f7       	brne	.-10     	; 0x46a <__do_copy_data+0xc>

00000474 <__do_clear_bss>:
     474:	28 e0       	ldi	r18, 0x08	; 8
     476:	a4 ec       	ldi	r26, 0xC4	; 196
     478:	b1 e0       	ldi	r27, 0x01	; 1
     47a:	01 c0       	rjmp	.+2      	; 0x47e <.do_clear_bss_start>

0000047c <.do_clear_bss_loop>:
     47c:	1d 92       	st	X+, r1

0000047e <.do_clear_bss_start>:
     47e:	a8 38       	cpi	r26, 0x88	; 136
     480:	b2 07       	cpc	r27, r18
     482:	e1 f7       	brne	.-8      	; 0x47c <.do_clear_bss_loop>
     484:	0e 94 19 3a 	call	0x7432	; 0x7432 <main>
     488:	0c 94 73 3c 	jmp	0x78e6	; 0x78e6 <_exit>

0000048c <__bad_interrupt>:
     48c:	0c 94 00 00 	jmp	0	; 0x0 <__vectors>

00000490 <PrepTrionic82>:
     490:	0f 93       	push	r16
     492:	1f 93       	push	r17
     494:	00 e1       	ldi	r16, 0x10	; 16
     496:	10 e0       	ldi	r17, 0x00	; 0
     498:	20 e0       	ldi	r18, 0x00	; 0
     49a:	30 e0       	ldi	r19, 0x00	; 0
     49c:	40 e4       	ldi	r20, 0x40	; 64
     49e:	58 e1       	ldi	r21, 0x18	; 24
     4a0:	64 e0       	ldi	r22, 0x04	; 4
     4a2:	7b ef       	ldi	r23, 0xFB	; 251
     4a4:	8f ef       	ldi	r24, 0xFF	; 255
     4a6:	90 e0       	ldi	r25, 0x00	; 0
     4a8:	0e 94 82 0a 	call	0x1504	; 0x1504 <Exec_WriteCMD>
     4ac:	00 e0       	ldi	r16, 0x00	; 0
     4ae:	10 e0       	ldi	r17, 0x00	; 0
     4b0:	20 e0       	ldi	r18, 0x00	; 0
     4b2:	30 e0       	ldi	r19, 0x00	; 0
     4b4:	40 e4       	ldi	r20, 0x40	; 64
     4b6:	58 e1       	ldi	r21, 0x18	; 24
     4b8:	66 e0       	ldi	r22, 0x06	; 6
     4ba:	7b ef       	ldi	r23, 0xFB	; 251
     4bc:	8f ef       	ldi	r24, 0xFF	; 255
     4be:	90 e0       	ldi	r25, 0x00	; 0
     4c0:	0e 94 82 0a 	call	0x1504	; 0x1504 <Exec_WriteCMD>
     4c4:	00 e0       	ldi	r16, 0x00	; 0
     4c6:	18 e0       	ldi	r17, 0x08	; 8
     4c8:	20 e0       	ldi	r18, 0x00	; 0
     4ca:	30 e0       	ldi	r19, 0x00	; 0
     4cc:	40 e4       	ldi	r20, 0x40	; 64
     4ce:	58 e1       	ldi	r21, 0x18	; 24
     4d0:	60 e0       	ldi	r22, 0x00	; 0
     4d2:	7b ef       	ldi	r23, 0xFB	; 251
     4d4:	8f ef       	ldi	r24, 0xFF	; 255
     4d6:	90 e0       	ldi	r25, 0x00	; 0
     4d8:	0e 94 82 0a 	call	0x1504	; 0x1504 <Exec_WriteCMD>
     4dc:	1f 91       	pop	r17
     4de:	0f 91       	pop	r16
     4e0:	08 95       	ret

000004e2 <PrepTrionic81>:
     4e2:	0f 93       	push	r16
     4e4:	1f 93       	push	r17
     4e6:	00 e0       	ldi	r16, 0x00	; 0
     4e8:	14 e8       	ldi	r17, 0x84	; 132
     4ea:	20 e0       	ldi	r18, 0x00	; 0
     4ec:	30 e0       	ldi	r19, 0x00	; 0
     4ee:	40 e4       	ldi	r20, 0x40	; 64
     4f0:	58 e1       	ldi	r21, 0x18	; 24
     4f2:	60 ec       	ldi	r22, 0xC0	; 192
     4f4:	76 ef       	ldi	r23, 0xF6	; 246
     4f6:	8f ef       	ldi	r24, 0xFF	; 255
     4f8:	90 e0       	ldi	r25, 0x00	; 0
     4fa:	0e 94 82 0a 	call	0x1504	; 0x1504 <Exec_WriteCMD>
     4fe:	00 e0       	ldi	r16, 0x00	; 0
     500:	10 e8       	ldi	r17, 0x80	; 128
     502:	20 e0       	ldi	r18, 0x00	; 0
     504:	30 e0       	ldi	r19, 0x00	; 0
     506:	40 e4       	ldi	r20, 0x40	; 64
     508:	58 e1       	ldi	r21, 0x18	; 24
     50a:	60 e8       	ldi	r22, 0x80	; 128
     50c:	76 ef       	ldi	r23, 0xF6	; 246
     50e:	8f ef       	ldi	r24, 0xFF	; 255
     510:	90 e0       	ldi	r25, 0x00	; 0
     512:	0e 94 82 0a 	call	0x1504	; 0x1504 <Exec_WriteCMD>
     516:	00 e0       	ldi	r16, 0x00	; 0
     518:	10 e0       	ldi	r17, 0x00	; 0
     51a:	20 e0       	ldi	r18, 0x00	; 0
     51c:	30 e0       	ldi	r19, 0x00	; 0
     51e:	40 e4       	ldi	r20, 0x40	; 64
     520:	58 e1       	ldi	r21, 0x18	; 24
     522:	60 e8       	ldi	r22, 0x80	; 128
     524:	76 ef       	ldi	r23, 0xF6	; 246
     526:	8f ef       	ldi	r24, 0xFF	; 255
     528:	90 e0       	ldi	r25, 0x00	; 0
     52a:	0e 94 82 0a 	call	0x1504	; 0x1504 <Exec_WriteCMD>
     52e:	00 e0       	ldi	r16, 0x00	; 0
     530:	10 e1       	ldi	r17, 0x10	; 16
     532:	20 e0       	ldi	r18, 0x00	; 0
     534:	30 e0       	ldi	r19, 0x00	; 0
     536:	40 e4       	ldi	r20, 0x40	; 64
     538:	58 e1       	ldi	r21, 0x18	; 24
     53a:	64 e8       	ldi	r22, 0x84	; 132
     53c:	76 ef       	ldi	r23, 0xF6	; 246
     53e:	8f ef       	ldi	r24, 0xFF	; 255
     540:	90 e0       	ldi	r25, 0x00	; 0
     542:	0e 94 82 0a 	call	0x1504	; 0x1504 <Exec_WriteCMD>
     546:	05 e5       	ldi	r16, 0x55	; 85
     548:	10 e0       	ldi	r17, 0x00	; 0
     54a:	20 e0       	ldi	r18, 0x00	; 0
     54c:	30 e0       	ldi	r19, 0x00	; 0
     54e:	40 e0       	ldi	r20, 0x00	; 0
     550:	58 e1       	ldi	r21, 0x18	; 24
     552:	67 e2       	ldi	r22, 0x27	; 39
     554:	7a ef       	ldi	r23, 0xFA	; 250
     556:	8f ef       	ldi	r24, 0xFF	; 255
     558:	90 e0       	ldi	r25, 0x00	; 0
     55a:	0e 94 82 0a 	call	0x1504	; 0x1504 <Exec_WriteCMD>
     55e:	0a ea       	ldi	r16, 0xAA	; 170
     560:	10 e0       	ldi	r17, 0x00	; 0
     562:	20 e0       	ldi	r18, 0x00	; 0
     564:	30 e0       	ldi	r19, 0x00	; 0
     566:	40 e0       	ldi	r20, 0x00	; 0
     568:	58 e1       	ldi	r21, 0x18	; 24
     56a:	67 e2       	ldi	r22, 0x27	; 39
     56c:	7a ef       	ldi	r23, 0xFA	; 250
     56e:	8f ef       	ldi	r24, 0xFF	; 255
     570:	90 e0       	ldi	r25, 0x00	; 0
     572:	0e 94 82 0a 	call	0x1504	; 0x1504 <Exec_WriteCMD>
     576:	00 e0       	ldi	r16, 0x00	; 0
     578:	10 e0       	ldi	r17, 0x00	; 0
     57a:	20 e0       	ldi	r18, 0x00	; 0
     57c:	30 e0       	ldi	r19, 0x00	; 0
     57e:	40 e4       	ldi	r20, 0x40	; 64
     580:	58 e1       	ldi	r21, 0x18	; 24
     582:	68 e5       	ldi	r22, 0x58	; 88
     584:	7a ef       	ldi	r23, 0xFA	; 250
     586:	8f ef       	ldi	r24, 0xFF	; 255
     588:	90 e0       	ldi	r25, 0x00	; 0
     58a:	0e 94 82 0a 	call	0x1504	; 0x1504 <Exec_WriteCMD>
     58e:	1f 91       	pop	r17
     590:	0f 91       	pop	r16
     592:	08 95       	ret

00000594 <PrepTrionic5>:
     594:	0f 93       	push	r16
     596:	1f 93       	push	r17
     598:	00 91 04 01 	lds	r16, 0x0104	; 0x800104 <CSPAR0>
     59c:	10 91 05 01 	lds	r17, 0x0105	; 0x800105 <CSPAR0+0x1>
     5a0:	20 e0       	ldi	r18, 0x00	; 0
     5a2:	30 e0       	ldi	r19, 0x00	; 0
     5a4:	40 e4       	ldi	r20, 0x40	; 64
     5a6:	58 e1       	ldi	r21, 0x18	; 24
     5a8:	64 e4       	ldi	r22, 0x44	; 68
     5aa:	7a ef       	ldi	r23, 0xFA	; 250
     5ac:	8f ef       	ldi	r24, 0xFF	; 255
     5ae:	90 e0       	ldi	r25, 0x00	; 0
     5b0:	0e 94 82 0a 	call	0x1504	; 0x1504 <Exec_WriteCMD>
     5b4:	00 91 02 01 	lds	r16, 0x0102	; 0x800102 <CSBARBT>
     5b8:	10 91 03 01 	lds	r17, 0x0103	; 0x800103 <CSBARBT+0x1>
     5bc:	20 e0       	ldi	r18, 0x00	; 0
     5be:	30 e0       	ldi	r19, 0x00	; 0
     5c0:	40 e4       	ldi	r20, 0x40	; 64
     5c2:	58 e1       	ldi	r21, 0x18	; 24
     5c4:	68 e4       	ldi	r22, 0x48	; 72
     5c6:	7a ef       	ldi	r23, 0xFA	; 250
     5c8:	8f ef       	ldi	r24, 0xFF	; 255
     5ca:	90 e0       	ldi	r25, 0x00	; 0
     5cc:	0e 94 82 0a 	call	0x1504	; 0x1504 <Exec_WriteCMD>
     5d0:	00 91 00 01 	lds	r16, 0x0100	; 0x800100 <CSORBT>
     5d4:	10 91 01 01 	lds	r17, 0x0101	; 0x800101 <CSORBT+0x1>
     5d8:	20 e0       	ldi	r18, 0x00	; 0
     5da:	30 e0       	ldi	r19, 0x00	; 0
     5dc:	40 e4       	ldi	r20, 0x40	; 64
     5de:	5c e1       	ldi	r21, 0x1C	; 28
     5e0:	60 e0       	ldi	r22, 0x00	; 0
     5e2:	70 e0       	ldi	r23, 0x00	; 0
     5e4:	80 e0       	ldi	r24, 0x00	; 0
     5e6:	90 e0       	ldi	r25, 0x00	; 0
     5e8:	0e 94 82 0a 	call	0x1504	; 0x1504 <Exec_WriteCMD>
     5ec:	07 e0       	ldi	r16, 0x07	; 7
     5ee:	10 e0       	ldi	r17, 0x00	; 0
     5f0:	20 e0       	ldi	r18, 0x00	; 0
     5f2:	30 e0       	ldi	r19, 0x00	; 0
     5f4:	40 e4       	ldi	r20, 0x40	; 64
     5f6:	58 e1       	ldi	r21, 0x18	; 24
     5f8:	60 e5       	ldi	r22, 0x50	; 80
     5fa:	7a ef       	ldi	r23, 0xFA	; 250
     5fc:	8f ef       	ldi	r24, 0xFF	; 255
     5fe:	90 e0       	ldi	r25, 0x00	; 0
     600:	0e 94 82 0a 	call	0x1504	; 0x1504 <Exec_WriteCMD>
     604:	00 e3       	ldi	r16, 0x30	; 48
     606:	10 e3       	ldi	r17, 0x30	; 48
     608:	20 e0       	ldi	r18, 0x00	; 0
     60a:	30 e0       	ldi	r19, 0x00	; 0
     60c:	40 e4       	ldi	r20, 0x40	; 64
     60e:	5c e1       	ldi	r21, 0x1C	; 28
     610:	60 e0       	ldi	r22, 0x00	; 0
     612:	70 e0       	ldi	r23, 0x00	; 0
     614:	80 e0       	ldi	r24, 0x00	; 0
     616:	90 e0       	ldi	r25, 0x00	; 0
     618:	0e 94 82 0a 	call	0x1504	; 0x1504 <Exec_WriteCMD>
     61c:	07 e0       	ldi	r16, 0x07	; 7
     61e:	10 e0       	ldi	r17, 0x00	; 0
     620:	20 e0       	ldi	r18, 0x00	; 0
     622:	30 e0       	ldi	r19, 0x00	; 0
     624:	40 e4       	ldi	r20, 0x40	; 64
     626:	5c e1       	ldi	r21, 0x1C	; 28
     628:	60 e0       	ldi	r22, 0x00	; 0
     62a:	70 e0       	ldi	r23, 0x00	; 0
     62c:	80 e0       	ldi	r24, 0x00	; 0
     62e:	90 e0       	ldi	r25, 0x00	; 0
     630:	0e 94 82 0a 	call	0x1504	; 0x1504 <Exec_WriteCMD>
     634:	00 e3       	ldi	r16, 0x30	; 48
     636:	10 e5       	ldi	r17, 0x50	; 80
     638:	20 e0       	ldi	r18, 0x00	; 0
     63a:	30 e0       	ldi	r19, 0x00	; 0
     63c:	40 e4       	ldi	r20, 0x40	; 64
     63e:	5c e1       	ldi	r21, 0x1C	; 28
     640:	60 e0       	ldi	r22, 0x00	; 0
     642:	70 e0       	ldi	r23, 0x00	; 0
     644:	80 e0       	ldi	r24, 0x00	; 0
     646:	90 e0       	ldi	r25, 0x00	; 0
     648:	0e 94 82 0a 	call	0x1504	; 0x1504 <Exec_WriteCMD>
     64c:	82 e3       	ldi	r24, 0x32	; 50
     64e:	90 e0       	ldi	r25, 0x00	; 0
     650:	0e 94 f7 3a 	call	0x75ee	; 0x75ee <sleep>
     654:	00 e0       	ldi	r16, 0x00	; 0
     656:	10 e1       	ldi	r17, 0x10	; 16
     658:	20 e0       	ldi	r18, 0x00	; 0
     65a:	30 e0       	ldi	r19, 0x00	; 0
     65c:	40 e4       	ldi	r20, 0x40	; 64
     65e:	58 e1       	ldi	r21, 0x18	; 24
     660:	64 e0       	ldi	r22, 0x04	; 4
     662:	7b ef       	ldi	r23, 0xFB	; 251
     664:	8f ef       	ldi	r24, 0xFF	; 255
     666:	90 e0       	ldi	r25, 0x00	; 0
     668:	0e 94 82 0a 	call	0x1504	; 0x1504 <Exec_WriteCMD>
     66c:	1f 91       	pop	r17
     66e:	0f 91       	pop	r16
     670:	08 95       	ret

00000672 <PrepT>:
     672:	0f 93       	push	r16
     674:	1f 93       	push	r17
     676:	10 92 29 06 	sts	0x0629, r1	; 0x800629 <Systype>
     67a:	0e 94 a7 38 	call	0x714e	; 0x714e <lcd_clrscr>
     67e:	60 e0       	ldi	r22, 0x00	; 0
     680:	81 e1       	ldi	r24, 0x11	; 17
     682:	91 e0       	ldi	r25, 0x01	; 1
     684:	0e 94 0d 39 	call	0x721a	; 0x721a <lcd_puts>
     688:	80 91 06 01 	lds	r24, 0x0106	; 0x800106 <SFC>
     68c:	08 2f       	mov	r16, r24
     68e:	10 e0       	ldi	r17, 0x00	; 0
     690:	20 e0       	ldi	r18, 0x00	; 0
     692:	30 e0       	ldi	r19, 0x00	; 0
     694:	4e e8       	ldi	r20, 0x8E	; 142
     696:	54 e2       	ldi	r21, 0x24	; 36
     698:	60 e0       	ldi	r22, 0x00	; 0
     69a:	70 e0       	ldi	r23, 0x00	; 0
     69c:	80 e0       	ldi	r24, 0x00	; 0
     69e:	90 e0       	ldi	r25, 0x00	; 0
     6a0:	0e 94 51 05 	call	0xaa2	; 0xaa2 <Exec_WriteCMD_s>
     6a4:	80 91 07 01 	lds	r24, 0x0107	; 0x800107 <DFC>
     6a8:	08 2f       	mov	r16, r24
     6aa:	10 e0       	ldi	r17, 0x00	; 0
     6ac:	20 e0       	ldi	r18, 0x00	; 0
     6ae:	30 e0       	ldi	r19, 0x00	; 0
     6b0:	4f e8       	ldi	r20, 0x8F	; 143
     6b2:	54 e2       	ldi	r21, 0x24	; 36
     6b4:	60 e0       	ldi	r22, 0x00	; 0
     6b6:	70 e0       	ldi	r23, 0x00	; 0
     6b8:	80 e0       	ldi	r24, 0x00	; 0
     6ba:	90 e0       	ldi	r25, 0x00	; 0
     6bc:	0e 94 51 05 	call	0xaa2	; 0xaa2 <Exec_WriteCMD_s>
     6c0:	0e 94 a7 38 	call	0x714e	; 0x714e <lcd_clrscr>
     6c4:	60 e0       	ldi	r22, 0x00	; 0
     6c6:	8a e1       	ldi	r24, 0x1A	; 26
     6c8:	91 e0       	ldi	r25, 0x01	; 1
     6ca:	0e 94 0d 39 	call	0x721a	; 0x721a <lcd_puts>
     6ce:	40 e4       	ldi	r20, 0x40	; 64
     6d0:	59 e1       	ldi	r21, 0x19	; 25
     6d2:	68 e0       	ldi	r22, 0x08	; 8
     6d4:	7a ef       	ldi	r23, 0xFA	; 250
     6d6:	8f ef       	ldi	r24, 0xFF	; 255
     6d8:	90 e0       	ldi	r25, 0x00	; 0
     6da:	0e 94 2c 07 	call	0xe58	; 0xe58 <Exec_ReadCMD_s>
     6de:	0e 94 a7 38 	call	0x714e	; 0x714e <lcd_clrscr>
     6e2:	60 e0       	ldi	r22, 0x00	; 0
     6e4:	82 e2       	ldi	r24, 0x22	; 34
     6e6:	91 e0       	ldi	r25, 0x01	; 1
     6e8:	0e 94 0d 39 	call	0x721a	; 0x721a <lcd_puts>
     6ec:	80 91 02 04 	lds	r24, 0x0402	; 0x800402 <bdmresp>
     6f0:	90 91 03 04 	lds	r25, 0x0403	; 0x800403 <bdmresp+0x1>
     6f4:	88 30       	cpi	r24, 0x08	; 8
     6f6:	99 4a       	sbci	r25, 0xA9	; 169
     6f8:	09 f4       	brne	.+2      	; 0x6fc <PrepT+0x8a>
     6fa:	55 c0       	rjmp	.+170    	; 0x7a6 <PrepT+0x134>
     6fc:	40 e4       	ldi	r20, 0x40	; 64
     6fe:	59 e1       	ldi	r21, 0x19	; 25
     700:	64 e0       	ldi	r22, 0x04	; 4
     702:	7a ef       	ldi	r23, 0xFA	; 250
     704:	8f ef       	ldi	r24, 0xFF	; 255
     706:	90 e0       	ldi	r25, 0x00	; 0
     708:	0e 94 2c 07 	call	0xe58	; 0xe58 <Exec_ReadCMD_s>
     70c:	80 91 02 04 	lds	r24, 0x0402	; 0x800402 <bdmresp>
     710:	90 91 03 04 	lds	r25, 0x0403	; 0x800403 <bdmresp+0x1>
     714:	88 30       	cpi	r24, 0x08	; 8
     716:	90 43       	sbci	r25, 0x30	; 48
     718:	41 f5       	brne	.+80     	; 0x76a <PrepT+0xf8>
     71a:	84 e0       	ldi	r24, 0x04	; 4
     71c:	80 93 29 06 	sts	0x0629, r24	; 0x800629 <Systype>
     720:	00 e0       	ldi	r16, 0x00	; 0
     722:	10 ee       	ldi	r17, 0xE0	; 224
     724:	20 e0       	ldi	r18, 0x00	; 0
     726:	30 e0       	ldi	r19, 0x00	; 0
     728:	40 e4       	ldi	r20, 0x40	; 64
     72a:	58 e1       	ldi	r21, 0x18	; 24
     72c:	64 e0       	ldi	r22, 0x04	; 4
     72e:	7a ef       	ldi	r23, 0xFA	; 250
     730:	8f ef       	ldi	r24, 0xFF	; 255
     732:	90 e0       	ldi	r25, 0x00	; 0
     734:	0e 94 51 05 	call	0xaa2	; 0xaa2 <Exec_WriteCMD_s>
     738:	84 e6       	ldi	r24, 0x64	; 100
     73a:	90 e0       	ldi	r25, 0x00	; 0
     73c:	0e 94 f7 3a 	call	0x75ee	; 0x75ee <sleep>
     740:	0e 94 a7 38 	call	0x714e	; 0x714e <lcd_clrscr>
     744:	80 91 29 06 	lds	r24, 0x0629	; 0x800629 <Systype>
     748:	84 30       	cpi	r24, 0x04	; 4
     74a:	e9 f1       	breq	.+122    	; 0x7c6 <PrepT+0x154>
     74c:	83 30       	cpi	r24, 0x03	; 3
     74e:	09 f4       	brne	.+2      	; 0x752 <PrepT+0xe0>
     750:	76 c0       	rjmp	.+236    	; 0x83e <PrepT+0x1cc>
     752:	82 30       	cpi	r24, 0x02	; 2
     754:	09 f4       	brne	.+2      	; 0x758 <PrepT+0xe6>
     756:	6b c0       	rjmp	.+214    	; 0x82e <PrepT+0x1bc>
     758:	81 30       	cpi	r24, 0x01	; 1
     75a:	09 f4       	brne	.+2      	; 0x75e <PrepT+0xec>
     75c:	60 c0       	rjmp	.+192    	; 0x81e <PrepT+0x1ac>
     75e:	60 e0       	ldi	r22, 0x00	; 0
     760:	87 e3       	ldi	r24, 0x37	; 55
     762:	91 e0       	ldi	r25, 0x01	; 1
     764:	0e 94 0d 39 	call	0x721a	; 0x721a <lcd_puts>
     768:	ff cf       	rjmp	.-2      	; 0x768 <PrepT+0xf6>
     76a:	40 e4       	ldi	r20, 0x40	; 64
     76c:	59 e1       	ldi	r21, 0x19	; 25
     76e:	64 e2       	ldi	r22, 0x24	; 36
     770:	7a ef       	ldi	r23, 0xFA	; 250
     772:	8f ef       	ldi	r24, 0xFF	; 255
     774:	90 e0       	ldi	r25, 0x00	; 0
     776:	0e 94 2c 07 	call	0xe58	; 0xe58 <Exec_ReadCMD_s>
     77a:	80 91 2c 06 	lds	r24, 0x062C	; 0x80062c <bdmresp16>
     77e:	90 91 2d 06 	lds	r25, 0x062D	; 0x80062d <bdmresp16+0x1>
     782:	88 27       	eor	r24, r24
     784:	91 70       	andi	r25, 0x01	; 1
     786:	0e 94 2e 3b 	call	0x765c	; 0x765c <showval>
     78a:	80 ed       	ldi	r24, 0xD0	; 208
     78c:	97 e0       	ldi	r25, 0x07	; 7
     78e:	0e 94 f7 3a 	call	0x75ee	; 0x75ee <sleep>
     792:	80 91 2c 06 	lds	r24, 0x062C	; 0x80062c <bdmresp16>
     796:	90 91 2d 06 	lds	r25, 0x062D	; 0x80062d <bdmresp16+0x1>
     79a:	90 ff       	sbrs	r25, 0
     79c:	3a c0       	rjmp	.+116    	; 0x812 <PrepT+0x1a0>
     79e:	82 e0       	ldi	r24, 0x02	; 2
     7a0:	80 93 29 06 	sts	0x0629, r24	; 0x800629 <Systype>
     7a4:	c9 cf       	rjmp	.-110    	; 0x738 <PrepT+0xc6>
     7a6:	83 e0       	ldi	r24, 0x03	; 3
     7a8:	80 93 29 06 	sts	0x0629, r24	; 0x800629 <Systype>
     7ac:	08 e0       	ldi	r16, 0x08	; 8
     7ae:	18 e6       	ldi	r17, 0x68	; 104
     7b0:	20 e0       	ldi	r18, 0x00	; 0
     7b2:	30 e0       	ldi	r19, 0x00	; 0
     7b4:	40 e4       	ldi	r20, 0x40	; 64
     7b6:	58 e1       	ldi	r21, 0x18	; 24
     7b8:	68 e0       	ldi	r22, 0x08	; 8
     7ba:	7a ef       	ldi	r23, 0xFA	; 250
     7bc:	8f ef       	ldi	r24, 0xFF	; 255
     7be:	90 e0       	ldi	r25, 0x00	; 0
     7c0:	0e 94 51 05 	call	0xaa2	; 0xaa2 <Exec_WriteCMD_s>
     7c4:	b9 cf       	rjmp	.-142    	; 0x738 <PrepT+0xc6>
     7c6:	0e 94 48 02 	call	0x490	; 0x490 <PrepTrionic82>
     7ca:	60 e0       	ldi	r22, 0x00	; 0
     7cc:	8a e2       	ldi	r24, 0x2A	; 42
     7ce:	91 e0       	ldi	r25, 0x01	; 1
     7d0:	0e 94 0d 39 	call	0x721a	; 0x721a <lcd_puts>
     7d4:	84 e6       	ldi	r24, 0x64	; 100
     7d6:	90 e0       	ldi	r25, 0x00	; 0
     7d8:	0e 94 f7 3a 	call	0x75ee	; 0x75ee <sleep>
     7dc:	10 92 c5 00 	sts	0x00C5, r1	; 0x8000c5 <__TEXT_REGION_LENGTH__+0x7e00c5>
     7e0:	81 e0       	ldi	r24, 0x01	; 1
     7e2:	80 93 c4 00 	sts	0x00C4, r24	; 0x8000c4 <__TEXT_REGION_LENGTH__+0x7e00c4>
     7e6:	82 e0       	ldi	r24, 0x02	; 2
     7e8:	80 93 c0 00 	sts	0x00C0, r24	; 0x8000c0 <__TEXT_REGION_LENGTH__+0x7e00c0>
     7ec:	80 91 29 06 	lds	r24, 0x0629	; 0x800629 <Systype>
     7f0:	83 30       	cpi	r24, 0x03	; 3
     7f2:	61 f0       	breq	.+24     	; 0x80c <PrepT+0x19a>
     7f4:	00 e0       	ldi	r16, 0x00	; 0
     7f6:	10 e0       	ldi	r17, 0x00	; 0
     7f8:	20 e0       	ldi	r18, 0x00	; 0
     7fa:	30 e0       	ldi	r19, 0x00	; 0
     7fc:	40 e0       	ldi	r20, 0x00	; 0
     7fe:	58 e1       	ldi	r21, 0x18	; 24
     800:	61 e2       	ldi	r22, 0x21	; 33
     802:	7a ef       	ldi	r23, 0xFA	; 250
     804:	8f ef       	ldi	r24, 0xFF	; 255
     806:	90 e0       	ldi	r25, 0x00	; 0
     808:	0e 94 82 0a 	call	0x1504	; 0x1504 <Exec_WriteCMD>
     80c:	1f 91       	pop	r17
     80e:	0f 91       	pop	r16
     810:	08 95       	ret
     812:	81 e0       	ldi	r24, 0x01	; 1
     814:	80 93 29 06 	sts	0x0629, r24	; 0x800629 <Systype>
     818:	00 e0       	ldi	r16, 0x00	; 0
     81a:	1f e7       	ldi	r17, 0x7F	; 127
     81c:	83 cf       	rjmp	.-250    	; 0x724 <PrepT+0xb2>
     81e:	0e 94 ca 02 	call	0x594	; 0x594 <PrepTrionic5>
     822:	60 e0       	ldi	r22, 0x00	; 0
     824:	84 e3       	ldi	r24, 0x34	; 52
     826:	91 e0       	ldi	r25, 0x01	; 1
     828:	0e 94 0d 39 	call	0x721a	; 0x721a <lcd_puts>
     82c:	d3 cf       	rjmp	.-90     	; 0x7d4 <PrepT+0x162>
     82e:	0e 94 ca 02 	call	0x594	; 0x594 <PrepTrionic5>
     832:	60 e0       	ldi	r22, 0x00	; 0
     834:	81 e3       	ldi	r24, 0x31	; 49
     836:	91 e0       	ldi	r25, 0x01	; 1
     838:	0e 94 0d 39 	call	0x721a	; 0x721a <lcd_puts>
     83c:	cb cf       	rjmp	.-106    	; 0x7d4 <PrepT+0x162>
     83e:	0e 94 71 02 	call	0x4e2	; 0x4e2 <PrepTrionic81>
     842:	60 e0       	ldi	r22, 0x00	; 0
     844:	8e e2       	ldi	r24, 0x2E	; 46
     846:	91 e0       	ldi	r25, 0x01	; 1
     848:	0e 94 0d 39 	call	0x721a	; 0x721a <lcd_puts>
     84c:	c3 cf       	rjmp	.-122    	; 0x7d4 <PrepT+0x162>

0000084e <InitBDMpins>:
     84e:	10 92 c5 00 	sts	0x00C5, r1	; 0x8000c5 <__TEXT_REGION_LENGTH__+0x7e00c5>
     852:	8f e0       	ldi	r24, 0x0F	; 15
     854:	80 93 c4 00 	sts	0x00C4, r24	; 0x8000c4 <__TEXT_REGION_LENGTH__+0x7e00c4>
     858:	10 92 c2 00 	sts	0x00C2, r1	; 0x8000c2 <__TEXT_REGION_LENGTH__+0x7e00c2>
     85c:	10 92 c1 00 	sts	0x00C1, r1	; 0x8000c1 <__TEXT_REGION_LENGTH__+0x7e00c1>
     860:	40 e0       	ldi	r20, 0x00	; 0
     862:	62 e0       	ldi	r22, 0x02	; 2
     864:	83 e0       	ldi	r24, 0x03	; 3
     866:	0e 94 73 36 	call	0x6ce6	; 0x6ce6 <SetPinDir>
     86a:	40 e0       	ldi	r20, 0x00	; 0
     86c:	64 e0       	ldi	r22, 0x04	; 4
     86e:	83 e0       	ldi	r24, 0x03	; 3
     870:	0e 94 73 36 	call	0x6ce6	; 0x6ce6 <SetPinDir>
     874:	42 e0       	ldi	r20, 0x02	; 2
     876:	67 e0       	ldi	r22, 0x07	; 7
     878:	83 e0       	ldi	r24, 0x03	; 3
     87a:	0e 94 73 36 	call	0x6ce6	; 0x6ce6 <SetPinDir>
     87e:	40 e0       	ldi	r20, 0x00	; 0
     880:	61 e0       	ldi	r22, 0x01	; 1
     882:	83 e0       	ldi	r24, 0x03	; 3
     884:	0e 94 73 36 	call	0x6ce6	; 0x6ce6 <SetPinDir>
     888:	40 e0       	ldi	r20, 0x00	; 0
     88a:	60 e0       	ldi	r22, 0x00	; 0
     88c:	83 e0       	ldi	r24, 0x03	; 3
     88e:	0c 94 73 36 	jmp	0x6ce6	; 0x6ce6 <SetPinDir>

00000892 <ResetTarget>:
     892:	41 e0       	ldi	r20, 0x01	; 1
     894:	62 e0       	ldi	r22, 0x02	; 2
     896:	83 e0       	ldi	r24, 0x03	; 3
     898:	0e 94 73 36 	call	0x6ce6	; 0x6ce6 <SetPinDir>
     89c:	41 e0       	ldi	r20, 0x01	; 1
     89e:	64 e0       	ldi	r22, 0x04	; 4
     8a0:	83 e0       	ldi	r24, 0x03	; 3
     8a2:	0e 94 73 36 	call	0x6ce6	; 0x6ce6 <SetPinDir>
     8a6:	41 e0       	ldi	r20, 0x01	; 1
     8a8:	64 e0       	ldi	r22, 0x04	; 4
     8aa:	83 e0       	ldi	r24, 0x03	; 3
     8ac:	0e 94 fa 36 	call	0x6df4	; 0x6df4 <WritePin>
     8b0:	41 e0       	ldi	r20, 0x01	; 1
     8b2:	62 e0       	ldi	r22, 0x02	; 2
     8b4:	83 e0       	ldi	r24, 0x03	; 3
     8b6:	0e 94 fa 36 	call	0x6df4	; 0x6df4 <WritePin>
     8ba:	82 e3       	ldi	r24, 0x32	; 50
     8bc:	90 e0       	ldi	r25, 0x00	; 0
     8be:	0e 94 f7 3a 	call	0x75ee	; 0x75ee <sleep>
     8c2:	40 e0       	ldi	r20, 0x00	; 0
     8c4:	62 e0       	ldi	r22, 0x02	; 2
     8c6:	83 e0       	ldi	r24, 0x03	; 3
     8c8:	0e 94 fa 36 	call	0x6df4	; 0x6df4 <WritePin>
     8cc:	10 92 c5 00 	sts	0x00C5, r1	; 0x8000c5 <__TEXT_REGION_LENGTH__+0x7e00c5>
     8d0:	8f e0       	ldi	r24, 0x0F	; 15
     8d2:	80 93 c4 00 	sts	0x00C4, r24	; 0x8000c4 <__TEXT_REGION_LENGTH__+0x7e00c4>
     8d6:	10 92 c2 00 	sts	0x00C2, r1	; 0x8000c2 <__TEXT_REGION_LENGTH__+0x7e00c2>
     8da:	10 92 c1 00 	sts	0x00C1, r1	; 0x8000c1 <__TEXT_REGION_LENGTH__+0x7e00c1>
     8de:	40 e0       	ldi	r20, 0x00	; 0
     8e0:	62 e0       	ldi	r22, 0x02	; 2
     8e2:	83 e0       	ldi	r24, 0x03	; 3
     8e4:	0e 94 73 36 	call	0x6ce6	; 0x6ce6 <SetPinDir>
     8e8:	40 e0       	ldi	r20, 0x00	; 0
     8ea:	64 e0       	ldi	r22, 0x04	; 4
     8ec:	83 e0       	ldi	r24, 0x03	; 3
     8ee:	0e 94 73 36 	call	0x6ce6	; 0x6ce6 <SetPinDir>
     8f2:	42 e0       	ldi	r20, 0x02	; 2
     8f4:	67 e0       	ldi	r22, 0x07	; 7
     8f6:	83 e0       	ldi	r24, 0x03	; 3
     8f8:	0e 94 73 36 	call	0x6ce6	; 0x6ce6 <SetPinDir>
     8fc:	40 e0       	ldi	r20, 0x00	; 0
     8fe:	61 e0       	ldi	r22, 0x01	; 1
     900:	83 e0       	ldi	r24, 0x03	; 3
     902:	0e 94 73 36 	call	0x6ce6	; 0x6ce6 <SetPinDir>
     906:	40 e0       	ldi	r20, 0x00	; 0
     908:	60 e0       	ldi	r22, 0x00	; 0
     90a:	83 e0       	ldi	r24, 0x03	; 3
     90c:	0e 94 73 36 	call	0x6ce6	; 0x6ce6 <SetPinDir>
     910:	84 ef       	ldi	r24, 0xF4	; 244
     912:	91 e0       	ldi	r25, 0x01	; 1
     914:	90 93 01 04 	sts	0x0401, r25	; 0x800401 <MiscTime+0x1>
     918:	80 93 00 04 	sts	0x0400, r24	; 0x800400 <MiscTime>
     91c:	06 c0       	rjmp	.+12     	; 0x92a <__stack+0x2b>
     91e:	80 91 00 04 	lds	r24, 0x0400	; 0x800400 <MiscTime>
     922:	90 91 01 04 	lds	r25, 0x0401	; 0x800401 <MiscTime+0x1>
     926:	89 2b       	or	r24, r25
     928:	31 f0       	breq	.+12     	; 0x936 <__stack+0x37>
     92a:	62 e0       	ldi	r22, 0x02	; 2
     92c:	83 e0       	ldi	r24, 0x03	; 3
     92e:	0e 94 d7 36 	call	0x6dae	; 0x6dae <ReadPin>
     932:	88 23       	and	r24, r24
     934:	a1 f3       	breq	.-24     	; 0x91e <__stack+0x1f>
     936:	62 e0       	ldi	r22, 0x02	; 2
     938:	83 e0       	ldi	r24, 0x03	; 3
     93a:	0c 94 d7 36 	jmp	0x6dae	; 0x6dae <ReadPin>

0000093e <StopTarget>:
     93e:	41 e0       	ldi	r20, 0x01	; 1
     940:	64 e0       	ldi	r22, 0x04	; 4
     942:	83 e0       	ldi	r24, 0x03	; 3
     944:	0e 94 73 36 	call	0x6ce6	; 0x6ce6 <SetPinDir>
     948:	41 e0       	ldi	r20, 0x01	; 1
     94a:	61 e0       	ldi	r22, 0x01	; 1
     94c:	83 e0       	ldi	r24, 0x03	; 3
     94e:	0e 94 73 36 	call	0x6ce6	; 0x6ce6 <SetPinDir>
     952:	41 e0       	ldi	r20, 0x01	; 1
     954:	64 e0       	ldi	r22, 0x04	; 4
     956:	83 e0       	ldi	r24, 0x03	; 3
     958:	0e 94 fa 36 	call	0x6df4	; 0x6df4 <WritePin>
     95c:	40 e0       	ldi	r20, 0x00	; 0
     95e:	64 e0       	ldi	r22, 0x04	; 4
     960:	83 e0       	ldi	r24, 0x03	; 3
     962:	0e 94 fa 36 	call	0x6df4	; 0x6df4 <WritePin>
     966:	84 ef       	ldi	r24, 0xF4	; 244
     968:	91 e0       	ldi	r25, 0x01	; 1
     96a:	90 93 01 04 	sts	0x0401, r25	; 0x800401 <MiscTime+0x1>
     96e:	80 93 00 04 	sts	0x0400, r24	; 0x800400 <MiscTime>
     972:	06 c0       	rjmp	.+12     	; 0x980 <StopTarget+0x42>
     974:	80 91 00 04 	lds	r24, 0x0400	; 0x800400 <MiscTime>
     978:	90 91 01 04 	lds	r25, 0x0401	; 0x800401 <MiscTime+0x1>
     97c:	89 2b       	or	r24, r25
     97e:	31 f0       	breq	.+12     	; 0x98c <StopTarget+0x4e>
     980:	67 e0       	ldi	r22, 0x07	; 7
     982:	83 e0       	ldi	r24, 0x03	; 3
     984:	0e 94 d7 36 	call	0x6dae	; 0x6dae <ReadPin>
     988:	88 23       	and	r24, r24
     98a:	a1 f3       	breq	.-24     	; 0x974 <StopTarget+0x36>
     98c:	67 e0       	ldi	r22, 0x07	; 7
     98e:	83 e0       	ldi	r24, 0x03	; 3
     990:	0e 94 d7 36 	call	0x6dae	; 0x6dae <ReadPin>
     994:	88 23       	and	r24, r24
     996:	41 f0       	breq	.+16     	; 0x9a8 <StopTarget+0x6a>
     998:	8a e0       	ldi	r24, 0x0A	; 10
     99a:	90 e0       	ldi	r25, 0x00	; 0
     99c:	0e 94 f7 3a 	call	0x75ee	; 0x75ee <sleep>
     9a0:	67 e0       	ldi	r22, 0x07	; 7
     9a2:	83 e0       	ldi	r24, 0x03	; 3
     9a4:	0c 94 d7 36 	jmp	0x6dae	; 0x6dae <ReadPin>
     9a8:	40 e0       	ldi	r20, 0x00	; 0
     9aa:	62 e0       	ldi	r22, 0x02	; 2
     9ac:	83 e0       	ldi	r24, 0x03	; 3
     9ae:	0e 94 fa 36 	call	0x6df4	; 0x6df4 <WritePin>
     9b2:	84 e6       	ldi	r24, 0x64	; 100
     9b4:	90 e0       	ldi	r25, 0x00	; 0
     9b6:	0e 94 f7 3a 	call	0x75ee	; 0x75ee <sleep>
     9ba:	41 e0       	ldi	r20, 0x01	; 1
     9bc:	62 e0       	ldi	r22, 0x02	; 2
     9be:	83 e0       	ldi	r24, 0x03	; 3
     9c0:	0e 94 fa 36 	call	0x6df4	; 0x6df4 <WritePin>
     9c4:	84 ef       	ldi	r24, 0xF4	; 244
     9c6:	91 e0       	ldi	r25, 0x01	; 1
     9c8:	90 93 01 04 	sts	0x0401, r25	; 0x800401 <MiscTime+0x1>
     9cc:	80 93 00 04 	sts	0x0400, r24	; 0x800400 <MiscTime>
     9d0:	06 c0       	rjmp	.+12     	; 0x9de <StopTarget+0xa0>
     9d2:	80 91 00 04 	lds	r24, 0x0400	; 0x800400 <MiscTime>
     9d6:	90 91 01 04 	lds	r25, 0x0401	; 0x800401 <MiscTime+0x1>
     9da:	89 2b       	or	r24, r25
     9dc:	e9 f2       	breq	.-70     	; 0x998 <StopTarget+0x5a>
     9de:	67 e0       	ldi	r22, 0x07	; 7
     9e0:	83 e0       	ldi	r24, 0x03	; 3
     9e2:	0e 94 d7 36 	call	0x6dae	; 0x6dae <ReadPin>
     9e6:	88 23       	and	r24, r24
     9e8:	a1 f3       	breq	.-24     	; 0x9d2 <StopTarget+0x94>
     9ea:	8a e0       	ldi	r24, 0x0A	; 10
     9ec:	90 e0       	ldi	r25, 0x00	; 0
     9ee:	0e 94 f7 3a 	call	0x75ee	; 0x75ee <sleep>
     9f2:	67 e0       	ldi	r22, 0x07	; 7
     9f4:	83 e0       	ldi	r24, 0x03	; 3
     9f6:	0c 94 d7 36 	jmp	0x6dae	; 0x6dae <ReadPin>

000009fa <ShiftData_s>:
     9fa:	0f 93       	push	r16
     9fc:	1f 93       	push	r17
     9fe:	cf 93       	push	r28
     a00:	df 93       	push	r29
     a02:	8c 01       	movw	r16, r24
     a04:	10 92 06 04 	sts	0x0406, r1	; 0x800406 <Attn>
     a08:	d0 e1       	ldi	r29, 0x10	; 16
     a0a:	c1 e1       	ldi	r28, 0x11	; 17
     a0c:	12 c0       	rjmp	.+36     	; 0xa32 <ShiftData_s+0x38>
     a0e:	40 e0       	ldi	r20, 0x00	; 0
     a10:	61 e0       	ldi	r22, 0x01	; 1
     a12:	83 e0       	ldi	r24, 0x03	; 3
     a14:	0e 94 fa 36 	call	0x6df4	; 0x6df4 <WritePin>
     a18:	60 e0       	ldi	r22, 0x00	; 0
     a1a:	83 e0       	ldi	r24, 0x03	; 3
     a1c:	0e 94 d7 36 	call	0x6dae	; 0x6dae <ReadPin>
     a20:	80 93 06 04 	sts	0x0406, r24	; 0x800406 <Attn>
     a24:	41 e0       	ldi	r20, 0x01	; 1
     a26:	64 e0       	ldi	r22, 0x04	; 4
     a28:	83 e0       	ldi	r24, 0x03	; 3
     a2a:	0e 94 fa 36 	call	0x6df4	; 0x6df4 <WritePin>
     a2e:	c1 50       	subi	r28, 0x01	; 1
     a30:	d1 50       	subi	r29, 0x01	; 1
     a32:	40 e0       	ldi	r20, 0x00	; 0
     a34:	64 e0       	ldi	r22, 0x04	; 4
     a36:	83 e0       	ldi	r24, 0x03	; 3
     a38:	0e 94 fa 36 	call	0x6df4	; 0x6df4 <WritePin>
     a3c:	c1 31       	cpi	r28, 0x11	; 17
     a3e:	39 f3       	breq	.-50     	; 0xa0e <ShiftData_s+0x14>
     a40:	8f ef       	ldi	r24, 0xFF	; 255
     a42:	8c 0f       	add	r24, r28
     a44:	98 01       	movw	r18, r16
     a46:	02 c0       	rjmp	.+4      	; 0xa4c <ShiftData_s+0x52>
     a48:	36 95       	lsr	r19
     a4a:	27 95       	ror	r18
     a4c:	8a 95       	dec	r24
     a4e:	e2 f7       	brpl	.-8      	; 0xa48 <ShiftData_s+0x4e>
     a50:	42 2f       	mov	r20, r18
     a52:	41 70       	andi	r20, 0x01	; 1
     a54:	61 e0       	ldi	r22, 0x01	; 1
     a56:	83 e0       	ldi	r24, 0x03	; 3
     a58:	0e 94 fa 36 	call	0x6df4	; 0x6df4 <WritePin>
     a5c:	80 91 02 04 	lds	r24, 0x0402	; 0x800402 <bdmresp>
     a60:	90 91 03 04 	lds	r25, 0x0403	; 0x800403 <bdmresp+0x1>
     a64:	88 0f       	add	r24, r24
     a66:	99 1f       	adc	r25, r25
     a68:	90 93 03 04 	sts	0x0403, r25	; 0x800403 <bdmresp+0x1>
     a6c:	80 93 02 04 	sts	0x0402, r24	; 0x800402 <bdmresp>
     a70:	60 e0       	ldi	r22, 0x00	; 0
     a72:	83 e0       	ldi	r24, 0x03	; 3
     a74:	0e 94 d7 36 	call	0x6dae	; 0x6dae <ReadPin>
     a78:	20 91 02 04 	lds	r18, 0x0402	; 0x800402 <bdmresp>
     a7c:	30 91 03 04 	lds	r19, 0x0403	; 0x800403 <bdmresp+0x1>
     a80:	28 2b       	or	r18, r24
     a82:	30 93 03 04 	sts	0x0403, r19	; 0x800403 <bdmresp+0x1>
     a86:	20 93 02 04 	sts	0x0402, r18	; 0x800402 <bdmresp>
     a8a:	41 e0       	ldi	r20, 0x01	; 1
     a8c:	64 e0       	ldi	r22, 0x04	; 4
     a8e:	83 e0       	ldi	r24, 0x03	; 3
     a90:	0e 94 fa 36 	call	0x6df4	; 0x6df4 <WritePin>
     a94:	d1 11       	cpse	r29, r1
     a96:	cb cf       	rjmp	.-106    	; 0xa2e <ShiftData_s+0x34>
     a98:	df 91       	pop	r29
     a9a:	cf 91       	pop	r28
     a9c:	1f 91       	pop	r17
     a9e:	0f 91       	pop	r16
     aa0:	08 95       	ret

00000aa2 <Exec_WriteCMD_s>:
     aa2:	8f 92       	push	r8
     aa4:	9f 92       	push	r9
     aa6:	af 92       	push	r10
     aa8:	bf 92       	push	r11
     aaa:	cf 92       	push	r12
     aac:	df 92       	push	r13
     aae:	ef 92       	push	r14
     ab0:	ff 92       	push	r15
     ab2:	0f 93       	push	r16
     ab4:	1f 93       	push	r17
     ab6:	cf 93       	push	r28
     ab8:	df 93       	push	r29
     aba:	7c 01       	movw	r14, r24
     abc:	6b 01       	movw	r12, r22
     abe:	4a 01       	movw	r8, r20
     ac0:	59 01       	movw	r10, r18
     ac2:	10 92 06 04 	sts	0x0406, r1	; 0x800406 <Attn>
     ac6:	d0 e1       	ldi	r29, 0x10	; 16
     ac8:	c1 e1       	ldi	r28, 0x11	; 17
     aca:	12 c0       	rjmp	.+36     	; 0xaf0 <Exec_WriteCMD_s+0x4e>
     acc:	40 e0       	ldi	r20, 0x00	; 0
     ace:	61 e0       	ldi	r22, 0x01	; 1
     ad0:	83 e0       	ldi	r24, 0x03	; 3
     ad2:	0e 94 fa 36 	call	0x6df4	; 0x6df4 <WritePin>
     ad6:	60 e0       	ldi	r22, 0x00	; 0
     ad8:	83 e0       	ldi	r24, 0x03	; 3
     ada:	0e 94 d7 36 	call	0x6dae	; 0x6dae <ReadPin>
     ade:	80 93 06 04 	sts	0x0406, r24	; 0x800406 <Attn>
     ae2:	41 e0       	ldi	r20, 0x01	; 1
     ae4:	64 e0       	ldi	r22, 0x04	; 4
     ae6:	83 e0       	ldi	r24, 0x03	; 3
     ae8:	0e 94 fa 36 	call	0x6df4	; 0x6df4 <WritePin>
     aec:	c1 50       	subi	r28, 0x01	; 1
     aee:	d1 50       	subi	r29, 0x01	; 1
     af0:	40 e0       	ldi	r20, 0x00	; 0
     af2:	64 e0       	ldi	r22, 0x04	; 4
     af4:	83 e0       	ldi	r24, 0x03	; 3
     af6:	0e 94 fa 36 	call	0x6df4	; 0x6df4 <WritePin>
     afa:	c1 31       	cpi	r28, 0x11	; 17
     afc:	39 f3       	breq	.-50     	; 0xacc <Exec_WriteCMD_s+0x2a>
     afe:	8f ef       	ldi	r24, 0xFF	; 255
     b00:	8c 0f       	add	r24, r28
     b02:	94 01       	movw	r18, r8
     b04:	02 c0       	rjmp	.+4      	; 0xb0a <Exec_WriteCMD_s+0x68>
     b06:	36 95       	lsr	r19
     b08:	27 95       	ror	r18
     b0a:	8a 95       	dec	r24
     b0c:	e2 f7       	brpl	.-8      	; 0xb06 <Exec_WriteCMD_s+0x64>
     b0e:	42 2f       	mov	r20, r18
     b10:	41 70       	andi	r20, 0x01	; 1
     b12:	61 e0       	ldi	r22, 0x01	; 1
     b14:	83 e0       	ldi	r24, 0x03	; 3
     b16:	0e 94 fa 36 	call	0x6df4	; 0x6df4 <WritePin>
     b1a:	80 91 02 04 	lds	r24, 0x0402	; 0x800402 <bdmresp>
     b1e:	90 91 03 04 	lds	r25, 0x0403	; 0x800403 <bdmresp+0x1>
     b22:	88 0f       	add	r24, r24
     b24:	99 1f       	adc	r25, r25
     b26:	90 93 03 04 	sts	0x0403, r25	; 0x800403 <bdmresp+0x1>
     b2a:	80 93 02 04 	sts	0x0402, r24	; 0x800402 <bdmresp>
     b2e:	60 e0       	ldi	r22, 0x00	; 0
     b30:	83 e0       	ldi	r24, 0x03	; 3
     b32:	0e 94 d7 36 	call	0x6dae	; 0x6dae <ReadPin>
     b36:	20 91 02 04 	lds	r18, 0x0402	; 0x800402 <bdmresp>
     b3a:	30 91 03 04 	lds	r19, 0x0403	; 0x800403 <bdmresp+0x1>
     b3e:	28 2b       	or	r18, r24
     b40:	30 93 03 04 	sts	0x0403, r19	; 0x800403 <bdmresp+0x1>
     b44:	20 93 02 04 	sts	0x0402, r18	; 0x800402 <bdmresp>
     b48:	41 e0       	ldi	r20, 0x01	; 1
     b4a:	64 e0       	ldi	r22, 0x04	; 4
     b4c:	83 e0       	ldi	r24, 0x03	; 3
     b4e:	0e 94 fa 36 	call	0x6df4	; 0x6df4 <WritePin>
     b52:	d1 11       	cpse	r29, r1
     b54:	cb cf       	rjmp	.-106    	; 0xaec <Exec_WriteCMD_s+0x4a>
     b56:	e1 14       	cp	r14, r1
     b58:	f1 04       	cpc	r15, r1
     b5a:	21 f4       	brne	.+8      	; 0xb64 <Exec_WriteCMD_s+0xc2>
     b5c:	c1 14       	cp	r12, r1
     b5e:	d1 04       	cpc	r13, r1
     b60:	09 f4       	brne	.+2      	; 0xb64 <Exec_WriteCMD_s+0xc2>
     b62:	94 c0       	rjmp	.+296    	; 0xc8c <Exec_WriteCMD_s+0x1ea>
     b64:	10 92 06 04 	sts	0x0406, r1	; 0x800406 <Attn>
     b68:	d0 e1       	ldi	r29, 0x10	; 16
     b6a:	c1 e1       	ldi	r28, 0x11	; 17
     b6c:	12 c0       	rjmp	.+36     	; 0xb92 <Exec_WriteCMD_s+0xf0>
     b6e:	40 e0       	ldi	r20, 0x00	; 0
     b70:	61 e0       	ldi	r22, 0x01	; 1
     b72:	83 e0       	ldi	r24, 0x03	; 3
     b74:	0e 94 fa 36 	call	0x6df4	; 0x6df4 <WritePin>
     b78:	60 e0       	ldi	r22, 0x00	; 0
     b7a:	83 e0       	ldi	r24, 0x03	; 3
     b7c:	0e 94 d7 36 	call	0x6dae	; 0x6dae <ReadPin>
     b80:	80 93 06 04 	sts	0x0406, r24	; 0x800406 <Attn>
     b84:	41 e0       	ldi	r20, 0x01	; 1
     b86:	64 e0       	ldi	r22, 0x04	; 4
     b88:	83 e0       	ldi	r24, 0x03	; 3
     b8a:	0e 94 fa 36 	call	0x6df4	; 0x6df4 <WritePin>
     b8e:	c1 50       	subi	r28, 0x01	; 1
     b90:	d1 50       	subi	r29, 0x01	; 1
     b92:	40 e0       	ldi	r20, 0x00	; 0
     b94:	64 e0       	ldi	r22, 0x04	; 4
     b96:	83 e0       	ldi	r24, 0x03	; 3
     b98:	0e 94 fa 36 	call	0x6df4	; 0x6df4 <WritePin>
     b9c:	c1 31       	cpi	r28, 0x11	; 17
     b9e:	39 f3       	breq	.-50     	; 0xb6e <Exec_WriteCMD_s+0xcc>
     ba0:	8f ef       	ldi	r24, 0xFF	; 255
     ba2:	8c 0f       	add	r24, r28
     ba4:	97 01       	movw	r18, r14
     ba6:	02 c0       	rjmp	.+4      	; 0xbac <Exec_WriteCMD_s+0x10a>
     ba8:	36 95       	lsr	r19
     baa:	27 95       	ror	r18
     bac:	8a 95       	dec	r24
     bae:	e2 f7       	brpl	.-8      	; 0xba8 <Exec_WriteCMD_s+0x106>
     bb0:	42 2f       	mov	r20, r18
     bb2:	41 70       	andi	r20, 0x01	; 1
     bb4:	61 e0       	ldi	r22, 0x01	; 1
     bb6:	83 e0       	ldi	r24, 0x03	; 3
     bb8:	0e 94 fa 36 	call	0x6df4	; 0x6df4 <WritePin>
     bbc:	80 91 02 04 	lds	r24, 0x0402	; 0x800402 <bdmresp>
     bc0:	90 91 03 04 	lds	r25, 0x0403	; 0x800403 <bdmresp+0x1>
     bc4:	88 0f       	add	r24, r24
     bc6:	99 1f       	adc	r25, r25
     bc8:	90 93 03 04 	sts	0x0403, r25	; 0x800403 <bdmresp+0x1>
     bcc:	80 93 02 04 	sts	0x0402, r24	; 0x800402 <bdmresp>
     bd0:	60 e0       	ldi	r22, 0x00	; 0
     bd2:	83 e0       	ldi	r24, 0x03	; 3
     bd4:	0e 94 d7 36 	call	0x6dae	; 0x6dae <ReadPin>
     bd8:	20 91 02 04 	lds	r18, 0x0402	; 0x800402 <bdmresp>
     bdc:	30 91 03 04 	lds	r19, 0x0403	; 0x800403 <bdmresp+0x1>
     be0:	28 2b       	or	r18, r24
     be2:	30 93 03 04 	sts	0x0403, r19	; 0x800403 <bdmresp+0x1>
     be6:	20 93 02 04 	sts	0x0402, r18	; 0x800402 <bdmresp>
     bea:	41 e0       	ldi	r20, 0x01	; 1
     bec:	64 e0       	ldi	r22, 0x04	; 4
     bee:	83 e0       	ldi	r24, 0x03	; 3
     bf0:	0e 94 fa 36 	call	0x6df4	; 0x6df4 <WritePin>
     bf4:	d1 11       	cpse	r29, r1
     bf6:	cb cf       	rjmp	.-106    	; 0xb8e <Exec_WriteCMD_s+0xec>
     bf8:	10 92 06 04 	sts	0x0406, r1	; 0x800406 <Attn>
     bfc:	d0 e1       	ldi	r29, 0x10	; 16
     bfe:	c1 e1       	ldi	r28, 0x11	; 17
     c00:	12 c0       	rjmp	.+36     	; 0xc26 <Exec_WriteCMD_s+0x184>
     c02:	40 e0       	ldi	r20, 0x00	; 0
     c04:	61 e0       	ldi	r22, 0x01	; 1
     c06:	83 e0       	ldi	r24, 0x03	; 3
     c08:	0e 94 fa 36 	call	0x6df4	; 0x6df4 <WritePin>
     c0c:	60 e0       	ldi	r22, 0x00	; 0
     c0e:	83 e0       	ldi	r24, 0x03	; 3
     c10:	0e 94 d7 36 	call	0x6dae	; 0x6dae <ReadPin>
     c14:	80 93 06 04 	sts	0x0406, r24	; 0x800406 <Attn>
     c18:	41 e0       	ldi	r20, 0x01	; 1
     c1a:	64 e0       	ldi	r22, 0x04	; 4
     c1c:	83 e0       	ldi	r24, 0x03	; 3
     c1e:	0e 94 fa 36 	call	0x6df4	; 0x6df4 <WritePin>
     c22:	c1 50       	subi	r28, 0x01	; 1
     c24:	d1 50       	subi	r29, 0x01	; 1
     c26:	40 e0       	ldi	r20, 0x00	; 0
     c28:	64 e0       	ldi	r22, 0x04	; 4
     c2a:	83 e0       	ldi	r24, 0x03	; 3
     c2c:	0e 94 fa 36 	call	0x6df4	; 0x6df4 <WritePin>
     c30:	c1 31       	cpi	r28, 0x11	; 17
     c32:	39 f3       	breq	.-50     	; 0xc02 <Exec_WriteCMD_s+0x160>
     c34:	8f ef       	ldi	r24, 0xFF	; 255
     c36:	8c 0f       	add	r24, r28
     c38:	96 01       	movw	r18, r12
     c3a:	02 c0       	rjmp	.+4      	; 0xc40 <Exec_WriteCMD_s+0x19e>
     c3c:	36 95       	lsr	r19
     c3e:	27 95       	ror	r18
     c40:	8a 95       	dec	r24
     c42:	e2 f7       	brpl	.-8      	; 0xc3c <Exec_WriteCMD_s+0x19a>
     c44:	42 2f       	mov	r20, r18
     c46:	41 70       	andi	r20, 0x01	; 1
     c48:	61 e0       	ldi	r22, 0x01	; 1
     c4a:	83 e0       	ldi	r24, 0x03	; 3
     c4c:	0e 94 fa 36 	call	0x6df4	; 0x6df4 <WritePin>
     c50:	80 91 02 04 	lds	r24, 0x0402	; 0x800402 <bdmresp>
     c54:	90 91 03 04 	lds	r25, 0x0403	; 0x800403 <bdmresp+0x1>
     c58:	88 0f       	add	r24, r24
     c5a:	99 1f       	adc	r25, r25
     c5c:	90 93 03 04 	sts	0x0403, r25	; 0x800403 <bdmresp+0x1>
     c60:	80 93 02 04 	sts	0x0402, r24	; 0x800402 <bdmresp>
     c64:	60 e0       	ldi	r22, 0x00	; 0
     c66:	83 e0       	ldi	r24, 0x03	; 3
     c68:	0e 94 d7 36 	call	0x6dae	; 0x6dae <ReadPin>
     c6c:	20 91 02 04 	lds	r18, 0x0402	; 0x800402 <bdmresp>
     c70:	30 91 03 04 	lds	r19, 0x0403	; 0x800403 <bdmresp+0x1>
     c74:	28 2b       	or	r18, r24
     c76:	30 93 03 04 	sts	0x0403, r19	; 0x800403 <bdmresp+0x1>
     c7a:	20 93 02 04 	sts	0x0402, r18	; 0x800402 <bdmresp>
     c7e:	41 e0       	ldi	r20, 0x01	; 1
     c80:	64 e0       	ldi	r22, 0x04	; 4
     c82:	83 e0       	ldi	r24, 0x03	; 3
     c84:	0e 94 fa 36 	call	0x6df4	; 0x6df4 <WritePin>
     c88:	d1 11       	cpse	r29, r1
     c8a:	cb cf       	rjmp	.-106    	; 0xc22 <Exec_WriteCMD_s+0x180>
     c8c:	87 fc       	sbrc	r8, 7
     c8e:	67 c0       	rjmp	.+206    	; 0xd5e <Exec_WriteCMD_s+0x2bc>
     c90:	10 92 06 04 	sts	0x0406, r1	; 0x800406 <Attn>
     c94:	d0 e1       	ldi	r29, 0x10	; 16
     c96:	c1 e1       	ldi	r28, 0x11	; 17
     c98:	12 c0       	rjmp	.+36     	; 0xcbe <Exec_WriteCMD_s+0x21c>
     c9a:	40 e0       	ldi	r20, 0x00	; 0
     c9c:	61 e0       	ldi	r22, 0x01	; 1
     c9e:	83 e0       	ldi	r24, 0x03	; 3
     ca0:	0e 94 fa 36 	call	0x6df4	; 0x6df4 <WritePin>
     ca4:	60 e0       	ldi	r22, 0x00	; 0
     ca6:	83 e0       	ldi	r24, 0x03	; 3
     ca8:	0e 94 d7 36 	call	0x6dae	; 0x6dae <ReadPin>
     cac:	80 93 06 04 	sts	0x0406, r24	; 0x800406 <Attn>
     cb0:	41 e0       	ldi	r20, 0x01	; 1
     cb2:	64 e0       	ldi	r22, 0x04	; 4
     cb4:	83 e0       	ldi	r24, 0x03	; 3
     cb6:	0e 94 fa 36 	call	0x6df4	; 0x6df4 <WritePin>
     cba:	c1 50       	subi	r28, 0x01	; 1
     cbc:	d1 50       	subi	r29, 0x01	; 1
     cbe:	40 e0       	ldi	r20, 0x00	; 0
     cc0:	64 e0       	ldi	r22, 0x04	; 4
     cc2:	83 e0       	ldi	r24, 0x03	; 3
     cc4:	0e 94 fa 36 	call	0x6df4	; 0x6df4 <WritePin>
     cc8:	c1 31       	cpi	r28, 0x11	; 17
     cca:	39 f3       	breq	.-50     	; 0xc9a <Exec_WriteCMD_s+0x1f8>
     ccc:	8f ef       	ldi	r24, 0xFF	; 255
     cce:	8c 0f       	add	r24, r28
     cd0:	98 01       	movw	r18, r16
     cd2:	02 c0       	rjmp	.+4      	; 0xcd8 <Exec_WriteCMD_s+0x236>
     cd4:	36 95       	lsr	r19
     cd6:	27 95       	ror	r18
     cd8:	8a 95       	dec	r24
     cda:	e2 f7       	brpl	.-8      	; 0xcd4 <Exec_WriteCMD_s+0x232>
     cdc:	42 2f       	mov	r20, r18
     cde:	41 70       	andi	r20, 0x01	; 1
     ce0:	61 e0       	ldi	r22, 0x01	; 1
     ce2:	83 e0       	ldi	r24, 0x03	; 3
     ce4:	0e 94 fa 36 	call	0x6df4	; 0x6df4 <WritePin>
     ce8:	80 91 02 04 	lds	r24, 0x0402	; 0x800402 <bdmresp>
     cec:	90 91 03 04 	lds	r25, 0x0403	; 0x800403 <bdmresp+0x1>
     cf0:	88 0f       	add	r24, r24
     cf2:	99 1f       	adc	r25, r25
     cf4:	90 93 03 04 	sts	0x0403, r25	; 0x800403 <bdmresp+0x1>
     cf8:	80 93 02 04 	sts	0x0402, r24	; 0x800402 <bdmresp>
     cfc:	60 e0       	ldi	r22, 0x00	; 0
     cfe:	83 e0       	ldi	r24, 0x03	; 3
     d00:	0e 94 d7 36 	call	0x6dae	; 0x6dae <ReadPin>
     d04:	20 91 02 04 	lds	r18, 0x0402	; 0x800402 <bdmresp>
     d08:	30 91 03 04 	lds	r19, 0x0403	; 0x800403 <bdmresp+0x1>
     d0c:	28 2b       	or	r18, r24
     d0e:	30 93 03 04 	sts	0x0403, r19	; 0x800403 <bdmresp+0x1>
     d12:	20 93 02 04 	sts	0x0402, r18	; 0x800402 <bdmresp>
     d16:	41 e0       	ldi	r20, 0x01	; 1
     d18:	64 e0       	ldi	r22, 0x04	; 4
     d1a:	83 e0       	ldi	r24, 0x03	; 3
     d1c:	0e 94 fa 36 	call	0x6df4	; 0x6df4 <WritePin>
     d20:	d1 11       	cpse	r29, r1
     d22:	cb cf       	rjmp	.-106    	; 0xcba <Exec_WriteCMD_s+0x218>
     d24:	10 92 06 04 	sts	0x0406, r1	; 0x800406 <Attn>
     d28:	c0 e1       	ldi	r28, 0x10	; 16
     d2a:	40 e0       	ldi	r20, 0x00	; 0
     d2c:	64 e0       	ldi	r22, 0x04	; 4
     d2e:	83 e0       	ldi	r24, 0x03	; 3
     d30:	0e 94 fa 36 	call	0x6df4	; 0x6df4 <WritePin>
     d34:	40 e0       	ldi	r20, 0x00	; 0
     d36:	61 e0       	ldi	r22, 0x01	; 1
     d38:	83 e0       	ldi	r24, 0x03	; 3
     d3a:	c0 31       	cpi	r28, 0x10	; 16
     d3c:	09 f0       	breq	.+2      	; 0xd40 <Exec_WriteCMD_s+0x29e>
     d3e:	5b c0       	rjmp	.+182    	; 0xdf6 <Exec_WriteCMD_s+0x354>
     d40:	0e 94 fa 36 	call	0x6df4	; 0x6df4 <WritePin>
     d44:	60 e0       	ldi	r22, 0x00	; 0
     d46:	83 e0       	ldi	r24, 0x03	; 3
     d48:	0e 94 d7 36 	call	0x6dae	; 0x6dae <ReadPin>
     d4c:	80 93 06 04 	sts	0x0406, r24	; 0x800406 <Attn>
     d50:	41 e0       	ldi	r20, 0x01	; 1
     d52:	64 e0       	ldi	r22, 0x04	; 4
     d54:	83 e0       	ldi	r24, 0x03	; 3
     d56:	0e 94 fa 36 	call	0x6df4	; 0x6df4 <WritePin>
     d5a:	c1 50       	subi	r28, 0x01	; 1
     d5c:	e6 cf       	rjmp	.-52     	; 0xd2a <Exec_WriteCMD_s+0x288>
     d5e:	10 92 06 04 	sts	0x0406, r1	; 0x800406 <Attn>
     d62:	d0 e1       	ldi	r29, 0x10	; 16
     d64:	c1 e1       	ldi	r28, 0x11	; 17
     d66:	12 c0       	rjmp	.+36     	; 0xd8c <Exec_WriteCMD_s+0x2ea>
     d68:	40 e0       	ldi	r20, 0x00	; 0
     d6a:	61 e0       	ldi	r22, 0x01	; 1
     d6c:	83 e0       	ldi	r24, 0x03	; 3
     d6e:	0e 94 fa 36 	call	0x6df4	; 0x6df4 <WritePin>
     d72:	60 e0       	ldi	r22, 0x00	; 0
     d74:	83 e0       	ldi	r24, 0x03	; 3
     d76:	0e 94 d7 36 	call	0x6dae	; 0x6dae <ReadPin>
     d7a:	80 93 06 04 	sts	0x0406, r24	; 0x800406 <Attn>
     d7e:	41 e0       	ldi	r20, 0x01	; 1
     d80:	64 e0       	ldi	r22, 0x04	; 4
     d82:	83 e0       	ldi	r24, 0x03	; 3
     d84:	0e 94 fa 36 	call	0x6df4	; 0x6df4 <WritePin>
     d88:	c1 50       	subi	r28, 0x01	; 1
     d8a:	d1 50       	subi	r29, 0x01	; 1
     d8c:	40 e0       	ldi	r20, 0x00	; 0
     d8e:	64 e0       	ldi	r22, 0x04	; 4
     d90:	83 e0       	ldi	r24, 0x03	; 3
     d92:	0e 94 fa 36 	call	0x6df4	; 0x6df4 <WritePin>
     d96:	c1 31       	cpi	r28, 0x11	; 17
     d98:	39 f3       	breq	.-50     	; 0xd68 <Exec_WriteCMD_s+0x2c6>
     d9a:	8f ef       	ldi	r24, 0xFF	; 255
     d9c:	8c 0f       	add	r24, r28
     d9e:	95 01       	movw	r18, r10
     da0:	02 c0       	rjmp	.+4      	; 0xda6 <Exec_WriteCMD_s+0x304>
     da2:	36 95       	lsr	r19
     da4:	27 95       	ror	r18
     da6:	8a 95       	dec	r24
     da8:	e2 f7       	brpl	.-8      	; 0xda2 <Exec_WriteCMD_s+0x300>
     daa:	42 2f       	mov	r20, r18
     dac:	41 70       	andi	r20, 0x01	; 1
     dae:	61 e0       	ldi	r22, 0x01	; 1
     db0:	83 e0       	ldi	r24, 0x03	; 3
     db2:	0e 94 fa 36 	call	0x6df4	; 0x6df4 <WritePin>
     db6:	80 91 02 04 	lds	r24, 0x0402	; 0x800402 <bdmresp>
     dba:	90 91 03 04 	lds	r25, 0x0403	; 0x800403 <bdmresp+0x1>
     dbe:	88 0f       	add	r24, r24
     dc0:	99 1f       	adc	r25, r25
     dc2:	90 93 03 04 	sts	0x0403, r25	; 0x800403 <bdmresp+0x1>
     dc6:	80 93 02 04 	sts	0x0402, r24	; 0x800402 <bdmresp>
     dca:	60 e0       	ldi	r22, 0x00	; 0
     dcc:	83 e0       	ldi	r24, 0x03	; 3
     dce:	0e 94 d7 36 	call	0x6dae	; 0x6dae <ReadPin>
     dd2:	20 91 02 04 	lds	r18, 0x0402	; 0x800402 <bdmresp>
     dd6:	30 91 03 04 	lds	r19, 0x0403	; 0x800403 <bdmresp+0x1>
     dda:	28 2b       	or	r18, r24
     ddc:	30 93 03 04 	sts	0x0403, r19	; 0x800403 <bdmresp+0x1>
     de0:	20 93 02 04 	sts	0x0402, r18	; 0x800402 <bdmresp>
     de4:	41 e0       	ldi	r20, 0x01	; 1
     de6:	64 e0       	ldi	r22, 0x04	; 4
     de8:	83 e0       	ldi	r24, 0x03	; 3
     dea:	0e 94 fa 36 	call	0x6df4	; 0x6df4 <WritePin>
     dee:	dd 23       	and	r29, r29
     df0:	09 f4       	brne	.+2      	; 0xdf4 <Exec_WriteCMD_s+0x352>
     df2:	4e cf       	rjmp	.-356    	; 0xc90 <Exec_WriteCMD_s+0x1ee>
     df4:	c9 cf       	rjmp	.-110    	; 0xd88 <Exec_WriteCMD_s+0x2e6>
     df6:	0e 94 fa 36 	call	0x6df4	; 0x6df4 <WritePin>
     dfa:	80 91 02 04 	lds	r24, 0x0402	; 0x800402 <bdmresp>
     dfe:	90 91 03 04 	lds	r25, 0x0403	; 0x800403 <bdmresp+0x1>
     e02:	88 0f       	add	r24, r24
     e04:	99 1f       	adc	r25, r25
     e06:	90 93 03 04 	sts	0x0403, r25	; 0x800403 <bdmresp+0x1>
     e0a:	80 93 02 04 	sts	0x0402, r24	; 0x800402 <bdmresp>
     e0e:	60 e0       	ldi	r22, 0x00	; 0
     e10:	83 e0       	ldi	r24, 0x03	; 3
     e12:	0e 94 d7 36 	call	0x6dae	; 0x6dae <ReadPin>
     e16:	20 91 02 04 	lds	r18, 0x0402	; 0x800402 <bdmresp>
     e1a:	30 91 03 04 	lds	r19, 0x0403	; 0x800403 <bdmresp+0x1>
     e1e:	28 2b       	or	r18, r24
     e20:	30 93 03 04 	sts	0x0403, r19	; 0x800403 <bdmresp+0x1>
     e24:	20 93 02 04 	sts	0x0402, r18	; 0x800402 <bdmresp>
     e28:	41 e0       	ldi	r20, 0x01	; 1
     e2a:	64 e0       	ldi	r22, 0x04	; 4
     e2c:	83 e0       	ldi	r24, 0x03	; 3
     e2e:	0e 94 fa 36 	call	0x6df4	; 0x6df4 <WritePin>
     e32:	c1 11       	cpse	r28, r1
     e34:	92 cf       	rjmp	.-220    	; 0xd5a <Exec_WriteCMD_s+0x2b8>
     e36:	80 91 06 04 	lds	r24, 0x0406	; 0x800406 <Attn>
     e3a:	81 11       	cpse	r24, r1
     e3c:	73 cf       	rjmp	.-282    	; 0xd24 <Exec_WriteCMD_s+0x282>
     e3e:	df 91       	pop	r29
     e40:	cf 91       	pop	r28
     e42:	1f 91       	pop	r17
     e44:	0f 91       	pop	r16
     e46:	ff 90       	pop	r15
     e48:	ef 90       	pop	r14
     e4a:	df 90       	pop	r13
     e4c:	cf 90       	pop	r12
     e4e:	bf 90       	pop	r11
     e50:	af 90       	pop	r10
     e52:	9f 90       	pop	r9
     e54:	8f 90       	pop	r8
     e56:	08 95       	ret

00000e58 <Exec_ReadCMD_s>:
     e58:	cf 92       	push	r12
     e5a:	df 92       	push	r13
     e5c:	ef 92       	push	r14
     e5e:	ff 92       	push	r15
     e60:	0f 93       	push	r16
     e62:	1f 93       	push	r17
     e64:	cf 93       	push	r28
     e66:	df 93       	push	r29
     e68:	6c 01       	movw	r12, r24
     e6a:	7b 01       	movw	r14, r22
     e6c:	8a 01       	movw	r16, r20
     e6e:	10 92 06 04 	sts	0x0406, r1	; 0x800406 <Attn>
     e72:	d0 e1       	ldi	r29, 0x10	; 16
     e74:	c1 e1       	ldi	r28, 0x11	; 17
     e76:	12 c0       	rjmp	.+36     	; 0xe9c <Exec_ReadCMD_s+0x44>
     e78:	40 e0       	ldi	r20, 0x00	; 0
     e7a:	61 e0       	ldi	r22, 0x01	; 1
     e7c:	83 e0       	ldi	r24, 0x03	; 3
     e7e:	0e 94 fa 36 	call	0x6df4	; 0x6df4 <WritePin>
     e82:	60 e0       	ldi	r22, 0x00	; 0
     e84:	83 e0       	ldi	r24, 0x03	; 3
     e86:	0e 94 d7 36 	call	0x6dae	; 0x6dae <ReadPin>
     e8a:	80 93 06 04 	sts	0x0406, r24	; 0x800406 <Attn>
     e8e:	41 e0       	ldi	r20, 0x01	; 1
     e90:	64 e0       	ldi	r22, 0x04	; 4
     e92:	83 e0       	ldi	r24, 0x03	; 3
     e94:	0e 94 fa 36 	call	0x6df4	; 0x6df4 <WritePin>
     e98:	c1 50       	subi	r28, 0x01	; 1
     e9a:	d1 50       	subi	r29, 0x01	; 1
     e9c:	40 e0       	ldi	r20, 0x00	; 0
     e9e:	64 e0       	ldi	r22, 0x04	; 4
     ea0:	83 e0       	ldi	r24, 0x03	; 3
     ea2:	0e 94 fa 36 	call	0x6df4	; 0x6df4 <WritePin>
     ea6:	c1 31       	cpi	r28, 0x11	; 17
     ea8:	39 f3       	breq	.-50     	; 0xe78 <Exec_ReadCMD_s+0x20>
     eaa:	8f ef       	ldi	r24, 0xFF	; 255
     eac:	8c 0f       	add	r24, r28
     eae:	98 01       	movw	r18, r16
     eb0:	02 c0       	rjmp	.+4      	; 0xeb6 <Exec_ReadCMD_s+0x5e>
     eb2:	36 95       	lsr	r19
     eb4:	27 95       	ror	r18
     eb6:	8a 95       	dec	r24
     eb8:	e2 f7       	brpl	.-8      	; 0xeb2 <Exec_ReadCMD_s+0x5a>
     eba:	42 2f       	mov	r20, r18
     ebc:	41 70       	andi	r20, 0x01	; 1
     ebe:	61 e0       	ldi	r22, 0x01	; 1
     ec0:	83 e0       	ldi	r24, 0x03	; 3
     ec2:	0e 94 fa 36 	call	0x6df4	; 0x6df4 <WritePin>
     ec6:	80 91 02 04 	lds	r24, 0x0402	; 0x800402 <bdmresp>
     eca:	90 91 03 04 	lds	r25, 0x0403	; 0x800403 <bdmresp+0x1>
     ece:	88 0f       	add	r24, r24
     ed0:	99 1f       	adc	r25, r25
     ed2:	90 93 03 04 	sts	0x0403, r25	; 0x800403 <bdmresp+0x1>
     ed6:	80 93 02 04 	sts	0x0402, r24	; 0x800402 <bdmresp>
     eda:	60 e0       	ldi	r22, 0x00	; 0
     edc:	83 e0       	ldi	r24, 0x03	; 3
     ede:	0e 94 d7 36 	call	0x6dae	; 0x6dae <ReadPin>
     ee2:	20 91 02 04 	lds	r18, 0x0402	; 0x800402 <bdmresp>
     ee6:	30 91 03 04 	lds	r19, 0x0403	; 0x800403 <bdmresp+0x1>
     eea:	28 2b       	or	r18, r24
     eec:	30 93 03 04 	sts	0x0403, r19	; 0x800403 <bdmresp+0x1>
     ef0:	20 93 02 04 	sts	0x0402, r18	; 0x800402 <bdmresp>
     ef4:	41 e0       	ldi	r20, 0x01	; 1
     ef6:	64 e0       	ldi	r22, 0x04	; 4
     ef8:	83 e0       	ldi	r24, 0x03	; 3
     efa:	0e 94 fa 36 	call	0x6df4	; 0x6df4 <WritePin>
     efe:	d1 11       	cpse	r29, r1
     f00:	cb cf       	rjmp	.-106    	; 0xe98 <Exec_ReadCMD_s+0x40>
     f02:	c1 14       	cp	r12, r1
     f04:	d1 04       	cpc	r13, r1
     f06:	21 f4       	brne	.+8      	; 0xf10 <Exec_ReadCMD_s+0xb8>
     f08:	e1 14       	cp	r14, r1
     f0a:	f1 04       	cpc	r15, r1
     f0c:	09 f4       	brne	.+2      	; 0xf10 <Exec_ReadCMD_s+0xb8>
     f0e:	94 c0       	rjmp	.+296    	; 0x1038 <Exec_ReadCMD_s+0x1e0>
     f10:	10 92 06 04 	sts	0x0406, r1	; 0x800406 <Attn>
     f14:	d0 e1       	ldi	r29, 0x10	; 16
     f16:	c1 e1       	ldi	r28, 0x11	; 17
     f18:	12 c0       	rjmp	.+36     	; 0xf3e <Exec_ReadCMD_s+0xe6>
     f1a:	40 e0       	ldi	r20, 0x00	; 0
     f1c:	61 e0       	ldi	r22, 0x01	; 1
     f1e:	83 e0       	ldi	r24, 0x03	; 3
     f20:	0e 94 fa 36 	call	0x6df4	; 0x6df4 <WritePin>
     f24:	60 e0       	ldi	r22, 0x00	; 0
     f26:	83 e0       	ldi	r24, 0x03	; 3
     f28:	0e 94 d7 36 	call	0x6dae	; 0x6dae <ReadPin>
     f2c:	80 93 06 04 	sts	0x0406, r24	; 0x800406 <Attn>
     f30:	41 e0       	ldi	r20, 0x01	; 1
     f32:	64 e0       	ldi	r22, 0x04	; 4
     f34:	83 e0       	ldi	r24, 0x03	; 3
     f36:	0e 94 fa 36 	call	0x6df4	; 0x6df4 <WritePin>
     f3a:	c1 50       	subi	r28, 0x01	; 1
     f3c:	d1 50       	subi	r29, 0x01	; 1
     f3e:	40 e0       	ldi	r20, 0x00	; 0
     f40:	64 e0       	ldi	r22, 0x04	; 4
     f42:	83 e0       	ldi	r24, 0x03	; 3
     f44:	0e 94 fa 36 	call	0x6df4	; 0x6df4 <WritePin>
     f48:	c1 31       	cpi	r28, 0x11	; 17
     f4a:	39 f3       	breq	.-50     	; 0xf1a <Exec_ReadCMD_s+0xc2>
     f4c:	8f ef       	ldi	r24, 0xFF	; 255
     f4e:	8c 0f       	add	r24, r28
     f50:	96 01       	movw	r18, r12
     f52:	02 c0       	rjmp	.+4      	; 0xf58 <Exec_ReadCMD_s+0x100>
     f54:	36 95       	lsr	r19
     f56:	27 95       	ror	r18
     f58:	8a 95       	dec	r24
     f5a:	e2 f7       	brpl	.-8      	; 0xf54 <Exec_ReadCMD_s+0xfc>
     f5c:	42 2f       	mov	r20, r18
     f5e:	41 70       	andi	r20, 0x01	; 1
     f60:	61 e0       	ldi	r22, 0x01	; 1
     f62:	83 e0       	ldi	r24, 0x03	; 3
     f64:	0e 94 fa 36 	call	0x6df4	; 0x6df4 <WritePin>
     f68:	80 91 02 04 	lds	r24, 0x0402	; 0x800402 <bdmresp>
     f6c:	90 91 03 04 	lds	r25, 0x0403	; 0x800403 <bdmresp+0x1>
     f70:	88 0f       	add	r24, r24
     f72:	99 1f       	adc	r25, r25
     f74:	90 93 03 04 	sts	0x0403, r25	; 0x800403 <bdmresp+0x1>
     f78:	80 93 02 04 	sts	0x0402, r24	; 0x800402 <bdmresp>
     f7c:	60 e0       	ldi	r22, 0x00	; 0
     f7e:	83 e0       	ldi	r24, 0x03	; 3
     f80:	0e 94 d7 36 	call	0x6dae	; 0x6dae <ReadPin>
     f84:	20 91 02 04 	lds	r18, 0x0402	; 0x800402 <bdmresp>
     f88:	30 91 03 04 	lds	r19, 0x0403	; 0x800403 <bdmresp+0x1>
     f8c:	28 2b       	or	r18, r24
     f8e:	30 93 03 04 	sts	0x0403, r19	; 0x800403 <bdmresp+0x1>
     f92:	20 93 02 04 	sts	0x0402, r18	; 0x800402 <bdmresp>
     f96:	41 e0       	ldi	r20, 0x01	; 1
     f98:	64 e0       	ldi	r22, 0x04	; 4
     f9a:	83 e0       	ldi	r24, 0x03	; 3
     f9c:	0e 94 fa 36 	call	0x6df4	; 0x6df4 <WritePin>
     fa0:	d1 11       	cpse	r29, r1
     fa2:	cb cf       	rjmp	.-106    	; 0xf3a <Exec_ReadCMD_s+0xe2>
     fa4:	10 92 06 04 	sts	0x0406, r1	; 0x800406 <Attn>
     fa8:	d0 e1       	ldi	r29, 0x10	; 16
     faa:	c1 e1       	ldi	r28, 0x11	; 17
     fac:	12 c0       	rjmp	.+36     	; 0xfd2 <Exec_ReadCMD_s+0x17a>
     fae:	40 e0       	ldi	r20, 0x00	; 0
     fb0:	61 e0       	ldi	r22, 0x01	; 1
     fb2:	83 e0       	ldi	r24, 0x03	; 3
     fb4:	0e 94 fa 36 	call	0x6df4	; 0x6df4 <WritePin>
     fb8:	60 e0       	ldi	r22, 0x00	; 0
     fba:	83 e0       	ldi	r24, 0x03	; 3
     fbc:	0e 94 d7 36 	call	0x6dae	; 0x6dae <ReadPin>
     fc0:	80 93 06 04 	sts	0x0406, r24	; 0x800406 <Attn>
     fc4:	41 e0       	ldi	r20, 0x01	; 1
     fc6:	64 e0       	ldi	r22, 0x04	; 4
     fc8:	83 e0       	ldi	r24, 0x03	; 3
     fca:	0e 94 fa 36 	call	0x6df4	; 0x6df4 <WritePin>
     fce:	c1 50       	subi	r28, 0x01	; 1
     fd0:	d1 50       	subi	r29, 0x01	; 1
     fd2:	40 e0       	ldi	r20, 0x00	; 0
     fd4:	64 e0       	ldi	r22, 0x04	; 4
     fd6:	83 e0       	ldi	r24, 0x03	; 3
     fd8:	0e 94 fa 36 	call	0x6df4	; 0x6df4 <WritePin>
     fdc:	c1 31       	cpi	r28, 0x11	; 17
     fde:	39 f3       	breq	.-50     	; 0xfae <Exec_ReadCMD_s+0x156>
     fe0:	8f ef       	ldi	r24, 0xFF	; 255
     fe2:	8c 0f       	add	r24, r28
     fe4:	97 01       	movw	r18, r14
     fe6:	02 c0       	rjmp	.+4      	; 0xfec <Exec_ReadCMD_s+0x194>
     fe8:	36 95       	lsr	r19
     fea:	27 95       	ror	r18
     fec:	8a 95       	dec	r24
     fee:	e2 f7       	brpl	.-8      	; 0xfe8 <Exec_ReadCMD_s+0x190>
     ff0:	42 2f       	mov	r20, r18
     ff2:	41 70       	andi	r20, 0x01	; 1
     ff4:	61 e0       	ldi	r22, 0x01	; 1
     ff6:	83 e0       	ldi	r24, 0x03	; 3
     ff8:	0e 94 fa 36 	call	0x6df4	; 0x6df4 <WritePin>
     ffc:	80 91 02 04 	lds	r24, 0x0402	; 0x800402 <bdmresp>
    1000:	90 91 03 04 	lds	r25, 0x0403	; 0x800403 <bdmresp+0x1>
    1004:	88 0f       	add	r24, r24
    1006:	99 1f       	adc	r25, r25
    1008:	90 93 03 04 	sts	0x0403, r25	; 0x800403 <bdmresp+0x1>
    100c:	80 93 02 04 	sts	0x0402, r24	; 0x800402 <bdmresp>
    1010:	60 e0       	ldi	r22, 0x00	; 0
    1012:	83 e0       	ldi	r24, 0x03	; 3
    1014:	0e 94 d7 36 	call	0x6dae	; 0x6dae <ReadPin>
    1018:	20 91 02 04 	lds	r18, 0x0402	; 0x800402 <bdmresp>
    101c:	30 91 03 04 	lds	r19, 0x0403	; 0x800403 <bdmresp+0x1>
    1020:	28 2b       	or	r18, r24
    1022:	30 93 03 04 	sts	0x0403, r19	; 0x800403 <bdmresp+0x1>
    1026:	20 93 02 04 	sts	0x0402, r18	; 0x800402 <bdmresp>
    102a:	41 e0       	ldi	r20, 0x01	; 1
    102c:	64 e0       	ldi	r22, 0x04	; 4
    102e:	83 e0       	ldi	r24, 0x03	; 3
    1030:	0e 94 fa 36 	call	0x6df4	; 0x6df4 <WritePin>
    1034:	d1 11       	cpse	r29, r1
    1036:	cb cf       	rjmp	.-106    	; 0xfce <Exec_ReadCMD_s+0x176>
    1038:	07 ff       	sbrs	r16, 7
    103a:	48 c0       	rjmp	.+144    	; 0x10cc <Exec_ReadCMD_s+0x274>
    103c:	10 92 06 04 	sts	0x0406, r1	; 0x800406 <Attn>
    1040:	c0 e1       	ldi	r28, 0x10	; 16
    1042:	40 e0       	ldi	r20, 0x00	; 0
    1044:	64 e0       	ldi	r22, 0x04	; 4
    1046:	83 e0       	ldi	r24, 0x03	; 3
    1048:	0e 94 fa 36 	call	0x6df4	; 0x6df4 <WritePin>
    104c:	40 e0       	ldi	r20, 0x00	; 0
    104e:	61 e0       	ldi	r22, 0x01	; 1
    1050:	83 e0       	ldi	r24, 0x03	; 3
    1052:	c0 31       	cpi	r28, 0x10	; 16
    1054:	79 f4       	brne	.+30     	; 0x1074 <Exec_ReadCMD_s+0x21c>
    1056:	0e 94 fa 36 	call	0x6df4	; 0x6df4 <WritePin>
    105a:	60 e0       	ldi	r22, 0x00	; 0
    105c:	83 e0       	ldi	r24, 0x03	; 3
    105e:	0e 94 d7 36 	call	0x6dae	; 0x6dae <ReadPin>
    1062:	80 93 06 04 	sts	0x0406, r24	; 0x800406 <Attn>
    1066:	41 e0       	ldi	r20, 0x01	; 1
    1068:	64 e0       	ldi	r22, 0x04	; 4
    106a:	83 e0       	ldi	r24, 0x03	; 3
    106c:	0e 94 fa 36 	call	0x6df4	; 0x6df4 <WritePin>
    1070:	c1 50       	subi	r28, 0x01	; 1
    1072:	e7 cf       	rjmp	.-50     	; 0x1042 <Exec_ReadCMD_s+0x1ea>
    1074:	0e 94 fa 36 	call	0x6df4	; 0x6df4 <WritePin>
    1078:	80 91 02 04 	lds	r24, 0x0402	; 0x800402 <bdmresp>
    107c:	90 91 03 04 	lds	r25, 0x0403	; 0x800403 <bdmresp+0x1>
    1080:	88 0f       	add	r24, r24
    1082:	99 1f       	adc	r25, r25
    1084:	90 93 03 04 	sts	0x0403, r25	; 0x800403 <bdmresp+0x1>
    1088:	80 93 02 04 	sts	0x0402, r24	; 0x800402 <bdmresp>
    108c:	60 e0       	ldi	r22, 0x00	; 0
    108e:	83 e0       	ldi	r24, 0x03	; 3
    1090:	0e 94 d7 36 	call	0x6dae	; 0x6dae <ReadPin>
    1094:	20 91 02 04 	lds	r18, 0x0402	; 0x800402 <bdmresp>
    1098:	30 91 03 04 	lds	r19, 0x0403	; 0x800403 <bdmresp+0x1>
    109c:	28 2b       	or	r18, r24
    109e:	30 93 03 04 	sts	0x0403, r19	; 0x800403 <bdmresp+0x1>
    10a2:	20 93 02 04 	sts	0x0402, r18	; 0x800402 <bdmresp>
    10a6:	41 e0       	ldi	r20, 0x01	; 1
    10a8:	64 e0       	ldi	r22, 0x04	; 4
    10aa:	83 e0       	ldi	r24, 0x03	; 3
    10ac:	0e 94 fa 36 	call	0x6df4	; 0x6df4 <WritePin>
    10b0:	c1 11       	cpse	r28, r1
    10b2:	de cf       	rjmp	.-68     	; 0x1070 <Exec_ReadCMD_s+0x218>
    10b4:	80 91 06 04 	lds	r24, 0x0406	; 0x800406 <Attn>
    10b8:	81 11       	cpse	r24, r1
    10ba:	c0 cf       	rjmp	.-128    	; 0x103c <Exec_ReadCMD_s+0x1e4>
    10bc:	80 91 02 04 	lds	r24, 0x0402	; 0x800402 <bdmresp>
    10c0:	90 91 03 04 	lds	r25, 0x0403	; 0x800403 <bdmresp+0x1>
    10c4:	90 93 05 04 	sts	0x0405, r25	; 0x800405 <bdmresp32+0x1>
    10c8:	80 93 04 04 	sts	0x0404, r24	; 0x800404 <bdmresp32>
    10cc:	10 92 06 04 	sts	0x0406, r1	; 0x800406 <Attn>
    10d0:	c0 e1       	ldi	r28, 0x10	; 16
    10d2:	40 e0       	ldi	r20, 0x00	; 0
    10d4:	64 e0       	ldi	r22, 0x04	; 4
    10d6:	83 e0       	ldi	r24, 0x03	; 3
    10d8:	0e 94 fa 36 	call	0x6df4	; 0x6df4 <WritePin>
    10dc:	40 e0       	ldi	r20, 0x00	; 0
    10de:	61 e0       	ldi	r22, 0x01	; 1
    10e0:	83 e0       	ldi	r24, 0x03	; 3
    10e2:	c0 31       	cpi	r28, 0x10	; 16
    10e4:	79 f4       	brne	.+30     	; 0x1104 <Exec_ReadCMD_s+0x2ac>
    10e6:	0e 94 fa 36 	call	0x6df4	; 0x6df4 <WritePin>
    10ea:	60 e0       	ldi	r22, 0x00	; 0
    10ec:	83 e0       	ldi	r24, 0x03	; 3
    10ee:	0e 94 d7 36 	call	0x6dae	; 0x6dae <ReadPin>
    10f2:	80 93 06 04 	sts	0x0406, r24	; 0x800406 <Attn>
    10f6:	41 e0       	ldi	r20, 0x01	; 1
    10f8:	64 e0       	ldi	r22, 0x04	; 4
    10fa:	83 e0       	ldi	r24, 0x03	; 3
    10fc:	0e 94 fa 36 	call	0x6df4	; 0x6df4 <WritePin>
    1100:	c1 50       	subi	r28, 0x01	; 1
    1102:	e7 cf       	rjmp	.-50     	; 0x10d2 <Exec_ReadCMD_s+0x27a>
    1104:	0e 94 fa 36 	call	0x6df4	; 0x6df4 <WritePin>
    1108:	80 91 02 04 	lds	r24, 0x0402	; 0x800402 <bdmresp>
    110c:	90 91 03 04 	lds	r25, 0x0403	; 0x800403 <bdmresp+0x1>
    1110:	88 0f       	add	r24, r24
    1112:	99 1f       	adc	r25, r25
    1114:	90 93 03 04 	sts	0x0403, r25	; 0x800403 <bdmresp+0x1>
    1118:	80 93 02 04 	sts	0x0402, r24	; 0x800402 <bdmresp>
    111c:	60 e0       	ldi	r22, 0x00	; 0
    111e:	83 e0       	ldi	r24, 0x03	; 3
    1120:	0e 94 d7 36 	call	0x6dae	; 0x6dae <ReadPin>
    1124:	20 91 02 04 	lds	r18, 0x0402	; 0x800402 <bdmresp>
    1128:	30 91 03 04 	lds	r19, 0x0403	; 0x800403 <bdmresp+0x1>
    112c:	28 2b       	or	r18, r24
    112e:	30 93 03 04 	sts	0x0403, r19	; 0x800403 <bdmresp+0x1>
    1132:	20 93 02 04 	sts	0x0402, r18	; 0x800402 <bdmresp>
    1136:	41 e0       	ldi	r20, 0x01	; 1
    1138:	64 e0       	ldi	r22, 0x04	; 4
    113a:	83 e0       	ldi	r24, 0x03	; 3
    113c:	0e 94 fa 36 	call	0x6df4	; 0x6df4 <WritePin>
    1140:	c1 11       	cpse	r28, r1
    1142:	de cf       	rjmp	.-68     	; 0x1100 <Exec_ReadCMD_s+0x2a8>
    1144:	80 91 06 04 	lds	r24, 0x0406	; 0x800406 <Attn>
    1148:	81 11       	cpse	r24, r1
    114a:	c0 cf       	rjmp	.-128    	; 0x10cc <Exec_ReadCMD_s+0x274>
    114c:	80 91 02 04 	lds	r24, 0x0402	; 0x800402 <bdmresp>
    1150:	90 91 03 04 	lds	r25, 0x0403	; 0x800403 <bdmresp+0x1>
    1154:	90 93 2d 06 	sts	0x062D, r25	; 0x80062d <bdmresp16+0x1>
    1158:	80 93 2c 06 	sts	0x062C, r24	; 0x80062c <bdmresp16>
    115c:	df 91       	pop	r29
    115e:	cf 91       	pop	r28
    1160:	1f 91       	pop	r17
    1162:	0f 91       	pop	r16
    1164:	ff 90       	pop	r15
    1166:	ef 90       	pop	r14
    1168:	df 90       	pop	r13
    116a:	cf 90       	pop	r12
    116c:	08 95       	ret

0000116e <ShiftData>:
    116e:	2b b1       	in	r18, 0x0b	; 11
    1170:	2d 7e       	andi	r18, 0xED	; 237
    1172:	2b b9       	out	0x0b, r18	; 11
    1174:	00 00       	nop
    1176:	29 b1       	in	r18, 0x09	; 9
    1178:	21 70       	andi	r18, 0x01	; 1
    117a:	20 93 06 04 	sts	0x0406, r18	; 0x800406 <Attn>
    117e:	23 ec       	ldi	r18, 0xC3	; 195
    1180:	20 93 c2 00 	sts	0x00C2, r18	; 0x8000c2 <__TEXT_REGION_LENGTH__+0x7e00c2>
    1184:	28 e1       	ldi	r18, 0x18	; 24
    1186:	20 93 c1 00 	sts	0x00C1, r18	; 0x8000c1 <__TEXT_REGION_LENGTH__+0x7e00c1>
    118a:	90 93 c6 00 	sts	0x00C6, r25	; 0x8000c6 <__TEXT_REGION_LENGTH__+0x7e00c6>
    118e:	90 91 c0 00 	lds	r25, 0x00C0	; 0x8000c0 <__TEXT_REGION_LENGTH__+0x7e00c0>
    1192:	97 ff       	sbrs	r25, 7
    1194:	fc cf       	rjmp	.-8      	; 0x118e <ShiftData+0x20>
    1196:	90 91 c6 00 	lds	r25, 0x00C6	; 0x8000c6 <__TEXT_REGION_LENGTH__+0x7e00c6>
    119a:	10 92 02 04 	sts	0x0402, r1	; 0x800402 <bdmresp>
    119e:	90 93 03 04 	sts	0x0403, r25	; 0x800403 <bdmresp+0x1>
    11a2:	80 93 c6 00 	sts	0x00C6, r24	; 0x8000c6 <__TEXT_REGION_LENGTH__+0x7e00c6>
    11a6:	80 91 c0 00 	lds	r24, 0x00C0	; 0x8000c0 <__TEXT_REGION_LENGTH__+0x7e00c0>
    11aa:	87 ff       	sbrs	r24, 7
    11ac:	fc cf       	rjmp	.-8      	; 0x11a6 <ShiftData+0x38>
    11ae:	20 91 c6 00 	lds	r18, 0x00C6	; 0x8000c6 <__TEXT_REGION_LENGTH__+0x7e00c6>
    11b2:	80 91 02 04 	lds	r24, 0x0402	; 0x800402 <bdmresp>
    11b6:	90 91 03 04 	lds	r25, 0x0403	; 0x800403 <bdmresp+0x1>
    11ba:	82 0f       	add	r24, r18
    11bc:	91 1d       	adc	r25, r1
    11be:	90 93 03 04 	sts	0x0403, r25	; 0x800403 <bdmresp+0x1>
    11c2:	80 93 02 04 	sts	0x0402, r24	; 0x800402 <bdmresp>
    11c6:	10 92 c1 00 	sts	0x00C1, r1	; 0x8000c1 <__TEXT_REGION_LENGTH__+0x7e00c1>
    11ca:	10 92 c2 00 	sts	0x00C2, r1	; 0x8000c2 <__TEXT_REGION_LENGTH__+0x7e00c2>
    11ce:	08 95       	ret

000011d0 <Exec_ReadCMD_workaround>:
    11d0:	2b b1       	in	r18, 0x0b	; 11
    11d2:	2d 7e       	andi	r18, 0xED	; 237
    11d4:	2b b9       	out	0x0b, r18	; 11
    11d6:	00 00       	nop
    11d8:	29 b1       	in	r18, 0x09	; 9
    11da:	21 70       	andi	r18, 0x01	; 1
    11dc:	20 93 06 04 	sts	0x0406, r18	; 0x800406 <Attn>
    11e0:	23 ec       	ldi	r18, 0xC3	; 195
    11e2:	20 93 c2 00 	sts	0x00C2, r18	; 0x8000c2 <__TEXT_REGION_LENGTH__+0x7e00c2>
    11e6:	28 e1       	ldi	r18, 0x18	; 24
    11e8:	20 93 c1 00 	sts	0x00C1, r18	; 0x8000c1 <__TEXT_REGION_LENGTH__+0x7e00c1>
    11ec:	50 93 c6 00 	sts	0x00C6, r21	; 0x8000c6 <__TEXT_REGION_LENGTH__+0x7e00c6>
    11f0:	20 91 c0 00 	lds	r18, 0x00C0	; 0x8000c0 <__TEXT_REGION_LENGTH__+0x7e00c0>
    11f4:	27 ff       	sbrs	r18, 7
    11f6:	fc cf       	rjmp	.-8      	; 0x11f0 <Exec_ReadCMD_workaround+0x20>
    11f8:	20 91 c6 00 	lds	r18, 0x00C6	; 0x8000c6 <__TEXT_REGION_LENGTH__+0x7e00c6>
    11fc:	10 92 02 04 	sts	0x0402, r1	; 0x800402 <bdmresp>
    1200:	20 93 03 04 	sts	0x0403, r18	; 0x800403 <bdmresp+0x1>
    1204:	40 93 c6 00 	sts	0x00C6, r20	; 0x8000c6 <__TEXT_REGION_LENGTH__+0x7e00c6>
    1208:	20 91 c0 00 	lds	r18, 0x00C0	; 0x8000c0 <__TEXT_REGION_LENGTH__+0x7e00c0>
    120c:	27 ff       	sbrs	r18, 7
    120e:	fc cf       	rjmp	.-8      	; 0x1208 <Exec_ReadCMD_workaround+0x38>
    1210:	50 91 c6 00 	lds	r21, 0x00C6	; 0x8000c6 <__TEXT_REGION_LENGTH__+0x7e00c6>
    1214:	20 91 02 04 	lds	r18, 0x0402	; 0x800402 <bdmresp>
    1218:	30 91 03 04 	lds	r19, 0x0403	; 0x800403 <bdmresp+0x1>
    121c:	25 0f       	add	r18, r21
    121e:	31 1d       	adc	r19, r1
    1220:	30 93 03 04 	sts	0x0403, r19	; 0x800403 <bdmresp+0x1>
    1224:	20 93 02 04 	sts	0x0402, r18	; 0x800402 <bdmresp>
    1228:	10 92 c1 00 	sts	0x00C1, r1	; 0x8000c1 <__TEXT_REGION_LENGTH__+0x7e00c1>
    122c:	10 92 c2 00 	sts	0x00C2, r1	; 0x8000c2 <__TEXT_REGION_LENGTH__+0x7e00c2>
    1230:	2b b1       	in	r18, 0x0b	; 11
    1232:	2d 7e       	andi	r18, 0xED	; 237
    1234:	2b b9       	out	0x0b, r18	; 11
    1236:	00 00       	nop
    1238:	29 b1       	in	r18, 0x09	; 9
    123a:	21 70       	andi	r18, 0x01	; 1
    123c:	20 93 06 04 	sts	0x0406, r18	; 0x800406 <Attn>
    1240:	23 ec       	ldi	r18, 0xC3	; 195
    1242:	20 93 c2 00 	sts	0x00C2, r18	; 0x8000c2 <__TEXT_REGION_LENGTH__+0x7e00c2>
    1246:	28 e1       	ldi	r18, 0x18	; 24
    1248:	20 93 c1 00 	sts	0x00C1, r18	; 0x8000c1 <__TEXT_REGION_LENGTH__+0x7e00c1>
    124c:	90 93 c6 00 	sts	0x00C6, r25	; 0x8000c6 <__TEXT_REGION_LENGTH__+0x7e00c6>
    1250:	90 91 c0 00 	lds	r25, 0x00C0	; 0x8000c0 <__TEXT_REGION_LENGTH__+0x7e00c0>
    1254:	97 ff       	sbrs	r25, 7
    1256:	fc cf       	rjmp	.-8      	; 0x1250 <Exec_ReadCMD_workaround+0x80>
    1258:	90 91 c6 00 	lds	r25, 0x00C6	; 0x8000c6 <__TEXT_REGION_LENGTH__+0x7e00c6>
    125c:	10 92 02 04 	sts	0x0402, r1	; 0x800402 <bdmresp>
    1260:	90 93 03 04 	sts	0x0403, r25	; 0x800403 <bdmresp+0x1>
    1264:	80 93 c6 00 	sts	0x00C6, r24	; 0x8000c6 <__TEXT_REGION_LENGTH__+0x7e00c6>
    1268:	80 91 c0 00 	lds	r24, 0x00C0	; 0x8000c0 <__TEXT_REGION_LENGTH__+0x7e00c0>
    126c:	87 ff       	sbrs	r24, 7
    126e:	fc cf       	rjmp	.-8      	; 0x1268 <Exec_ReadCMD_workaround+0x98>
    1270:	20 91 c6 00 	lds	r18, 0x00C6	; 0x8000c6 <__TEXT_REGION_LENGTH__+0x7e00c6>
    1274:	80 91 02 04 	lds	r24, 0x0402	; 0x800402 <bdmresp>
    1278:	90 91 03 04 	lds	r25, 0x0403	; 0x800403 <bdmresp+0x1>
    127c:	82 0f       	add	r24, r18
    127e:	91 1d       	adc	r25, r1
    1280:	90 93 03 04 	sts	0x0403, r25	; 0x800403 <bdmresp+0x1>
    1284:	80 93 02 04 	sts	0x0402, r24	; 0x800402 <bdmresp>
    1288:	10 92 c1 00 	sts	0x00C1, r1	; 0x8000c1 <__TEXT_REGION_LENGTH__+0x7e00c1>
    128c:	10 92 c2 00 	sts	0x00C2, r1	; 0x8000c2 <__TEXT_REGION_LENGTH__+0x7e00c2>
    1290:	8b b1       	in	r24, 0x0b	; 11
    1292:	8d 7e       	andi	r24, 0xED	; 237
    1294:	8b b9       	out	0x0b, r24	; 11
    1296:	00 00       	nop
    1298:	89 b1       	in	r24, 0x09	; 9
    129a:	81 70       	andi	r24, 0x01	; 1
    129c:	80 93 06 04 	sts	0x0406, r24	; 0x800406 <Attn>
    12a0:	83 ec       	ldi	r24, 0xC3	; 195
    12a2:	80 93 c2 00 	sts	0x00C2, r24	; 0x8000c2 <__TEXT_REGION_LENGTH__+0x7e00c2>
    12a6:	88 e1       	ldi	r24, 0x18	; 24
    12a8:	80 93 c1 00 	sts	0x00C1, r24	; 0x8000c1 <__TEXT_REGION_LENGTH__+0x7e00c1>
    12ac:	70 93 c6 00 	sts	0x00C6, r23	; 0x8000c6 <__TEXT_REGION_LENGTH__+0x7e00c6>
    12b0:	80 91 c0 00 	lds	r24, 0x00C0	; 0x8000c0 <__TEXT_REGION_LENGTH__+0x7e00c0>
    12b4:	87 ff       	sbrs	r24, 7
    12b6:	fc cf       	rjmp	.-8      	; 0x12b0 <Exec_ReadCMD_workaround+0xe0>
    12b8:	80 91 c6 00 	lds	r24, 0x00C6	; 0x8000c6 <__TEXT_REGION_LENGTH__+0x7e00c6>
    12bc:	10 92 02 04 	sts	0x0402, r1	; 0x800402 <bdmresp>
    12c0:	80 93 03 04 	sts	0x0403, r24	; 0x800403 <bdmresp+0x1>
    12c4:	60 93 c6 00 	sts	0x00C6, r22	; 0x8000c6 <__TEXT_REGION_LENGTH__+0x7e00c6>
    12c8:	80 91 c0 00 	lds	r24, 0x00C0	; 0x8000c0 <__TEXT_REGION_LENGTH__+0x7e00c0>
    12cc:	87 ff       	sbrs	r24, 7
    12ce:	fc cf       	rjmp	.-8      	; 0x12c8 <Exec_ReadCMD_workaround+0xf8>
    12d0:	20 91 c6 00 	lds	r18, 0x00C6	; 0x8000c6 <__TEXT_REGION_LENGTH__+0x7e00c6>
    12d4:	80 91 02 04 	lds	r24, 0x0402	; 0x800402 <bdmresp>
    12d8:	90 91 03 04 	lds	r25, 0x0403	; 0x800403 <bdmresp+0x1>
    12dc:	82 0f       	add	r24, r18
    12de:	91 1d       	adc	r25, r1
    12e0:	90 93 03 04 	sts	0x0403, r25	; 0x800403 <bdmresp+0x1>
    12e4:	80 93 02 04 	sts	0x0402, r24	; 0x800402 <bdmresp>
    12e8:	10 92 c1 00 	sts	0x00C1, r1	; 0x8000c1 <__TEXT_REGION_LENGTH__+0x7e00c1>
    12ec:	10 92 c2 00 	sts	0x00C2, r1	; 0x8000c2 <__TEXT_REGION_LENGTH__+0x7e00c2>
    12f0:	47 ff       	sbrs	r20, 7
    12f2:	3c c0       	rjmp	.+120    	; 0x136c <Exec_ReadCMD_workaround+0x19c>
    12f4:	43 ec       	ldi	r20, 0xC3	; 195
    12f6:	38 e1       	ldi	r19, 0x18	; 24
    12f8:	8b b1       	in	r24, 0x0b	; 11
    12fa:	8d 7e       	andi	r24, 0xED	; 237
    12fc:	8b b9       	out	0x0b, r24	; 11
    12fe:	00 00       	nop
    1300:	89 b1       	in	r24, 0x09	; 9
    1302:	81 70       	andi	r24, 0x01	; 1
    1304:	80 93 06 04 	sts	0x0406, r24	; 0x800406 <Attn>
    1308:	40 93 c2 00 	sts	0x00C2, r20	; 0x8000c2 <__TEXT_REGION_LENGTH__+0x7e00c2>
    130c:	30 93 c1 00 	sts	0x00C1, r19	; 0x8000c1 <__TEXT_REGION_LENGTH__+0x7e00c1>
    1310:	10 92 c6 00 	sts	0x00C6, r1	; 0x8000c6 <__TEXT_REGION_LENGTH__+0x7e00c6>
    1314:	80 91 c0 00 	lds	r24, 0x00C0	; 0x8000c0 <__TEXT_REGION_LENGTH__+0x7e00c0>
    1318:	87 ff       	sbrs	r24, 7
    131a:	fc cf       	rjmp	.-8      	; 0x1314 <Exec_ReadCMD_workaround+0x144>
    131c:	80 91 c6 00 	lds	r24, 0x00C6	; 0x8000c6 <__TEXT_REGION_LENGTH__+0x7e00c6>
    1320:	10 92 02 04 	sts	0x0402, r1	; 0x800402 <bdmresp>
    1324:	80 93 03 04 	sts	0x0403, r24	; 0x800403 <bdmresp+0x1>
    1328:	10 92 c6 00 	sts	0x00C6, r1	; 0x8000c6 <__TEXT_REGION_LENGTH__+0x7e00c6>
    132c:	80 91 c0 00 	lds	r24, 0x00C0	; 0x8000c0 <__TEXT_REGION_LENGTH__+0x7e00c0>
    1330:	87 ff       	sbrs	r24, 7
    1332:	fc cf       	rjmp	.-8      	; 0x132c <Exec_ReadCMD_workaround+0x15c>
    1334:	20 91 c6 00 	lds	r18, 0x00C6	; 0x8000c6 <__TEXT_REGION_LENGTH__+0x7e00c6>
    1338:	80 91 02 04 	lds	r24, 0x0402	; 0x800402 <bdmresp>
    133c:	90 91 03 04 	lds	r25, 0x0403	; 0x800403 <bdmresp+0x1>
    1340:	82 0f       	add	r24, r18
    1342:	91 1d       	adc	r25, r1
    1344:	90 93 03 04 	sts	0x0403, r25	; 0x800403 <bdmresp+0x1>
    1348:	80 93 02 04 	sts	0x0402, r24	; 0x800402 <bdmresp>
    134c:	10 92 c1 00 	sts	0x00C1, r1	; 0x8000c1 <__TEXT_REGION_LENGTH__+0x7e00c1>
    1350:	10 92 c2 00 	sts	0x00C2, r1	; 0x8000c2 <__TEXT_REGION_LENGTH__+0x7e00c2>
    1354:	80 91 06 04 	lds	r24, 0x0406	; 0x800406 <Attn>
    1358:	81 11       	cpse	r24, r1
    135a:	ce cf       	rjmp	.-100    	; 0x12f8 <Exec_ReadCMD_workaround+0x128>
    135c:	80 91 02 04 	lds	r24, 0x0402	; 0x800402 <bdmresp>
    1360:	90 91 03 04 	lds	r25, 0x0403	; 0x800403 <bdmresp+0x1>
    1364:	90 93 05 04 	sts	0x0405, r25	; 0x800405 <bdmresp32+0x1>
    1368:	80 93 04 04 	sts	0x0404, r24	; 0x800404 <bdmresp32>
    136c:	43 ec       	ldi	r20, 0xC3	; 195
    136e:	38 e1       	ldi	r19, 0x18	; 24
    1370:	8b b1       	in	r24, 0x0b	; 11
    1372:	8d 7e       	andi	r24, 0xED	; 237
    1374:	8b b9       	out	0x0b, r24	; 11
    1376:	00 00       	nop
    1378:	89 b1       	in	r24, 0x09	; 9
    137a:	81 70       	andi	r24, 0x01	; 1
    137c:	80 93 06 04 	sts	0x0406, r24	; 0x800406 <Attn>
    1380:	40 93 c2 00 	sts	0x00C2, r20	; 0x8000c2 <__TEXT_REGION_LENGTH__+0x7e00c2>
    1384:	30 93 c1 00 	sts	0x00C1, r19	; 0x8000c1 <__TEXT_REGION_LENGTH__+0x7e00c1>
    1388:	10 92 c6 00 	sts	0x00C6, r1	; 0x8000c6 <__TEXT_REGION_LENGTH__+0x7e00c6>
    138c:	80 91 c0 00 	lds	r24, 0x00C0	; 0x8000c0 <__TEXT_REGION_LENGTH__+0x7e00c0>
    1390:	87 ff       	sbrs	r24, 7
    1392:	fc cf       	rjmp	.-8      	; 0x138c <Exec_ReadCMD_workaround+0x1bc>
    1394:	80 91 c6 00 	lds	r24, 0x00C6	; 0x8000c6 <__TEXT_REGION_LENGTH__+0x7e00c6>
    1398:	10 92 02 04 	sts	0x0402, r1	; 0x800402 <bdmresp>
    139c:	80 93 03 04 	sts	0x0403, r24	; 0x800403 <bdmresp+0x1>
    13a0:	10 92 c6 00 	sts	0x00C6, r1	; 0x8000c6 <__TEXT_REGION_LENGTH__+0x7e00c6>
    13a4:	80 91 c0 00 	lds	r24, 0x00C0	; 0x8000c0 <__TEXT_REGION_LENGTH__+0x7e00c0>
    13a8:	87 ff       	sbrs	r24, 7
    13aa:	fc cf       	rjmp	.-8      	; 0x13a4 <Exec_ReadCMD_workaround+0x1d4>
    13ac:	20 91 c6 00 	lds	r18, 0x00C6	; 0x8000c6 <__TEXT_REGION_LENGTH__+0x7e00c6>
    13b0:	80 91 02 04 	lds	r24, 0x0402	; 0x800402 <bdmresp>
    13b4:	90 91 03 04 	lds	r25, 0x0403	; 0x800403 <bdmresp+0x1>
    13b8:	82 0f       	add	r24, r18
    13ba:	91 1d       	adc	r25, r1
    13bc:	90 93 03 04 	sts	0x0403, r25	; 0x800403 <bdmresp+0x1>
    13c0:	80 93 02 04 	sts	0x0402, r24	; 0x800402 <bdmresp>
    13c4:	10 92 c1 00 	sts	0x00C1, r1	; 0x8000c1 <__TEXT_REGION_LENGTH__+0x7e00c1>
    13c8:	10 92 c2 00 	sts	0x00C2, r1	; 0x8000c2 <__TEXT_REGION_LENGTH__+0x7e00c2>
    13cc:	80 91 06 04 	lds	r24, 0x0406	; 0x800406 <Attn>
    13d0:	81 11       	cpse	r24, r1
    13d2:	ce cf       	rjmp	.-100    	; 0x1370 <Exec_ReadCMD_workaround+0x1a0>
    13d4:	80 91 02 04 	lds	r24, 0x0402	; 0x800402 <bdmresp>
    13d8:	90 91 03 04 	lds	r25, 0x0403	; 0x800403 <bdmresp+0x1>
    13dc:	90 93 2d 06 	sts	0x062D, r25	; 0x80062d <bdmresp16+0x1>
    13e0:	80 93 2c 06 	sts	0x062C, r24	; 0x80062c <bdmresp16>
    13e4:	08 95       	ret

000013e6 <Exec_FillCMD_p>:
    13e6:	fc 01       	movw	r30, r24
    13e8:	8b b1       	in	r24, 0x0b	; 11
    13ea:	8d 7e       	andi	r24, 0xED	; 237
    13ec:	8b b9       	out	0x0b, r24	; 11
    13ee:	00 00       	nop
    13f0:	89 b1       	in	r24, 0x09	; 9
    13f2:	81 70       	andi	r24, 0x01	; 1
    13f4:	80 93 06 04 	sts	0x0406, r24	; 0x800406 <Attn>
    13f8:	83 ec       	ldi	r24, 0xC3	; 195
    13fa:	80 93 c2 00 	sts	0x00C2, r24	; 0x8000c2 <__TEXT_REGION_LENGTH__+0x7e00c2>
    13fe:	88 e1       	ldi	r24, 0x18	; 24
    1400:	80 93 c1 00 	sts	0x00C1, r24	; 0x8000c1 <__TEXT_REGION_LENGTH__+0x7e00c1>
    1404:	8c e1       	ldi	r24, 0x1C	; 28
    1406:	80 93 c6 00 	sts	0x00C6, r24	; 0x8000c6 <__TEXT_REGION_LENGTH__+0x7e00c6>
    140a:	90 91 c0 00 	lds	r25, 0x00C0	; 0x8000c0 <__TEXT_REGION_LENGTH__+0x7e00c0>
    140e:	97 ff       	sbrs	r25, 7
    1410:	fc cf       	rjmp	.-8      	; 0x140a <Exec_FillCMD_p+0x24>
    1412:	80 91 c6 00 	lds	r24, 0x00C6	; 0x8000c6 <__TEXT_REGION_LENGTH__+0x7e00c6>
    1416:	10 92 02 04 	sts	0x0402, r1	; 0x800402 <bdmresp>
    141a:	80 93 03 04 	sts	0x0403, r24	; 0x800403 <bdmresp+0x1>
    141e:	80 e8       	ldi	r24, 0x80	; 128
    1420:	80 93 c6 00 	sts	0x00C6, r24	; 0x8000c6 <__TEXT_REGION_LENGTH__+0x7e00c6>
    1424:	90 91 c0 00 	lds	r25, 0x00C0	; 0x8000c0 <__TEXT_REGION_LENGTH__+0x7e00c0>
    1428:	97 ff       	sbrs	r25, 7
    142a:	fc cf       	rjmp	.-8      	; 0x1424 <Exec_FillCMD_p+0x3e>
    142c:	20 91 c6 00 	lds	r18, 0x00C6	; 0x8000c6 <__TEXT_REGION_LENGTH__+0x7e00c6>
    1430:	80 91 02 04 	lds	r24, 0x0402	; 0x800402 <bdmresp>
    1434:	90 91 03 04 	lds	r25, 0x0403	; 0x800403 <bdmresp+0x1>
    1438:	82 0f       	add	r24, r18
    143a:	91 1d       	adc	r25, r1
    143c:	90 93 03 04 	sts	0x0403, r25	; 0x800403 <bdmresp+0x1>
    1440:	80 93 02 04 	sts	0x0402, r24	; 0x800402 <bdmresp>
    1444:	10 92 c1 00 	sts	0x00C1, r1	; 0x8000c1 <__TEXT_REGION_LENGTH__+0x7e00c1>
    1448:	10 92 c2 00 	sts	0x00C2, r1	; 0x8000c2 <__TEXT_REGION_LENGTH__+0x7e00c2>
    144c:	8b b1       	in	r24, 0x0b	; 11
    144e:	8d 7e       	andi	r24, 0xED	; 237
    1450:	8b b9       	out	0x0b, r24	; 11
    1452:	83 ec       	ldi	r24, 0xC3	; 195
    1454:	80 93 c2 00 	sts	0x00C2, r24	; 0x8000c2 <__TEXT_REGION_LENGTH__+0x7e00c2>
    1458:	88 e1       	ldi	r24, 0x18	; 24
    145a:	80 93 c1 00 	sts	0x00C1, r24	; 0x8000c1 <__TEXT_REGION_LENGTH__+0x7e00c1>
    145e:	90 81       	ld	r25, Z
    1460:	81 81       	ldd	r24, Z+1	; 0x01
    1462:	90 93 c6 00 	sts	0x00C6, r25	; 0x8000c6 <__TEXT_REGION_LENGTH__+0x7e00c6>
    1466:	90 91 c0 00 	lds	r25, 0x00C0	; 0x8000c0 <__TEXT_REGION_LENGTH__+0x7e00c0>
    146a:	97 ff       	sbrs	r25, 7
    146c:	fc cf       	rjmp	.-8      	; 0x1466 <Exec_FillCMD_p+0x80>
    146e:	90 91 c6 00 	lds	r25, 0x00C6	; 0x8000c6 <__TEXT_REGION_LENGTH__+0x7e00c6>
    1472:	80 93 c6 00 	sts	0x00C6, r24	; 0x8000c6 <__TEXT_REGION_LENGTH__+0x7e00c6>
    1476:	90 91 c0 00 	lds	r25, 0x00C0	; 0x8000c0 <__TEXT_REGION_LENGTH__+0x7e00c0>
    147a:	97 ff       	sbrs	r25, 7
    147c:	fc cf       	rjmp	.-8      	; 0x1476 <Exec_FillCMD_p+0x90>
    147e:	10 92 c1 00 	sts	0x00C1, r1	; 0x8000c1 <__TEXT_REGION_LENGTH__+0x7e00c1>
    1482:	10 92 c2 00 	sts	0x00C2, r1	; 0x8000c2 <__TEXT_REGION_LENGTH__+0x7e00c2>
    1486:	8b b1       	in	r24, 0x0b	; 11
    1488:	8d 7e       	andi	r24, 0xED	; 237
    148a:	8b b9       	out	0x0b, r24	; 11
    148c:	83 ec       	ldi	r24, 0xC3	; 195
    148e:	80 93 c2 00 	sts	0x00C2, r24	; 0x8000c2 <__TEXT_REGION_LENGTH__+0x7e00c2>
    1492:	88 e1       	ldi	r24, 0x18	; 24
    1494:	80 93 c1 00 	sts	0x00C1, r24	; 0x8000c1 <__TEXT_REGION_LENGTH__+0x7e00c1>
    1498:	82 81       	ldd	r24, Z+2	; 0x02
    149a:	93 81       	ldd	r25, Z+3	; 0x03
    149c:	80 93 c6 00 	sts	0x00C6, r24	; 0x8000c6 <__TEXT_REGION_LENGTH__+0x7e00c6>
    14a0:	80 91 c0 00 	lds	r24, 0x00C0	; 0x8000c0 <__TEXT_REGION_LENGTH__+0x7e00c0>
    14a4:	87 ff       	sbrs	r24, 7
    14a6:	fc cf       	rjmp	.-8      	; 0x14a0 <Exec_FillCMD_p+0xba>
    14a8:	80 91 c6 00 	lds	r24, 0x00C6	; 0x8000c6 <__TEXT_REGION_LENGTH__+0x7e00c6>
    14ac:	90 93 c6 00 	sts	0x00C6, r25	; 0x8000c6 <__TEXT_REGION_LENGTH__+0x7e00c6>
    14b0:	80 91 c0 00 	lds	r24, 0x00C0	; 0x8000c0 <__TEXT_REGION_LENGTH__+0x7e00c0>
    14b4:	87 ff       	sbrs	r24, 7
    14b6:	fc cf       	rjmp	.-8      	; 0x14b0 <Exec_FillCMD_p+0xca>
    14b8:	10 92 c1 00 	sts	0x00C1, r1	; 0x8000c1 <__TEXT_REGION_LENGTH__+0x7e00c1>
    14bc:	10 92 c2 00 	sts	0x00C2, r1	; 0x8000c2 <__TEXT_REGION_LENGTH__+0x7e00c2>
    14c0:	8b b1       	in	r24, 0x0b	; 11
    14c2:	8d 7e       	andi	r24, 0xED	; 237
    14c4:	8b b9       	out	0x0b, r24	; 11
    14c6:	23 ec       	ldi	r18, 0xC3	; 195
    14c8:	98 e1       	ldi	r25, 0x18	; 24
    14ca:	20 93 c2 00 	sts	0x00C2, r18	; 0x8000c2 <__TEXT_REGION_LENGTH__+0x7e00c2>
    14ce:	90 93 c1 00 	sts	0x00C1, r25	; 0x8000c1 <__TEXT_REGION_LENGTH__+0x7e00c1>
    14d2:	10 92 c6 00 	sts	0x00C6, r1	; 0x8000c6 <__TEXT_REGION_LENGTH__+0x7e00c6>
    14d6:	80 91 c0 00 	lds	r24, 0x00C0	; 0x8000c0 <__TEXT_REGION_LENGTH__+0x7e00c0>
    14da:	87 ff       	sbrs	r24, 7
    14dc:	fc cf       	rjmp	.-8      	; 0x14d6 <Exec_FillCMD_p+0xf0>
    14de:	80 91 c6 00 	lds	r24, 0x00C6	; 0x8000c6 <__TEXT_REGION_LENGTH__+0x7e00c6>
    14e2:	10 92 c6 00 	sts	0x00C6, r1	; 0x8000c6 <__TEXT_REGION_LENGTH__+0x7e00c6>
    14e6:	80 91 c0 00 	lds	r24, 0x00C0	; 0x8000c0 <__TEXT_REGION_LENGTH__+0x7e00c0>
    14ea:	87 ff       	sbrs	r24, 7
    14ec:	fc cf       	rjmp	.-8      	; 0x14e6 <Exec_FillCMD_p+0x100>
    14ee:	10 92 c1 00 	sts	0x00C1, r1	; 0x8000c1 <__TEXT_REGION_LENGTH__+0x7e00c1>
    14f2:	10 92 c2 00 	sts	0x00C2, r1	; 0x8000c2 <__TEXT_REGION_LENGTH__+0x7e00c2>
    14f6:	8b b1       	in	r24, 0x0b	; 11
    14f8:	8d 7e       	andi	r24, 0xED	; 237
    14fa:	8b b9       	out	0x0b, r24	; 11
    14fc:	00 00       	nop
    14fe:	48 99       	sbic	0x09, 0	; 9
    1500:	e4 cf       	rjmp	.-56     	; 0x14ca <Exec_FillCMD_p+0xe4>
    1502:	08 95       	ret

00001504 <Exec_WriteCMD>:
    1504:	0f 93       	push	r16
    1506:	1f 93       	push	r17
    1508:	dc 01       	movw	r26, r24
    150a:	8b b1       	in	r24, 0x0b	; 11
    150c:	8d 7e       	andi	r24, 0xED	; 237
    150e:	8b b9       	out	0x0b, r24	; 11
    1510:	00 00       	nop
    1512:	99 b1       	in	r25, 0x09	; 9
    1514:	91 70       	andi	r25, 0x01	; 1
    1516:	90 93 06 04 	sts	0x0406, r25	; 0x800406 <Attn>
    151a:	83 ec       	ldi	r24, 0xC3	; 195
    151c:	80 93 c2 00 	sts	0x00C2, r24	; 0x8000c2 <__TEXT_REGION_LENGTH__+0x7e00c2>
    1520:	88 e1       	ldi	r24, 0x18	; 24
    1522:	80 93 c1 00 	sts	0x00C1, r24	; 0x8000c1 <__TEXT_REGION_LENGTH__+0x7e00c1>
    1526:	50 93 c6 00 	sts	0x00C6, r21	; 0x8000c6 <__TEXT_REGION_LENGTH__+0x7e00c6>
    152a:	90 91 c0 00 	lds	r25, 0x00C0	; 0x8000c0 <__TEXT_REGION_LENGTH__+0x7e00c0>
    152e:	97 ff       	sbrs	r25, 7
    1530:	fc cf       	rjmp	.-8      	; 0x152a <Exec_WriteCMD+0x26>
    1532:	80 91 c6 00 	lds	r24, 0x00C6	; 0x8000c6 <__TEXT_REGION_LENGTH__+0x7e00c6>
    1536:	10 92 02 04 	sts	0x0402, r1	; 0x800402 <bdmresp>
    153a:	80 93 03 04 	sts	0x0403, r24	; 0x800403 <bdmresp+0x1>
    153e:	40 93 c6 00 	sts	0x00C6, r20	; 0x8000c6 <__TEXT_REGION_LENGTH__+0x7e00c6>
    1542:	90 91 c0 00 	lds	r25, 0x00C0	; 0x8000c0 <__TEXT_REGION_LENGTH__+0x7e00c0>
    1546:	97 ff       	sbrs	r25, 7
    1548:	fc cf       	rjmp	.-8      	; 0x1542 <Exec_WriteCMD+0x3e>
    154a:	80 91 c6 00 	lds	r24, 0x00C6	; 0x8000c6 <__TEXT_REGION_LENGTH__+0x7e00c6>
    154e:	e0 91 02 04 	lds	r30, 0x0402	; 0x800402 <bdmresp>
    1552:	f0 91 03 04 	lds	r31, 0x0403	; 0x800403 <bdmresp+0x1>
    1556:	e8 0f       	add	r30, r24
    1558:	f1 1d       	adc	r31, r1
    155a:	f0 93 03 04 	sts	0x0403, r31	; 0x800403 <bdmresp+0x1>
    155e:	e0 93 02 04 	sts	0x0402, r30	; 0x800402 <bdmresp>
    1562:	10 92 c1 00 	sts	0x00C1, r1	; 0x8000c1 <__TEXT_REGION_LENGTH__+0x7e00c1>
    1566:	10 92 c2 00 	sts	0x00C2, r1	; 0x8000c2 <__TEXT_REGION_LENGTH__+0x7e00c2>
    156a:	10 97       	sbiw	r26, 0x00	; 0
    156c:	09 f0       	breq	.+2      	; 0x1570 <Exec_WriteCMD+0x6c>
    156e:	6d c0       	rjmp	.+218    	; 0x164a <Exec_WriteCMD+0x146>
    1570:	61 15       	cp	r22, r1
    1572:	71 05       	cpc	r23, r1
    1574:	09 f0       	breq	.+2      	; 0x1578 <Exec_WriteCMD+0x74>
    1576:	69 c0       	rjmp	.+210    	; 0x164a <Exec_WriteCMD+0x146>
    1578:	47 fd       	sbrc	r20, 7
    157a:	c9 c0       	rjmp	.+402    	; 0x170e <Exec_WriteCMD+0x20a>
    157c:	8b b1       	in	r24, 0x0b	; 11
    157e:	8d 7e       	andi	r24, 0xED	; 237
    1580:	8b b9       	out	0x0b, r24	; 11
    1582:	00 00       	nop
    1584:	89 b1       	in	r24, 0x09	; 9
    1586:	81 70       	andi	r24, 0x01	; 1
    1588:	80 93 06 04 	sts	0x0406, r24	; 0x800406 <Attn>
    158c:	83 ec       	ldi	r24, 0xC3	; 195
    158e:	80 93 c2 00 	sts	0x00C2, r24	; 0x8000c2 <__TEXT_REGION_LENGTH__+0x7e00c2>
    1592:	88 e1       	ldi	r24, 0x18	; 24
    1594:	80 93 c1 00 	sts	0x00C1, r24	; 0x8000c1 <__TEXT_REGION_LENGTH__+0x7e00c1>
    1598:	10 93 c6 00 	sts	0x00C6, r17	; 0x8000c6 <__TEXT_REGION_LENGTH__+0x7e00c6>
    159c:	80 91 c0 00 	lds	r24, 0x00C0	; 0x8000c0 <__TEXT_REGION_LENGTH__+0x7e00c0>
    15a0:	87 ff       	sbrs	r24, 7
    15a2:	fc cf       	rjmp	.-8      	; 0x159c <Exec_WriteCMD+0x98>
    15a4:	80 91 c6 00 	lds	r24, 0x00C6	; 0x8000c6 <__TEXT_REGION_LENGTH__+0x7e00c6>
    15a8:	10 92 02 04 	sts	0x0402, r1	; 0x800402 <bdmresp>
    15ac:	80 93 03 04 	sts	0x0403, r24	; 0x800403 <bdmresp+0x1>
    15b0:	00 93 c6 00 	sts	0x00C6, r16	; 0x8000c6 <__TEXT_REGION_LENGTH__+0x7e00c6>
    15b4:	80 91 c0 00 	lds	r24, 0x00C0	; 0x8000c0 <__TEXT_REGION_LENGTH__+0x7e00c0>
    15b8:	87 ff       	sbrs	r24, 7
    15ba:	fc cf       	rjmp	.-8      	; 0x15b4 <Exec_WriteCMD+0xb0>
    15bc:	20 91 c6 00 	lds	r18, 0x00C6	; 0x8000c6 <__TEXT_REGION_LENGTH__+0x7e00c6>
    15c0:	80 91 02 04 	lds	r24, 0x0402	; 0x800402 <bdmresp>
    15c4:	90 91 03 04 	lds	r25, 0x0403	; 0x800403 <bdmresp+0x1>
    15c8:	82 0f       	add	r24, r18
    15ca:	91 1d       	adc	r25, r1
    15cc:	90 93 03 04 	sts	0x0403, r25	; 0x800403 <bdmresp+0x1>
    15d0:	80 93 02 04 	sts	0x0402, r24	; 0x800402 <bdmresp>
    15d4:	10 92 c1 00 	sts	0x00C1, r1	; 0x8000c1 <__TEXT_REGION_LENGTH__+0x7e00c1>
    15d8:	10 92 c2 00 	sts	0x00C2, r1	; 0x8000c2 <__TEXT_REGION_LENGTH__+0x7e00c2>
    15dc:	43 ec       	ldi	r20, 0xC3	; 195
    15de:	38 e1       	ldi	r19, 0x18	; 24
    15e0:	8b b1       	in	r24, 0x0b	; 11
    15e2:	8d 7e       	andi	r24, 0xED	; 237
    15e4:	8b b9       	out	0x0b, r24	; 11
    15e6:	00 00       	nop
    15e8:	89 b1       	in	r24, 0x09	; 9
    15ea:	81 70       	andi	r24, 0x01	; 1
    15ec:	80 93 06 04 	sts	0x0406, r24	; 0x800406 <Attn>
    15f0:	40 93 c2 00 	sts	0x00C2, r20	; 0x8000c2 <__TEXT_REGION_LENGTH__+0x7e00c2>
    15f4:	30 93 c1 00 	sts	0x00C1, r19	; 0x8000c1 <__TEXT_REGION_LENGTH__+0x7e00c1>
    15f8:	10 92 c6 00 	sts	0x00C6, r1	; 0x8000c6 <__TEXT_REGION_LENGTH__+0x7e00c6>
    15fc:	80 91 c0 00 	lds	r24, 0x00C0	; 0x8000c0 <__TEXT_REGION_LENGTH__+0x7e00c0>
    1600:	87 ff       	sbrs	r24, 7
    1602:	fc cf       	rjmp	.-8      	; 0x15fc <Exec_WriteCMD+0xf8>
    1604:	80 91 c6 00 	lds	r24, 0x00C6	; 0x8000c6 <__TEXT_REGION_LENGTH__+0x7e00c6>
    1608:	10 92 02 04 	sts	0x0402, r1	; 0x800402 <bdmresp>
    160c:	80 93 03 04 	sts	0x0403, r24	; 0x800403 <bdmresp+0x1>
    1610:	10 92 c6 00 	sts	0x00C6, r1	; 0x8000c6 <__TEXT_REGION_LENGTH__+0x7e00c6>
    1614:	80 91 c0 00 	lds	r24, 0x00C0	; 0x8000c0 <__TEXT_REGION_LENGTH__+0x7e00c0>
    1618:	87 ff       	sbrs	r24, 7
    161a:	fc cf       	rjmp	.-8      	; 0x1614 <Exec_WriteCMD+0x110>
    161c:	20 91 c6 00 	lds	r18, 0x00C6	; 0x8000c6 <__TEXT_REGION_LENGTH__+0x7e00c6>
    1620:	80 91 02 04 	lds	r24, 0x0402	; 0x800402 <bdmresp>
    1624:	90 91 03 04 	lds	r25, 0x0403	; 0x800403 <bdmresp+0x1>
    1628:	82 0f       	add	r24, r18
    162a:	91 1d       	adc	r25, r1
    162c:	90 93 03 04 	sts	0x0403, r25	; 0x800403 <bdmresp+0x1>
    1630:	80 93 02 04 	sts	0x0402, r24	; 0x800402 <bdmresp>
    1634:	10 92 c1 00 	sts	0x00C1, r1	; 0x8000c1 <__TEXT_REGION_LENGTH__+0x7e00c1>
    1638:	10 92 c2 00 	sts	0x00C2, r1	; 0x8000c2 <__TEXT_REGION_LENGTH__+0x7e00c2>
    163c:	80 91 06 04 	lds	r24, 0x0406	; 0x800406 <Attn>
    1640:	81 11       	cpse	r24, r1
    1642:	ce cf       	rjmp	.-100    	; 0x15e0 <Exec_WriteCMD+0xdc>
    1644:	1f 91       	pop	r17
    1646:	0f 91       	pop	r16
    1648:	08 95       	ret
    164a:	8b b1       	in	r24, 0x0b	; 11
    164c:	8d 7e       	andi	r24, 0xED	; 237
    164e:	8b b9       	out	0x0b, r24	; 11
    1650:	00 00       	nop
    1652:	89 b1       	in	r24, 0x09	; 9
    1654:	81 70       	andi	r24, 0x01	; 1
    1656:	80 93 06 04 	sts	0x0406, r24	; 0x800406 <Attn>
    165a:	83 ec       	ldi	r24, 0xC3	; 195
    165c:	80 93 c2 00 	sts	0x00C2, r24	; 0x8000c2 <__TEXT_REGION_LENGTH__+0x7e00c2>
    1660:	88 e1       	ldi	r24, 0x18	; 24
    1662:	80 93 c1 00 	sts	0x00C1, r24	; 0x8000c1 <__TEXT_REGION_LENGTH__+0x7e00c1>
    1666:	b0 93 c6 00 	sts	0x00C6, r27	; 0x8000c6 <__TEXT_REGION_LENGTH__+0x7e00c6>
    166a:	90 91 c0 00 	lds	r25, 0x00C0	; 0x8000c0 <__TEXT_REGION_LENGTH__+0x7e00c0>
    166e:	97 ff       	sbrs	r25, 7
    1670:	fc cf       	rjmp	.-8      	; 0x166a <Exec_WriteCMD+0x166>
    1672:	80 91 c6 00 	lds	r24, 0x00C6	; 0x8000c6 <__TEXT_REGION_LENGTH__+0x7e00c6>
    1676:	10 92 02 04 	sts	0x0402, r1	; 0x800402 <bdmresp>
    167a:	80 93 03 04 	sts	0x0403, r24	; 0x800403 <bdmresp+0x1>
    167e:	a0 93 c6 00 	sts	0x00C6, r26	; 0x8000c6 <__TEXT_REGION_LENGTH__+0x7e00c6>
    1682:	80 91 c0 00 	lds	r24, 0x00C0	; 0x8000c0 <__TEXT_REGION_LENGTH__+0x7e00c0>
    1686:	87 ff       	sbrs	r24, 7
    1688:	fc cf       	rjmp	.-8      	; 0x1682 <Exec_WriteCMD+0x17e>
    168a:	50 91 c6 00 	lds	r21, 0x00C6	; 0x8000c6 <__TEXT_REGION_LENGTH__+0x7e00c6>
    168e:	80 91 02 04 	lds	r24, 0x0402	; 0x800402 <bdmresp>
    1692:	90 91 03 04 	lds	r25, 0x0403	; 0x800403 <bdmresp+0x1>
    1696:	85 0f       	add	r24, r21
    1698:	91 1d       	adc	r25, r1
    169a:	90 93 03 04 	sts	0x0403, r25	; 0x800403 <bdmresp+0x1>
    169e:	80 93 02 04 	sts	0x0402, r24	; 0x800402 <bdmresp>
    16a2:	10 92 c1 00 	sts	0x00C1, r1	; 0x8000c1 <__TEXT_REGION_LENGTH__+0x7e00c1>
    16a6:	10 92 c2 00 	sts	0x00C2, r1	; 0x8000c2 <__TEXT_REGION_LENGTH__+0x7e00c2>
    16aa:	8b b1       	in	r24, 0x0b	; 11
    16ac:	8d 7e       	andi	r24, 0xED	; 237
    16ae:	8b b9       	out	0x0b, r24	; 11
    16b0:	00 00       	nop
    16b2:	89 b1       	in	r24, 0x09	; 9
    16b4:	81 70       	andi	r24, 0x01	; 1
    16b6:	80 93 06 04 	sts	0x0406, r24	; 0x800406 <Attn>
    16ba:	83 ec       	ldi	r24, 0xC3	; 195
    16bc:	80 93 c2 00 	sts	0x00C2, r24	; 0x8000c2 <__TEXT_REGION_LENGTH__+0x7e00c2>
    16c0:	88 e1       	ldi	r24, 0x18	; 24
    16c2:	80 93 c1 00 	sts	0x00C1, r24	; 0x8000c1 <__TEXT_REGION_LENGTH__+0x7e00c1>
    16c6:	70 93 c6 00 	sts	0x00C6, r23	; 0x8000c6 <__TEXT_REGION_LENGTH__+0x7e00c6>
    16ca:	80 91 c0 00 	lds	r24, 0x00C0	; 0x8000c0 <__TEXT_REGION_LENGTH__+0x7e00c0>
    16ce:	87 ff       	sbrs	r24, 7
    16d0:	fc cf       	rjmp	.-8      	; 0x16ca <Exec_WriteCMD+0x1c6>
    16d2:	80 91 c6 00 	lds	r24, 0x00C6	; 0x8000c6 <__TEXT_REGION_LENGTH__+0x7e00c6>
    16d6:	10 92 02 04 	sts	0x0402, r1	; 0x800402 <bdmresp>
    16da:	80 93 03 04 	sts	0x0403, r24	; 0x800403 <bdmresp+0x1>
    16de:	60 93 c6 00 	sts	0x00C6, r22	; 0x8000c6 <__TEXT_REGION_LENGTH__+0x7e00c6>
    16e2:	80 91 c0 00 	lds	r24, 0x00C0	; 0x8000c0 <__TEXT_REGION_LENGTH__+0x7e00c0>
    16e6:	87 ff       	sbrs	r24, 7
    16e8:	fc cf       	rjmp	.-8      	; 0x16e2 <Exec_WriteCMD+0x1de>
    16ea:	50 91 c6 00 	lds	r21, 0x00C6	; 0x8000c6 <__TEXT_REGION_LENGTH__+0x7e00c6>
    16ee:	80 91 02 04 	lds	r24, 0x0402	; 0x800402 <bdmresp>
    16f2:	90 91 03 04 	lds	r25, 0x0403	; 0x800403 <bdmresp+0x1>
    16f6:	85 0f       	add	r24, r21
    16f8:	91 1d       	adc	r25, r1
    16fa:	90 93 03 04 	sts	0x0403, r25	; 0x800403 <bdmresp+0x1>
    16fe:	80 93 02 04 	sts	0x0402, r24	; 0x800402 <bdmresp>
    1702:	10 92 c1 00 	sts	0x00C1, r1	; 0x8000c1 <__TEXT_REGION_LENGTH__+0x7e00c1>
    1706:	10 92 c2 00 	sts	0x00C2, r1	; 0x8000c2 <__TEXT_REGION_LENGTH__+0x7e00c2>
    170a:	47 ff       	sbrs	r20, 7
    170c:	37 cf       	rjmp	.-402    	; 0x157c <Exec_WriteCMD+0x78>
    170e:	8b b1       	in	r24, 0x0b	; 11
    1710:	8d 7e       	andi	r24, 0xED	; 237
    1712:	8b b9       	out	0x0b, r24	; 11
    1714:	00 00       	nop
    1716:	89 b1       	in	r24, 0x09	; 9
    1718:	81 70       	andi	r24, 0x01	; 1
    171a:	80 93 06 04 	sts	0x0406, r24	; 0x800406 <Attn>
    171e:	83 ec       	ldi	r24, 0xC3	; 195
    1720:	80 93 c2 00 	sts	0x00C2, r24	; 0x8000c2 <__TEXT_REGION_LENGTH__+0x7e00c2>
    1724:	88 e1       	ldi	r24, 0x18	; 24
    1726:	80 93 c1 00 	sts	0x00C1, r24	; 0x8000c1 <__TEXT_REGION_LENGTH__+0x7e00c1>
    172a:	30 93 c6 00 	sts	0x00C6, r19	; 0x8000c6 <__TEXT_REGION_LENGTH__+0x7e00c6>
    172e:	80 91 c0 00 	lds	r24, 0x00C0	; 0x8000c0 <__TEXT_REGION_LENGTH__+0x7e00c0>
    1732:	87 ff       	sbrs	r24, 7
    1734:	fc cf       	rjmp	.-8      	; 0x172e <Exec_WriteCMD+0x22a>
    1736:	80 91 c6 00 	lds	r24, 0x00C6	; 0x8000c6 <__TEXT_REGION_LENGTH__+0x7e00c6>
    173a:	10 92 02 04 	sts	0x0402, r1	; 0x800402 <bdmresp>
    173e:	80 93 03 04 	sts	0x0403, r24	; 0x800403 <bdmresp+0x1>
    1742:	20 93 c6 00 	sts	0x00C6, r18	; 0x8000c6 <__TEXT_REGION_LENGTH__+0x7e00c6>
    1746:	80 91 c0 00 	lds	r24, 0x00C0	; 0x8000c0 <__TEXT_REGION_LENGTH__+0x7e00c0>
    174a:	87 ff       	sbrs	r24, 7
    174c:	fc cf       	rjmp	.-8      	; 0x1746 <Exec_WriteCMD+0x242>
    174e:	20 91 c6 00 	lds	r18, 0x00C6	; 0x8000c6 <__TEXT_REGION_LENGTH__+0x7e00c6>
    1752:	80 91 02 04 	lds	r24, 0x0402	; 0x800402 <bdmresp>
    1756:	90 91 03 04 	lds	r25, 0x0403	; 0x800403 <bdmresp+0x1>
    175a:	82 0f       	add	r24, r18
    175c:	91 1d       	adc	r25, r1
    175e:	90 93 03 04 	sts	0x0403, r25	; 0x800403 <bdmresp+0x1>
    1762:	80 93 02 04 	sts	0x0402, r24	; 0x800402 <bdmresp>
    1766:	10 92 c1 00 	sts	0x00C1, r1	; 0x8000c1 <__TEXT_REGION_LENGTH__+0x7e00c1>
    176a:	10 92 c2 00 	sts	0x00C2, r1	; 0x8000c2 <__TEXT_REGION_LENGTH__+0x7e00c2>
    176e:	06 cf       	rjmp	.-500    	; 0x157c <Exec_WriteCMD+0x78>

00001770 <Exec_ReadCMD>:
    1770:	fc 01       	movw	r30, r24
    1772:	9b b1       	in	r25, 0x0b	; 11
    1774:	9d 7e       	andi	r25, 0xED	; 237
    1776:	9b b9       	out	0x0b, r25	; 11
    1778:	00 00       	nop
    177a:	99 b1       	in	r25, 0x09	; 9
    177c:	91 70       	andi	r25, 0x01	; 1
    177e:	90 93 06 04 	sts	0x0406, r25	; 0x800406 <Attn>
    1782:	83 ec       	ldi	r24, 0xC3	; 195
    1784:	80 93 c2 00 	sts	0x00C2, r24	; 0x8000c2 <__TEXT_REGION_LENGTH__+0x7e00c2>
    1788:	88 e1       	ldi	r24, 0x18	; 24
    178a:	80 93 c1 00 	sts	0x00C1, r24	; 0x8000c1 <__TEXT_REGION_LENGTH__+0x7e00c1>
    178e:	50 93 c6 00 	sts	0x00C6, r21	; 0x8000c6 <__TEXT_REGION_LENGTH__+0x7e00c6>
    1792:	90 91 c0 00 	lds	r25, 0x00C0	; 0x8000c0 <__TEXT_REGION_LENGTH__+0x7e00c0>
    1796:	97 ff       	sbrs	r25, 7
    1798:	fc cf       	rjmp	.-8      	; 0x1792 <Exec_ReadCMD+0x22>
    179a:	80 91 c6 00 	lds	r24, 0x00C6	; 0x8000c6 <__TEXT_REGION_LENGTH__+0x7e00c6>
    179e:	10 92 02 04 	sts	0x0402, r1	; 0x800402 <bdmresp>
    17a2:	80 93 03 04 	sts	0x0403, r24	; 0x800403 <bdmresp+0x1>
    17a6:	40 93 c6 00 	sts	0x00C6, r20	; 0x8000c6 <__TEXT_REGION_LENGTH__+0x7e00c6>
    17aa:	90 91 c0 00 	lds	r25, 0x00C0	; 0x8000c0 <__TEXT_REGION_LENGTH__+0x7e00c0>
    17ae:	97 ff       	sbrs	r25, 7
    17b0:	fc cf       	rjmp	.-8      	; 0x17aa <Exec_ReadCMD+0x3a>
    17b2:	80 91 c6 00 	lds	r24, 0x00C6	; 0x8000c6 <__TEXT_REGION_LENGTH__+0x7e00c6>
    17b6:	20 91 02 04 	lds	r18, 0x0402	; 0x800402 <bdmresp>
    17ba:	30 91 03 04 	lds	r19, 0x0403	; 0x800403 <bdmresp+0x1>
    17be:	28 0f       	add	r18, r24
    17c0:	31 1d       	adc	r19, r1
    17c2:	30 93 03 04 	sts	0x0403, r19	; 0x800403 <bdmresp+0x1>
    17c6:	20 93 02 04 	sts	0x0402, r18	; 0x800402 <bdmresp>
    17ca:	10 92 c1 00 	sts	0x00C1, r1	; 0x8000c1 <__TEXT_REGION_LENGTH__+0x7e00c1>
    17ce:	10 92 c2 00 	sts	0x00C2, r1	; 0x8000c2 <__TEXT_REGION_LENGTH__+0x7e00c2>
    17d2:	30 97       	sbiw	r30, 0x00	; 0
    17d4:	21 f4       	brne	.+8      	; 0x17de <Exec_ReadCMD+0x6e>
    17d6:	61 15       	cp	r22, r1
    17d8:	71 05       	cpc	r23, r1
    17da:	09 f4       	brne	.+2      	; 0x17de <Exec_ReadCMD+0x6e>
    17dc:	60 c0       	rjmp	.+192    	; 0x189e <Exec_ReadCMD+0x12e>
    17de:	8b b1       	in	r24, 0x0b	; 11
    17e0:	8d 7e       	andi	r24, 0xED	; 237
    17e2:	8b b9       	out	0x0b, r24	; 11
    17e4:	00 00       	nop
    17e6:	89 b1       	in	r24, 0x09	; 9
    17e8:	81 70       	andi	r24, 0x01	; 1
    17ea:	80 93 06 04 	sts	0x0406, r24	; 0x800406 <Attn>
    17ee:	83 ec       	ldi	r24, 0xC3	; 195
    17f0:	80 93 c2 00 	sts	0x00C2, r24	; 0x8000c2 <__TEXT_REGION_LENGTH__+0x7e00c2>
    17f4:	88 e1       	ldi	r24, 0x18	; 24
    17f6:	80 93 c1 00 	sts	0x00C1, r24	; 0x8000c1 <__TEXT_REGION_LENGTH__+0x7e00c1>
    17fa:	f0 93 c6 00 	sts	0x00C6, r31	; 0x8000c6 <__TEXT_REGION_LENGTH__+0x7e00c6>
    17fe:	90 91 c0 00 	lds	r25, 0x00C0	; 0x8000c0 <__TEXT_REGION_LENGTH__+0x7e00c0>
    1802:	97 ff       	sbrs	r25, 7
    1804:	fc cf       	rjmp	.-8      	; 0x17fe <Exec_ReadCMD+0x8e>
    1806:	80 91 c6 00 	lds	r24, 0x00C6	; 0x8000c6 <__TEXT_REGION_LENGTH__+0x7e00c6>
    180a:	10 92 02 04 	sts	0x0402, r1	; 0x800402 <bdmresp>
    180e:	80 93 03 04 	sts	0x0403, r24	; 0x800403 <bdmresp+0x1>
    1812:	e0 93 c6 00 	sts	0x00C6, r30	; 0x8000c6 <__TEXT_REGION_LENGTH__+0x7e00c6>
    1816:	80 91 c0 00 	lds	r24, 0x00C0	; 0x8000c0 <__TEXT_REGION_LENGTH__+0x7e00c0>
    181a:	87 ff       	sbrs	r24, 7
    181c:	fc cf       	rjmp	.-8      	; 0x1816 <Exec_ReadCMD+0xa6>
    181e:	20 91 c6 00 	lds	r18, 0x00C6	; 0x8000c6 <__TEXT_REGION_LENGTH__+0x7e00c6>
    1822:	80 91 02 04 	lds	r24, 0x0402	; 0x800402 <bdmresp>
    1826:	90 91 03 04 	lds	r25, 0x0403	; 0x800403 <bdmresp+0x1>
    182a:	82 0f       	add	r24, r18
    182c:	91 1d       	adc	r25, r1
    182e:	90 93 03 04 	sts	0x0403, r25	; 0x800403 <bdmresp+0x1>
    1832:	80 93 02 04 	sts	0x0402, r24	; 0x800402 <bdmresp>
    1836:	10 92 c1 00 	sts	0x00C1, r1	; 0x8000c1 <__TEXT_REGION_LENGTH__+0x7e00c1>
    183a:	10 92 c2 00 	sts	0x00C2, r1	; 0x8000c2 <__TEXT_REGION_LENGTH__+0x7e00c2>
    183e:	8b b1       	in	r24, 0x0b	; 11
    1840:	8d 7e       	andi	r24, 0xED	; 237
    1842:	8b b9       	out	0x0b, r24	; 11
    1844:	00 00       	nop
    1846:	89 b1       	in	r24, 0x09	; 9
    1848:	81 70       	andi	r24, 0x01	; 1
    184a:	80 93 06 04 	sts	0x0406, r24	; 0x800406 <Attn>
    184e:	83 ec       	ldi	r24, 0xC3	; 195
    1850:	80 93 c2 00 	sts	0x00C2, r24	; 0x8000c2 <__TEXT_REGION_LENGTH__+0x7e00c2>
    1854:	88 e1       	ldi	r24, 0x18	; 24
    1856:	80 93 c1 00 	sts	0x00C1, r24	; 0x8000c1 <__TEXT_REGION_LENGTH__+0x7e00c1>
    185a:	70 93 c6 00 	sts	0x00C6, r23	; 0x8000c6 <__TEXT_REGION_LENGTH__+0x7e00c6>
    185e:	80 91 c0 00 	lds	r24, 0x00C0	; 0x8000c0 <__TEXT_REGION_LENGTH__+0x7e00c0>
    1862:	87 ff       	sbrs	r24, 7
    1864:	fc cf       	rjmp	.-8      	; 0x185e <Exec_ReadCMD+0xee>
    1866:	80 91 c6 00 	lds	r24, 0x00C6	; 0x8000c6 <__TEXT_REGION_LENGTH__+0x7e00c6>
    186a:	10 92 02 04 	sts	0x0402, r1	; 0x800402 <bdmresp>
    186e:	80 93 03 04 	sts	0x0403, r24	; 0x800403 <bdmresp+0x1>
    1872:	60 93 c6 00 	sts	0x00C6, r22	; 0x8000c6 <__TEXT_REGION_LENGTH__+0x7e00c6>
    1876:	80 91 c0 00 	lds	r24, 0x00C0	; 0x8000c0 <__TEXT_REGION_LENGTH__+0x7e00c0>
    187a:	87 ff       	sbrs	r24, 7
    187c:	fc cf       	rjmp	.-8      	; 0x1876 <Exec_ReadCMD+0x106>
    187e:	20 91 c6 00 	lds	r18, 0x00C6	; 0x8000c6 <__TEXT_REGION_LENGTH__+0x7e00c6>
    1882:	80 91 02 04 	lds	r24, 0x0402	; 0x800402 <bdmresp>
    1886:	90 91 03 04 	lds	r25, 0x0403	; 0x800403 <bdmresp+0x1>
    188a:	82 0f       	add	r24, r18
    188c:	91 1d       	adc	r25, r1
    188e:	90 93 03 04 	sts	0x0403, r25	; 0x800403 <bdmresp+0x1>
    1892:	80 93 02 04 	sts	0x0402, r24	; 0x800402 <bdmresp>
    1896:	10 92 c1 00 	sts	0x00C1, r1	; 0x8000c1 <__TEXT_REGION_LENGTH__+0x7e00c1>
    189a:	10 92 c2 00 	sts	0x00C2, r1	; 0x8000c2 <__TEXT_REGION_LENGTH__+0x7e00c2>
    189e:	47 ff       	sbrs	r20, 7
    18a0:	56 c0       	rjmp	.+172    	; 0x194e <Exec_ReadCMD+0x1de>
    18a2:	8b b1       	in	r24, 0x0b	; 11
    18a4:	8d 7e       	andi	r24, 0xED	; 237
    18a6:	8b b9       	out	0x0b, r24	; 11
    18a8:	00 00       	nop
    18aa:	48 9b       	sbis	0x09, 0	; 9
    18ac:	20 c0       	rjmp	.+64     	; 0x18ee <Exec_ReadCMD+0x17e>
    18ae:	23 ec       	ldi	r18, 0xC3	; 195
    18b0:	98 e1       	ldi	r25, 0x18	; 24
    18b2:	20 93 c2 00 	sts	0x00C2, r18	; 0x8000c2 <__TEXT_REGION_LENGTH__+0x7e00c2>
    18b6:	90 93 c1 00 	sts	0x00C1, r25	; 0x8000c1 <__TEXT_REGION_LENGTH__+0x7e00c1>
    18ba:	10 92 c6 00 	sts	0x00C6, r1	; 0x8000c6 <__TEXT_REGION_LENGTH__+0x7e00c6>
    18be:	80 91 c0 00 	lds	r24, 0x00C0	; 0x8000c0 <__TEXT_REGION_LENGTH__+0x7e00c0>
    18c2:	87 ff       	sbrs	r24, 7
    18c4:	fc cf       	rjmp	.-8      	; 0x18be <Exec_ReadCMD+0x14e>
    18c6:	80 91 c6 00 	lds	r24, 0x00C6	; 0x8000c6 <__TEXT_REGION_LENGTH__+0x7e00c6>
    18ca:	10 92 c6 00 	sts	0x00C6, r1	; 0x8000c6 <__TEXT_REGION_LENGTH__+0x7e00c6>
    18ce:	80 91 c0 00 	lds	r24, 0x00C0	; 0x8000c0 <__TEXT_REGION_LENGTH__+0x7e00c0>
    18d2:	87 ff       	sbrs	r24, 7
    18d4:	fc cf       	rjmp	.-8      	; 0x18ce <Exec_ReadCMD+0x15e>
    18d6:	80 91 c6 00 	lds	r24, 0x00C6	; 0x8000c6 <__TEXT_REGION_LENGTH__+0x7e00c6>
    18da:	10 92 c1 00 	sts	0x00C1, r1	; 0x8000c1 <__TEXT_REGION_LENGTH__+0x7e00c1>
    18de:	10 92 c2 00 	sts	0x00C2, r1	; 0x8000c2 <__TEXT_REGION_LENGTH__+0x7e00c2>
    18e2:	8b b1       	in	r24, 0x0b	; 11
    18e4:	8d 7e       	andi	r24, 0xED	; 237
    18e6:	8b b9       	out	0x0b, r24	; 11
    18e8:	00 00       	nop
    18ea:	48 99       	sbic	0x09, 0	; 9
    18ec:	e2 cf       	rjmp	.-60     	; 0x18b2 <Exec_ReadCMD+0x142>
    18ee:	83 ec       	ldi	r24, 0xC3	; 195
    18f0:	80 93 c2 00 	sts	0x00C2, r24	; 0x8000c2 <__TEXT_REGION_LENGTH__+0x7e00c2>
    18f4:	88 e1       	ldi	r24, 0x18	; 24
    18f6:	80 93 c1 00 	sts	0x00C1, r24	; 0x8000c1 <__TEXT_REGION_LENGTH__+0x7e00c1>
    18fa:	10 92 c6 00 	sts	0x00C6, r1	; 0x8000c6 <__TEXT_REGION_LENGTH__+0x7e00c6>
    18fe:	80 91 c0 00 	lds	r24, 0x00C0	; 0x8000c0 <__TEXT_REGION_LENGTH__+0x7e00c0>
    1902:	87 ff       	sbrs	r24, 7
    1904:	fc cf       	rjmp	.-8      	; 0x18fe <Exec_ReadCMD+0x18e>
    1906:	80 91 c6 00 	lds	r24, 0x00C6	; 0x8000c6 <__TEXT_REGION_LENGTH__+0x7e00c6>
    190a:	10 92 02 04 	sts	0x0402, r1	; 0x800402 <bdmresp>
    190e:	80 93 03 04 	sts	0x0403, r24	; 0x800403 <bdmresp+0x1>
    1912:	10 92 c6 00 	sts	0x00C6, r1	; 0x8000c6 <__TEXT_REGION_LENGTH__+0x7e00c6>
    1916:	80 91 c0 00 	lds	r24, 0x00C0	; 0x8000c0 <__TEXT_REGION_LENGTH__+0x7e00c0>
    191a:	87 ff       	sbrs	r24, 7
    191c:	fc cf       	rjmp	.-8      	; 0x1916 <Exec_ReadCMD+0x1a6>
    191e:	20 91 c6 00 	lds	r18, 0x00C6	; 0x8000c6 <__TEXT_REGION_LENGTH__+0x7e00c6>
    1922:	80 91 02 04 	lds	r24, 0x0402	; 0x800402 <bdmresp>
    1926:	90 91 03 04 	lds	r25, 0x0403	; 0x800403 <bdmresp+0x1>
    192a:	82 0f       	add	r24, r18
    192c:	91 1d       	adc	r25, r1
    192e:	90 93 03 04 	sts	0x0403, r25	; 0x800403 <bdmresp+0x1>
    1932:	80 93 02 04 	sts	0x0402, r24	; 0x800402 <bdmresp>
    1936:	10 92 c1 00 	sts	0x00C1, r1	; 0x8000c1 <__TEXT_REGION_LENGTH__+0x7e00c1>
    193a:	10 92 c2 00 	sts	0x00C2, r1	; 0x8000c2 <__TEXT_REGION_LENGTH__+0x7e00c2>
    193e:	80 91 02 04 	lds	r24, 0x0402	; 0x800402 <bdmresp>
    1942:	90 91 03 04 	lds	r25, 0x0403	; 0x800403 <bdmresp+0x1>
    1946:	90 93 05 04 	sts	0x0405, r25	; 0x800405 <bdmresp32+0x1>
    194a:	80 93 04 04 	sts	0x0404, r24	; 0x800404 <bdmresp32>
    194e:	8b b1       	in	r24, 0x0b	; 11
    1950:	8d 7e       	andi	r24, 0xED	; 237
    1952:	8b b9       	out	0x0b, r24	; 11
    1954:	00 00       	nop
    1956:	48 9b       	sbis	0x09, 0	; 9
    1958:	20 c0       	rjmp	.+64     	; 0x199a <Exec_ReadCMD+0x22a>
    195a:	23 ec       	ldi	r18, 0xC3	; 195
    195c:	98 e1       	ldi	r25, 0x18	; 24
    195e:	20 93 c2 00 	sts	0x00C2, r18	; 0x8000c2 <__TEXT_REGION_LENGTH__+0x7e00c2>
    1962:	90 93 c1 00 	sts	0x00C1, r25	; 0x8000c1 <__TEXT_REGION_LENGTH__+0x7e00c1>
    1966:	10 92 c6 00 	sts	0x00C6, r1	; 0x8000c6 <__TEXT_REGION_LENGTH__+0x7e00c6>
    196a:	80 91 c0 00 	lds	r24, 0x00C0	; 0x8000c0 <__TEXT_REGION_LENGTH__+0x7e00c0>
    196e:	87 ff       	sbrs	r24, 7
    1970:	fc cf       	rjmp	.-8      	; 0x196a <Exec_ReadCMD+0x1fa>
    1972:	80 91 c6 00 	lds	r24, 0x00C6	; 0x8000c6 <__TEXT_REGION_LENGTH__+0x7e00c6>
    1976:	10 92 c6 00 	sts	0x00C6, r1	; 0x8000c6 <__TEXT_REGION_LENGTH__+0x7e00c6>
    197a:	80 91 c0 00 	lds	r24, 0x00C0	; 0x8000c0 <__TEXT_REGION_LENGTH__+0x7e00c0>
    197e:	87 ff       	sbrs	r24, 7
    1980:	fc cf       	rjmp	.-8      	; 0x197a <Exec_ReadCMD+0x20a>
    1982:	80 91 c6 00 	lds	r24, 0x00C6	; 0x8000c6 <__TEXT_REGION_LENGTH__+0x7e00c6>
    1986:	10 92 c1 00 	sts	0x00C1, r1	; 0x8000c1 <__TEXT_REGION_LENGTH__+0x7e00c1>
    198a:	10 92 c2 00 	sts	0x00C2, r1	; 0x8000c2 <__TEXT_REGION_LENGTH__+0x7e00c2>
    198e:	8b b1       	in	r24, 0x0b	; 11
    1990:	8d 7e       	andi	r24, 0xED	; 237
    1992:	8b b9       	out	0x0b, r24	; 11
    1994:	00 00       	nop
    1996:	48 99       	sbic	0x09, 0	; 9
    1998:	e2 cf       	rjmp	.-60     	; 0x195e <Exec_ReadCMD+0x1ee>
    199a:	83 ec       	ldi	r24, 0xC3	; 195
    199c:	80 93 c2 00 	sts	0x00C2, r24	; 0x8000c2 <__TEXT_REGION_LENGTH__+0x7e00c2>
    19a0:	88 e1       	ldi	r24, 0x18	; 24
    19a2:	80 93 c1 00 	sts	0x00C1, r24	; 0x8000c1 <__TEXT_REGION_LENGTH__+0x7e00c1>
    19a6:	10 92 c6 00 	sts	0x00C6, r1	; 0x8000c6 <__TEXT_REGION_LENGTH__+0x7e00c6>
    19aa:	80 91 c0 00 	lds	r24, 0x00C0	; 0x8000c0 <__TEXT_REGION_LENGTH__+0x7e00c0>
    19ae:	87 ff       	sbrs	r24, 7
    19b0:	fc cf       	rjmp	.-8      	; 0x19aa <Exec_ReadCMD+0x23a>
    19b2:	80 91 c6 00 	lds	r24, 0x00C6	; 0x8000c6 <__TEXT_REGION_LENGTH__+0x7e00c6>
    19b6:	10 92 02 04 	sts	0x0402, r1	; 0x800402 <bdmresp>
    19ba:	80 93 03 04 	sts	0x0403, r24	; 0x800403 <bdmresp+0x1>
    19be:	10 92 c6 00 	sts	0x00C6, r1	; 0x8000c6 <__TEXT_REGION_LENGTH__+0x7e00c6>
    19c2:	80 91 c0 00 	lds	r24, 0x00C0	; 0x8000c0 <__TEXT_REGION_LENGTH__+0x7e00c0>
    19c6:	87 ff       	sbrs	r24, 7
    19c8:	fc cf       	rjmp	.-8      	; 0x19c2 <Exec_ReadCMD+0x252>
    19ca:	20 91 c6 00 	lds	r18, 0x00C6	; 0x8000c6 <__TEXT_REGION_LENGTH__+0x7e00c6>
    19ce:	80 91 02 04 	lds	r24, 0x0402	; 0x800402 <bdmresp>
    19d2:	90 91 03 04 	lds	r25, 0x0403	; 0x800403 <bdmresp+0x1>
    19d6:	82 0f       	add	r24, r18
    19d8:	91 1d       	adc	r25, r1
    19da:	90 93 03 04 	sts	0x0403, r25	; 0x800403 <bdmresp+0x1>
    19de:	80 93 02 04 	sts	0x0402, r24	; 0x800402 <bdmresp>
    19e2:	10 92 c1 00 	sts	0x00C1, r1	; 0x8000c1 <__TEXT_REGION_LENGTH__+0x7e00c1>
    19e6:	10 92 c2 00 	sts	0x00C2, r1	; 0x8000c2 <__TEXT_REGION_LENGTH__+0x7e00c2>
    19ea:	80 91 02 04 	lds	r24, 0x0402	; 0x800402 <bdmresp>
    19ee:	90 91 03 04 	lds	r25, 0x0403	; 0x800403 <bdmresp+0x1>
    19f2:	90 93 2d 06 	sts	0x062D, r25	; 0x80062d <bdmresp16+0x1>
    19f6:	80 93 2c 06 	sts	0x062C, r24	; 0x80062c <bdmresp16>
    19fa:	08 95       	ret

000019fc <LDRWriteMCP>:
    19fc:	af 92       	push	r10
    19fe:	bf 92       	push	r11
    1a00:	cf 92       	push	r12
    1a02:	df 92       	push	r13
    1a04:	ef 92       	push	r14
    1a06:	ff 92       	push	r15
    1a08:	0f 93       	push	r16
    1a0a:	1f 93       	push	r17
    1a0c:	cf 93       	push	r28
    1a0e:	df 93       	push	r29
    1a10:	00 d0       	rcall	.+0      	; 0x1a12 <LDRWriteMCP+0x16>
    1a12:	00 d0       	rcall	.+0      	; 0x1a14 <LDRWriteMCP+0x18>
    1a14:	cd b7       	in	r28, 0x3d	; 61
    1a16:	de b7       	in	r29, 0x3e	; 62
    1a18:	41 e0       	ldi	r20, 0x01	; 1
    1a1a:	64 e4       	ldi	r22, 0x44	; 68
    1a1c:	71 e0       	ldi	r23, 0x01	; 1
    1a1e:	89 e0       	ldi	r24, 0x09	; 9
    1a20:	94 e0       	ldi	r25, 0x04	; 4
    1a22:	0e 94 f0 22 	call	0x45e0	; 0x45e0 <f_open>
    1a26:	88 23       	and	r24, r24
    1a28:	81 f0       	breq	.+32     	; 0x1a4a <LDRWriteMCP+0x4e>
    1a2a:	80 e0       	ldi	r24, 0x00	; 0
    1a2c:	0f 90       	pop	r0
    1a2e:	0f 90       	pop	r0
    1a30:	0f 90       	pop	r0
    1a32:	0f 90       	pop	r0
    1a34:	df 91       	pop	r29
    1a36:	cf 91       	pop	r28
    1a38:	1f 91       	pop	r17
    1a3a:	0f 91       	pop	r16
    1a3c:	ff 90       	pop	r15
    1a3e:	ef 90       	pop	r14
    1a40:	df 90       	pop	r13
    1a42:	cf 90       	pop	r12
    1a44:	bf 90       	pop	r11
    1a46:	af 90       	pop	r10
    1a48:	08 95       	ret
    1a4a:	40 e0       	ldi	r20, 0x00	; 0
    1a4c:	62 e0       	ldi	r22, 0x02	; 2
    1a4e:	83 e0       	ldi	r24, 0x03	; 3
    1a50:	0e 94 73 36 	call	0x6ce6	; 0x6ce6 <SetPinDir>
    1a54:	01 e0       	ldi	r16, 0x01	; 1
    1a56:	10 e0       	ldi	r17, 0x00	; 0
    1a58:	20 e0       	ldi	r18, 0x00	; 0
    1a5a:	30 e0       	ldi	r19, 0x00	; 0
    1a5c:	40 e8       	ldi	r20, 0x80	; 128
    1a5e:	50 e2       	ldi	r21, 0x20	; 32
    1a60:	60 e0       	ldi	r22, 0x00	; 0
    1a62:	70 e0       	ldi	r23, 0x00	; 0
    1a64:	80 e0       	ldi	r24, 0x00	; 0
    1a66:	90 e0       	ldi	r25, 0x00	; 0
    1a68:	0e 94 82 0a 	call	0x1504	; 0x1504 <Exec_WriteCMD>
    1a6c:	00 e0       	ldi	r16, 0x00	; 0
    1a6e:	10 e0       	ldi	r17, 0x00	; 0
    1a70:	20 e0       	ldi	r18, 0x00	; 0
    1a72:	30 e0       	ldi	r19, 0x00	; 0
    1a74:	48 e8       	ldi	r20, 0x88	; 136
    1a76:	50 e2       	ldi	r21, 0x20	; 32
    1a78:	60 e0       	ldi	r22, 0x00	; 0
    1a7a:	70 e0       	ldi	r23, 0x00	; 0
    1a7c:	80 e0       	ldi	r24, 0x00	; 0
    1a7e:	90 e0       	ldi	r25, 0x00	; 0
    1a80:	0e 94 82 0a 	call	0x1504	; 0x1504 <Exec_WriteCMD>
    1a84:	e1 2c       	mov	r14, r1
    1a86:	ff 24       	eor	r15, r15
    1a88:	f3 94       	inc	r15
    1a8a:	c1 2c       	mov	r12, r1
    1a8c:	d1 2c       	mov	r13, r1
    1a8e:	a1 2c       	mov	r10, r1
    1a90:	b1 2c       	mov	r11, r1
    1a92:	00 e0       	ldi	r16, 0x00	; 0
    1a94:	10 e0       	ldi	r17, 0x00	; 0
    1a96:	20 e0       	ldi	r18, 0x00	; 0
    1a98:	30 e0       	ldi	r19, 0x00	; 0
    1a9a:	40 e8       	ldi	r20, 0x80	; 128
    1a9c:	58 e1       	ldi	r21, 0x18	; 24
    1a9e:	6c ef       	ldi	r22, 0xFC	; 252
    1aa0:	7f ef       	ldi	r23, 0xFF	; 255
    1aa2:	8f e0       	ldi	r24, 0x0F	; 15
    1aa4:	90 e0       	ldi	r25, 0x00	; 0
    1aa6:	0e 94 82 0a 	call	0x1504	; 0x1504 <Exec_WriteCMD>
    1aaa:	27 e0       	ldi	r18, 0x07	; 7
    1aac:	34 e0       	ldi	r19, 0x04	; 4
    1aae:	44 e0       	ldi	r20, 0x04	; 4
    1ab0:	50 e0       	ldi	r21, 0x00	; 0
    1ab2:	be 01       	movw	r22, r28
    1ab4:	6f 5f       	subi	r22, 0xFF	; 255
    1ab6:	7f 4f       	sbci	r23, 0xFF	; 255
    1ab8:	89 e0       	ldi	r24, 0x09	; 9
    1aba:	94 e0       	ldi	r25, 0x04	; 4
    1abc:	0e 94 b6 2c 	call	0x596c	; 0x596c <f_read>
    1ac0:	80 91 07 04 	lds	r24, 0x0407	; 0x800407 <bw>
    1ac4:	90 91 08 04 	lds	r25, 0x0408	; 0x800408 <bw+0x1>
    1ac8:	04 97       	sbiw	r24, 0x04	; 4
    1aca:	09 f0       	breq	.+2      	; 0x1ace <LDRWriteMCP+0xd2>
    1acc:	ae cf       	rjmp	.-164    	; 0x1a2a <LDRWriteMCP+0x2e>
    1ace:	ce 01       	movw	r24, r28
    1ad0:	01 96       	adiw	r24, 0x01	; 1
    1ad2:	0e 94 f3 09 	call	0x13e6	; 0x13e6 <Exec_FillCMD_p>
    1ad6:	0f 5f       	subi	r16, 0xFF	; 255
    1ad8:	1f 4f       	sbci	r17, 0xFF	; 255
    1ada:	0e 15       	cp	r16, r14
    1adc:	1f 05       	cpc	r17, r15
    1ade:	29 f7       	brne	.-54     	; 0x1aaa <LDRWriteMCP+0xae>
    1ae0:	00 e0       	ldi	r16, 0x00	; 0
    1ae2:	14 e0       	ldi	r17, 0x04	; 4
    1ae4:	20 e1       	ldi	r18, 0x10	; 16
    1ae6:	30 e0       	ldi	r19, 0x00	; 0
    1ae8:	40 e8       	ldi	r20, 0x80	; 128
    1aea:	54 e2       	ldi	r21, 0x24	; 36
    1aec:	60 e0       	ldi	r22, 0x00	; 0
    1aee:	70 e0       	ldi	r23, 0x00	; 0
    1af0:	80 e0       	ldi	r24, 0x00	; 0
    1af2:	90 e0       	ldi	r25, 0x00	; 0
    1af4:	0e 94 82 0a 	call	0x1504	; 0x1504 <Exec_WriteCMD>
    1af8:	00 e0       	ldi	r16, 0x00	; 0
    1afa:	10 e0       	ldi	r17, 0x00	; 0
    1afc:	20 e0       	ldi	r18, 0x00	; 0
    1afe:	30 e0       	ldi	r19, 0x00	; 0
    1b00:	40 e0       	ldi	r20, 0x00	; 0
    1b02:	50 e0       	ldi	r21, 0x00	; 0
    1b04:	60 e0       	ldi	r22, 0x00	; 0
    1b06:	70 e0       	ldi	r23, 0x00	; 0
    1b08:	80 e0       	ldi	r24, 0x00	; 0
    1b0a:	90 e0       	ldi	r25, 0x00	; 0
    1b0c:	0e 94 82 0a 	call	0x1504	; 0x1504 <Exec_WriteCMD>
    1b10:	80 e0       	ldi	r24, 0x00	; 0
    1b12:	9c e0       	ldi	r25, 0x0C	; 12
    1b14:	0e 94 fd 04 	call	0x9fa	; 0x9fa <ShiftData_s>
    1b18:	8c ef       	ldi	r24, 0xFC	; 252
    1b1a:	d8 1a       	sub	r13, r24
    1b1c:	c1 14       	cp	r12, r1
    1b1e:	d1 04       	cpc	r13, r1
    1b20:	09 f4       	brne	.+2      	; 0x1b24 <LDRWriteMCP+0x128>
    1b22:	3d c0       	rjmp	.+122    	; 0x1b9e <LDRWriteMCP+0x1a2>
    1b24:	84 e0       	ldi	r24, 0x04	; 4
    1b26:	a8 16       	cp	r10, r24
    1b28:	b1 04       	cpc	r11, r1
    1b2a:	09 f4       	brne	.+2      	; 0x1b2e <LDRWriteMCP+0x132>
    1b2c:	40 c0       	rjmp	.+128    	; 0x1bae <LDRWriteMCP+0x1b2>
    1b2e:	08 e0       	ldi	r16, 0x08	; 8
    1b30:	10 e0       	ldi	r17, 0x00	; 0
    1b32:	03 c0       	rjmp	.+6      	; 0x1b3a <LDRWriteMCP+0x13e>
    1b34:	01 50       	subi	r16, 0x01	; 1
    1b36:	11 09       	sbc	r17, r1
    1b38:	a1 f0       	breq	.+40     	; 0x1b62 <LDRWriteMCP+0x166>
    1b3a:	62 e0       	ldi	r22, 0x02	; 2
    1b3c:	83 e0       	ldi	r24, 0x03	; 3
    1b3e:	0e 94 d7 36 	call	0x6dae	; 0x6dae <ReadPin>
    1b42:	88 23       	and	r24, r24
    1b44:	b9 f3       	breq	.-18     	; 0x1b34 <LDRWriteMCP+0x138>
    1b46:	67 e0       	ldi	r22, 0x07	; 7
    1b48:	83 e0       	ldi	r24, 0x03	; 3
    1b4a:	0e 94 d7 36 	call	0x6dae	; 0x6dae <ReadPin>
    1b4e:	81 11       	cpse	r24, r1
    1b50:	f1 cf       	rjmp	.-30     	; 0x1b34 <LDRWriteMCP+0x138>
    1b52:	08 30       	cpi	r16, 0x08	; 8
    1b54:	11 05       	cpc	r17, r1
    1b56:	01 f1       	breq	.+64     	; 0x1b98 <LDRWriteMCP+0x19c>
    1b58:	0e 5f       	subi	r16, 0xFE	; 254
    1b5a:	1f 4f       	sbci	r17, 0xFF	; 255
    1b5c:	01 50       	subi	r16, 0x01	; 1
    1b5e:	11 09       	sbc	r17, r1
    1b60:	61 f7       	brne	.-40     	; 0x1b3a <LDRWriteMCP+0x13e>
    1b62:	40 e8       	ldi	r20, 0x80	; 128
    1b64:	51 e2       	ldi	r21, 0x21	; 33
    1b66:	60 e0       	ldi	r22, 0x00	; 0
    1b68:	70 e0       	ldi	r23, 0x00	; 0
    1b6a:	80 e0       	ldi	r24, 0x00	; 0
    1b6c:	90 e0       	ldi	r25, 0x00	; 0
    1b6e:	0e 94 b8 0b 	call	0x1770	; 0x1770 <Exec_ReadCMD>
    1b72:	80 91 2c 06 	lds	r24, 0x062C	; 0x80062c <bdmresp16>
    1b76:	90 91 2d 06 	lds	r25, 0x062D	; 0x80062d <bdmresp16+0x1>
    1b7a:	01 97       	sbiw	r24, 0x01	; 1
    1b7c:	09 f0       	breq	.+2      	; 0x1b80 <LDRWriteMCP+0x184>
    1b7e:	55 cf       	rjmp	.-342    	; 0x1a2a <LDRWriteMCP+0x2e>
    1b80:	84 e0       	ldi	r24, 0x04	; 4
    1b82:	a8 16       	cp	r10, r24
    1b84:	b1 04       	cpc	r11, r1
    1b86:	09 f0       	breq	.+2      	; 0x1b8a <LDRWriteMCP+0x18e>
    1b88:	84 cf       	rjmp	.-248    	; 0x1a92 <LDRWriteMCP+0x96>
    1b8a:	81 e0       	ldi	r24, 0x01	; 1
    1b8c:	c8 16       	cp	r12, r24
    1b8e:	d8 06       	cpc	r13, r24
    1b90:	08 f4       	brcc	.+2      	; 0x1b94 <LDRWriteMCP+0x198>
    1b92:	7f cf       	rjmp	.-258    	; 0x1a92 <LDRWriteMCP+0x96>
    1b94:	81 e0       	ldi	r24, 0x01	; 1
    1b96:	4a cf       	rjmp	.-364    	; 0x1a2c <LDRWriteMCP+0x30>
    1b98:	07 e0       	ldi	r16, 0x07	; 7
    1b9a:	10 e0       	ldi	r17, 0x00	; 0
    1b9c:	ce cf       	rjmp	.-100    	; 0x1b3a <LDRWriteMCP+0x13e>
    1b9e:	8f ef       	ldi	r24, 0xFF	; 255
    1ba0:	a8 1a       	sub	r10, r24
    1ba2:	b8 0a       	sbc	r11, r24
    1ba4:	84 e0       	ldi	r24, 0x04	; 4
    1ba6:	a8 16       	cp	r10, r24
    1ba8:	b1 04       	cpc	r11, r1
    1baa:	09 f0       	breq	.+2      	; 0x1bae <LDRWriteMCP+0x1b2>
    1bac:	c0 cf       	rjmp	.-128    	; 0x1b2e <LDRWriteMCP+0x132>
    1bae:	80 e4       	ldi	r24, 0x40	; 64
    1bb0:	e8 2e       	mov	r14, r24
    1bb2:	f1 2c       	mov	r15, r1
    1bb4:	bc cf       	rjmp	.-136    	; 0x1b2e <LDRWriteMCP+0x132>

00001bb6 <Flash>:
    1bb6:	9f 92       	push	r9
    1bb8:	af 92       	push	r10
    1bba:	bf 92       	push	r11
    1bbc:	cf 92       	push	r12
    1bbe:	df 92       	push	r13
    1bc0:	ef 92       	push	r14
    1bc2:	ff 92       	push	r15
    1bc4:	0f 93       	push	r16
    1bc6:	1f 93       	push	r17
    1bc8:	cf 93       	push	r28
    1bca:	df 93       	push	r29
    1bcc:	00 d0       	rcall	.+0      	; 0x1bce <Flash+0x18>
    1bce:	00 d0       	rcall	.+0      	; 0x1bd0 <Flash+0x1a>
    1bd0:	cd b7       	in	r28, 0x3d	; 61
    1bd2:	de b7       	in	r29, 0x3e	; 62
    1bd4:	6c 01       	movw	r12, r24
    1bd6:	8f ef       	ldi	r24, 0xFF	; 255
    1bd8:	9f ef       	ldi	r25, 0xFF	; 255
    1bda:	90 93 2b 06 	sts	0x062B, r25	; 0x80062b <BenchTime+0x1>
    1bde:	80 93 2a 06 	sts	0x062A, r24	; 0x80062a <BenchTime>
    1be2:	8c e4       	ldi	r24, 0x4C	; 76
    1be4:	91 e0       	ldi	r25, 0x01	; 1
    1be6:	0e 94 dc 3b 	call	0x77b8	; 0x77b8 <clrprintlcd>
    1bea:	00 e0       	ldi	r16, 0x00	; 0
    1bec:	10 e0       	ldi	r17, 0x00	; 0
    1bee:	20 e0       	ldi	r18, 0x00	; 0
    1bf0:	30 e0       	ldi	r19, 0x00	; 0
    1bf2:	40 e8       	ldi	r20, 0x80	; 128
    1bf4:	58 e1       	ldi	r21, 0x18	; 24
    1bf6:	6c ef       	ldi	r22, 0xFC	; 252
    1bf8:	73 e0       	ldi	r23, 0x03	; 3
    1bfa:	80 e1       	ldi	r24, 0x10	; 16
    1bfc:	90 e0       	ldi	r25, 0x00	; 0
    1bfe:	0e 94 82 0a 	call	0x1504	; 0x1504 <Exec_WriteCMD>
    1c02:	08 e6       	ldi	r16, 0x68	; 104
    1c04:	10 e0       	ldi	r17, 0x00	; 0
    1c06:	54 e5       	ldi	r21, 0x54	; 84
    1c08:	e5 2e       	mov	r14, r21
    1c0a:	54 e0       	ldi	r21, 0x04	; 4
    1c0c:	f5 2e       	mov	r15, r21
    1c0e:	f8 01       	movw	r30, r16
    1c10:	85 91       	lpm	r24, Z+
    1c12:	94 91       	lpm	r25, Z
    1c14:	9a 83       	std	Y+2, r25	; 0x02
    1c16:	89 83       	std	Y+1, r24	; 0x01
    1c18:	f8 01       	movw	r30, r16
    1c1a:	32 96       	adiw	r30, 0x02	; 2
    1c1c:	85 91       	lpm	r24, Z+
    1c1e:	94 91       	lpm	r25, Z
    1c20:	9c 83       	std	Y+4, r25	; 0x04
    1c22:	8b 83       	std	Y+3, r24	; 0x03
    1c24:	ce 01       	movw	r24, r28
    1c26:	01 96       	adiw	r24, 0x01	; 1
    1c28:	0e 94 f3 09 	call	0x13e6	; 0x13e6 <Exec_FillCMD_p>
    1c2c:	0c 5f       	subi	r16, 0xFC	; 252
    1c2e:	1f 4f       	sbci	r17, 0xFF	; 255
    1c30:	e0 16       	cp	r14, r16
    1c32:	f1 06       	cpc	r15, r17
    1c34:	61 f7       	brne	.-40     	; 0x1c0e <Flash+0x58>
    1c36:	40 e0       	ldi	r20, 0x00	; 0
    1c38:	62 e0       	ldi	r22, 0x02	; 2
    1c3a:	83 e0       	ldi	r24, 0x03	; 3
    1c3c:	0e 94 73 36 	call	0x6ce6	; 0x6ce6 <SetPinDir>
    1c40:	8f e4       	ldi	r24, 0x4F	; 79
    1c42:	91 e0       	ldi	r25, 0x01	; 1
    1c44:	0e 94 dc 3b 	call	0x77b8	; 0x77b8 <clrprintlcd>
    1c48:	03 e0       	ldi	r16, 0x03	; 3
    1c4a:	10 e0       	ldi	r17, 0x00	; 0
    1c4c:	20 e0       	ldi	r18, 0x00	; 0
    1c4e:	30 e0       	ldi	r19, 0x00	; 0
    1c50:	40 e8       	ldi	r20, 0x80	; 128
    1c52:	50 e2       	ldi	r21, 0x20	; 32
    1c54:	60 e0       	ldi	r22, 0x00	; 0
    1c56:	70 e0       	ldi	r23, 0x00	; 0
    1c58:	80 e0       	ldi	r24, 0x00	; 0
    1c5a:	90 e0       	ldi	r25, 0x00	; 0
    1c5c:	0e 94 82 0a 	call	0x1504	; 0x1504 <Exec_WriteCMD>
    1c60:	00 e0       	ldi	r16, 0x00	; 0
    1c62:	10 e0       	ldi	r17, 0x00	; 0
    1c64:	20 e0       	ldi	r18, 0x00	; 0
    1c66:	30 e0       	ldi	r19, 0x00	; 0
    1c68:	48 e8       	ldi	r20, 0x88	; 136
    1c6a:	50 e2       	ldi	r21, 0x20	; 32
    1c6c:	60 e0       	ldi	r22, 0x00	; 0
    1c6e:	70 e0       	ldi	r23, 0x00	; 0
    1c70:	80 e0       	ldi	r24, 0x00	; 0
    1c72:	90 e0       	ldi	r25, 0x00	; 0
    1c74:	0e 94 82 0a 	call	0x1504	; 0x1504 <Exec_WriteCMD>
    1c78:	20 e0       	ldi	r18, 0x00	; 0
    1c7a:	30 e0       	ldi	r19, 0x00	; 0
    1c7c:	49 e8       	ldi	r20, 0x89	; 137
    1c7e:	50 e2       	ldi	r21, 0x20	; 32
    1c80:	60 e0       	ldi	r22, 0x00	; 0
    1c82:	70 e0       	ldi	r23, 0x00	; 0
    1c84:	80 e0       	ldi	r24, 0x00	; 0
    1c86:	90 e0       	ldi	r25, 0x00	; 0
    1c88:	0e 94 82 0a 	call	0x1504	; 0x1504 <Exec_WriteCMD>
    1c8c:	00 e0       	ldi	r16, 0x00	; 0
    1c8e:	14 e0       	ldi	r17, 0x04	; 4
    1c90:	20 e1       	ldi	r18, 0x10	; 16
    1c92:	30 e0       	ldi	r19, 0x00	; 0
    1c94:	40 e8       	ldi	r20, 0x80	; 128
    1c96:	54 e2       	ldi	r21, 0x24	; 36
    1c98:	60 e0       	ldi	r22, 0x00	; 0
    1c9a:	70 e0       	ldi	r23, 0x00	; 0
    1c9c:	80 e0       	ldi	r24, 0x00	; 0
    1c9e:	90 e0       	ldi	r25, 0x00	; 0
    1ca0:	0e 94 82 0a 	call	0x1504	; 0x1504 <Exec_WriteCMD>
    1ca4:	80 e0       	ldi	r24, 0x00	; 0
    1ca6:	90 e0       	ldi	r25, 0x00	; 0
    1ca8:	0e 94 b7 08 	call	0x116e	; 0x116e <ShiftData>
    1cac:	80 e0       	ldi	r24, 0x00	; 0
    1cae:	9c e0       	ldi	r25, 0x0C	; 12
    1cb0:	0e 94 fd 04 	call	0x9fa	; 0x9fa <ShiftData_s>
    1cb4:	67 e0       	ldi	r22, 0x07	; 7
    1cb6:	83 e0       	ldi	r24, 0x03	; 3
    1cb8:	0e 94 d7 36 	call	0x6dae	; 0x6dae <ReadPin>
    1cbc:	98 2e       	mov	r9, r24
    1cbe:	81 11       	cpse	r24, r1
    1cc0:	f9 cf       	rjmp	.-14     	; 0x1cb4 <Flash+0xfe>
    1cc2:	18 e0       	ldi	r17, 0x08	; 8
    1cc4:	02 c0       	rjmp	.+4      	; 0x1cca <Flash+0x114>
    1cc6:	11 50       	subi	r17, 0x01	; 1
    1cc8:	89 f0       	breq	.+34     	; 0x1cec <Flash+0x136>
    1cca:	62 e0       	ldi	r22, 0x02	; 2
    1ccc:	83 e0       	ldi	r24, 0x03	; 3
    1cce:	0e 94 d7 36 	call	0x6dae	; 0x6dae <ReadPin>
    1cd2:	88 23       	and	r24, r24
    1cd4:	c1 f3       	breq	.-16     	; 0x1cc6 <Flash+0x110>
    1cd6:	67 e0       	ldi	r22, 0x07	; 7
    1cd8:	83 e0       	ldi	r24, 0x03	; 3
    1cda:	0e 94 d7 36 	call	0x6dae	; 0x6dae <ReadPin>
    1cde:	81 11       	cpse	r24, r1
    1ce0:	f2 cf       	rjmp	.-28     	; 0x1cc6 <Flash+0x110>
    1ce2:	18 30       	cpi	r17, 0x08	; 8
    1ce4:	01 f1       	breq	.+64     	; 0x1d26 <Flash+0x170>
    1ce6:	1e 5f       	subi	r17, 0xFE	; 254
    1ce8:	11 50       	subi	r17, 0x01	; 1
    1cea:	79 f7       	brne	.-34     	; 0x1cca <Flash+0x114>
    1cec:	40 e8       	ldi	r20, 0x80	; 128
    1cee:	51 e2       	ldi	r21, 0x21	; 33
    1cf0:	60 e0       	ldi	r22, 0x00	; 0
    1cf2:	70 e0       	ldi	r23, 0x00	; 0
    1cf4:	80 e0       	ldi	r24, 0x00	; 0
    1cf6:	90 e0       	ldi	r25, 0x00	; 0
    1cf8:	0e 94 b8 0b 	call	0x1770	; 0x1770 <Exec_ReadCMD>
    1cfc:	80 91 2c 06 	lds	r24, 0x062C	; 0x80062c <bdmresp16>
    1d00:	81 11       	cpse	r24, r1
    1d02:	13 c0       	rjmp	.+38     	; 0x1d2a <Flash+0x174>
    1d04:	89 2d       	mov	r24, r9
    1d06:	0f 90       	pop	r0
    1d08:	0f 90       	pop	r0
    1d0a:	0f 90       	pop	r0
    1d0c:	0f 90       	pop	r0
    1d0e:	df 91       	pop	r29
    1d10:	cf 91       	pop	r28
    1d12:	1f 91       	pop	r17
    1d14:	0f 91       	pop	r16
    1d16:	ff 90       	pop	r15
    1d18:	ef 90       	pop	r14
    1d1a:	df 90       	pop	r13
    1d1c:	cf 90       	pop	r12
    1d1e:	bf 90       	pop	r11
    1d20:	af 90       	pop	r10
    1d22:	9f 90       	pop	r9
    1d24:	08 95       	ret
    1d26:	17 e0       	ldi	r17, 0x07	; 7
    1d28:	d0 cf       	rjmp	.-96     	; 0x1cca <Flash+0x114>
    1d2a:	84 e5       	ldi	r24, 0x54	; 84
    1d2c:	91 e0       	ldi	r25, 0x01	; 1
    1d2e:	0e 94 dc 3b 	call	0x77b8	; 0x77b8 <clrprintlcd>
    1d32:	02 e0       	ldi	r16, 0x02	; 2
    1d34:	10 e0       	ldi	r17, 0x00	; 0
    1d36:	20 e0       	ldi	r18, 0x00	; 0
    1d38:	30 e0       	ldi	r19, 0x00	; 0
    1d3a:	40 e8       	ldi	r20, 0x80	; 128
    1d3c:	50 e2       	ldi	r21, 0x20	; 32
    1d3e:	60 e0       	ldi	r22, 0x00	; 0
    1d40:	70 e0       	ldi	r23, 0x00	; 0
    1d42:	80 e0       	ldi	r24, 0x00	; 0
    1d44:	90 e0       	ldi	r25, 0x00	; 0
    1d46:	0e 94 82 0a 	call	0x1504	; 0x1504 <Exec_WriteCMD>
    1d4a:	00 e0       	ldi	r16, 0x00	; 0
    1d4c:	10 e0       	ldi	r17, 0x00	; 0
    1d4e:	20 e0       	ldi	r18, 0x00	; 0
    1d50:	30 e0       	ldi	r19, 0x00	; 0
    1d52:	48 e8       	ldi	r20, 0x88	; 136
    1d54:	50 e2       	ldi	r21, 0x20	; 32
    1d56:	60 e0       	ldi	r22, 0x00	; 0
    1d58:	70 e0       	ldi	r23, 0x00	; 0
    1d5a:	80 e0       	ldi	r24, 0x00	; 0
    1d5c:	90 e0       	ldi	r25, 0x00	; 0
    1d5e:	0e 94 82 0a 	call	0x1504	; 0x1504 <Exec_WriteCMD>
    1d62:	96 01       	movw	r18, r12
    1d64:	00 24       	eor	r0, r0
    1d66:	22 0f       	add	r18, r18
    1d68:	33 1f       	adc	r19, r19
    1d6a:	00 1c       	adc	r0, r0
    1d6c:	22 0f       	add	r18, r18
    1d6e:	33 1f       	adc	r19, r19
    1d70:	00 1c       	adc	r0, r0
    1d72:	23 2f       	mov	r18, r19
    1d74:	30 2d       	mov	r19, r0
    1d76:	33 27       	eor	r19, r19
    1d78:	49 e8       	ldi	r20, 0x89	; 137
    1d7a:	50 e2       	ldi	r21, 0x20	; 32
    1d7c:	60 e0       	ldi	r22, 0x00	; 0
    1d7e:	70 e0       	ldi	r23, 0x00	; 0
    1d80:	80 e0       	ldi	r24, 0x00	; 0
    1d82:	90 e0       	ldi	r25, 0x00	; 0
    1d84:	0e 94 82 0a 	call	0x1504	; 0x1504 <Exec_WriteCMD>
    1d88:	00 e0       	ldi	r16, 0x00	; 0
    1d8a:	14 e0       	ldi	r17, 0x04	; 4
    1d8c:	20 e1       	ldi	r18, 0x10	; 16
    1d8e:	30 e0       	ldi	r19, 0x00	; 0
    1d90:	40 e8       	ldi	r20, 0x80	; 128
    1d92:	54 e2       	ldi	r21, 0x24	; 36
    1d94:	60 e0       	ldi	r22, 0x00	; 0
    1d96:	70 e0       	ldi	r23, 0x00	; 0
    1d98:	80 e0       	ldi	r24, 0x00	; 0
    1d9a:	90 e0       	ldi	r25, 0x00	; 0
    1d9c:	0e 94 82 0a 	call	0x1504	; 0x1504 <Exec_WriteCMD>
    1da0:	80 e0       	ldi	r24, 0x00	; 0
    1da2:	90 e0       	ldi	r25, 0x00	; 0
    1da4:	0e 94 b7 08 	call	0x116e	; 0x116e <ShiftData>
    1da8:	80 e0       	ldi	r24, 0x00	; 0
    1daa:	9c e0       	ldi	r25, 0x0C	; 12
    1dac:	0e 94 fd 04 	call	0x9fa	; 0x9fa <ShiftData_s>
    1db0:	67 e0       	ldi	r22, 0x07	; 7
    1db2:	83 e0       	ldi	r24, 0x03	; 3
    1db4:	0e 94 d7 36 	call	0x6dae	; 0x6dae <ReadPin>
    1db8:	81 11       	cpse	r24, r1
    1dba:	fa cf       	rjmp	.-12     	; 0x1db0 <Flash+0x1fa>
    1dbc:	18 e0       	ldi	r17, 0x08	; 8
    1dbe:	02 c0       	rjmp	.+4      	; 0x1dc4 <Flash+0x20e>
    1dc0:	11 50       	subi	r17, 0x01	; 1
    1dc2:	91 f0       	breq	.+36     	; 0x1de8 <Flash+0x232>
    1dc4:	62 e0       	ldi	r22, 0x02	; 2
    1dc6:	83 e0       	ldi	r24, 0x03	; 3
    1dc8:	0e 94 d7 36 	call	0x6dae	; 0x6dae <ReadPin>
    1dcc:	88 23       	and	r24, r24
    1dce:	c1 f3       	breq	.-16     	; 0x1dc0 <Flash+0x20a>
    1dd0:	67 e0       	ldi	r22, 0x07	; 7
    1dd2:	83 e0       	ldi	r24, 0x03	; 3
    1dd4:	0e 94 d7 36 	call	0x6dae	; 0x6dae <ReadPin>
    1dd8:	81 11       	cpse	r24, r1
    1dda:	f2 cf       	rjmp	.-28     	; 0x1dc0 <Flash+0x20a>
    1ddc:	18 30       	cpi	r17, 0x08	; 8
    1dde:	09 f4       	brne	.+2      	; 0x1de2 <Flash+0x22c>
    1de0:	cd c0       	rjmp	.+410    	; 0x1f7c <Flash+0x3c6>
    1de2:	1e 5f       	subi	r17, 0xFE	; 254
    1de4:	11 50       	subi	r17, 0x01	; 1
    1de6:	71 f7       	brne	.-36     	; 0x1dc4 <Flash+0x20e>
    1de8:	40 e8       	ldi	r20, 0x80	; 128
    1dea:	51 e2       	ldi	r21, 0x21	; 33
    1dec:	60 e0       	ldi	r22, 0x00	; 0
    1dee:	70 e0       	ldi	r23, 0x00	; 0
    1df0:	80 e0       	ldi	r24, 0x00	; 0
    1df2:	90 e0       	ldi	r25, 0x00	; 0
    1df4:	0e 94 b8 0b 	call	0x1770	; 0x1770 <Exec_ReadCMD>
    1df8:	80 91 2c 06 	lds	r24, 0x062C	; 0x80062c <bdmresp16>
    1dfc:	88 23       	and	r24, r24
    1dfe:	09 f4       	brne	.+2      	; 0x1e02 <Flash+0x24c>
    1e00:	81 cf       	rjmp	.-254    	; 0x1d04 <Flash+0x14e>
    1e02:	8a e5       	ldi	r24, 0x5A	; 90
    1e04:	91 e0       	ldi	r25, 0x01	; 1
    1e06:	0e 94 dc 3b 	call	0x77b8	; 0x77b8 <clrprintlcd>
    1e0a:	27 e0       	ldi	r18, 0x07	; 7
    1e0c:	34 e0       	ldi	r19, 0x04	; 4
    1e0e:	48 e5       	ldi	r20, 0x58	; 88
    1e10:	52 e0       	ldi	r21, 0x02	; 2
    1e12:	60 e3       	ldi	r22, 0x30	; 48
    1e14:	76 e0       	ldi	r23, 0x06	; 6
    1e16:	89 e0       	ldi	r24, 0x09	; 9
    1e18:	94 e0       	ldi	r25, 0x04	; 4
    1e1a:	0e 94 b6 2c 	call	0x596c	; 0x596c <f_read>
    1e1e:	81 11       	cpse	r24, r1
    1e20:	71 cf       	rjmp	.-286    	; 0x1d04 <Flash+0x14e>
    1e22:	01 e0       	ldi	r16, 0x01	; 1
    1e24:	10 e0       	ldi	r17, 0x00	; 0
    1e26:	20 e0       	ldi	r18, 0x00	; 0
    1e28:	30 e0       	ldi	r19, 0x00	; 0
    1e2a:	40 e8       	ldi	r20, 0x80	; 128
    1e2c:	50 e2       	ldi	r21, 0x20	; 32
    1e2e:	60 e0       	ldi	r22, 0x00	; 0
    1e30:	70 e0       	ldi	r23, 0x00	; 0
    1e32:	80 e0       	ldi	r24, 0x00	; 0
    1e34:	90 e0       	ldi	r25, 0x00	; 0
    1e36:	0e 94 82 0a 	call	0x1504	; 0x1504 <Exec_WriteCMD>
    1e3a:	00 e0       	ldi	r16, 0x00	; 0
    1e3c:	10 e0       	ldi	r17, 0x00	; 0
    1e3e:	20 e0       	ldi	r18, 0x00	; 0
    1e40:	30 e0       	ldi	r19, 0x00	; 0
    1e42:	48 e8       	ldi	r20, 0x88	; 136
    1e44:	50 e2       	ldi	r21, 0x20	; 32
    1e46:	60 e0       	ldi	r22, 0x00	; 0
    1e48:	70 e0       	ldi	r23, 0x00	; 0
    1e4a:	80 e0       	ldi	r24, 0x00	; 0
    1e4c:	90 e0       	ldi	r25, 0x00	; 0
    1e4e:	0e 94 82 0a 	call	0x1504	; 0x1504 <Exec_WriteCMD>
    1e52:	98 e8       	ldi	r25, 0x88	; 136
    1e54:	a9 2e       	mov	r10, r25
    1e56:	98 e0       	ldi	r25, 0x08	; 8
    1e58:	b9 2e       	mov	r11, r25
    1e5a:	00 e0       	ldi	r16, 0x00	; 0
    1e5c:	10 e0       	ldi	r17, 0x00	; 0
    1e5e:	20 e0       	ldi	r18, 0x00	; 0
    1e60:	30 e0       	ldi	r19, 0x00	; 0
    1e62:	40 e8       	ldi	r20, 0x80	; 128
    1e64:	58 e1       	ldi	r21, 0x18	; 24
    1e66:	6c ef       	ldi	r22, 0xFC	; 252
    1e68:	7f ef       	ldi	r23, 0xFF	; 255
    1e6a:	8f e0       	ldi	r24, 0x0F	; 15
    1e6c:	90 e0       	ldi	r25, 0x00	; 0
    1e6e:	0e 94 82 0a 	call	0x1504	; 0x1504 <Exec_WriteCMD>
    1e72:	80 e3       	ldi	r24, 0x30	; 48
    1e74:	e8 2e       	mov	r14, r24
    1e76:	86 e0       	ldi	r24, 0x06	; 6
    1e78:	f8 2e       	mov	r15, r24
    1e7a:	87 01       	movw	r16, r14
    1e7c:	c8 01       	movw	r24, r16
    1e7e:	0e 94 f3 09 	call	0x13e6	; 0x13e6 <Exec_FillCMD_p>
    1e82:	0c 5f       	subi	r16, 0xFC	; 252
    1e84:	1f 4f       	sbci	r17, 0xFF	; 255
    1e86:	a0 16       	cp	r10, r16
    1e88:	b1 06       	cpc	r11, r17
    1e8a:	c1 f7       	brne	.-16     	; 0x1e7c <Flash+0x2c6>
    1e8c:	27 e0       	ldi	r18, 0x07	; 7
    1e8e:	34 e0       	ldi	r19, 0x04	; 4
    1e90:	48 ea       	ldi	r20, 0xA8	; 168
    1e92:	51 e0       	ldi	r21, 0x01	; 1
    1e94:	60 e3       	ldi	r22, 0x30	; 48
    1e96:	76 e0       	ldi	r23, 0x06	; 6
    1e98:	89 e0       	ldi	r24, 0x09	; 9
    1e9a:	94 e0       	ldi	r25, 0x04	; 4
    1e9c:	0e 94 b6 2c 	call	0x596c	; 0x596c <f_read>
    1ea0:	81 11       	cpse	r24, r1
    1ea2:	30 cf       	rjmp	.-416    	; 0x1d04 <Flash+0x14e>
    1ea4:	c7 01       	movw	r24, r14
    1ea6:	0e 94 f3 09 	call	0x13e6	; 0x13e6 <Exec_FillCMD_p>
    1eaa:	84 e0       	ldi	r24, 0x04	; 4
    1eac:	e8 0e       	add	r14, r24
    1eae:	f1 1c       	adc	r15, r1
    1eb0:	88 ed       	ldi	r24, 0xD8	; 216
    1eb2:	e8 16       	cp	r14, r24
    1eb4:	87 e0       	ldi	r24, 0x07	; 7
    1eb6:	f8 06       	cpc	r15, r24
    1eb8:	a9 f7       	brne	.-22     	; 0x1ea4 <Flash+0x2ee>
    1eba:	00 e0       	ldi	r16, 0x00	; 0
    1ebc:	14 e0       	ldi	r17, 0x04	; 4
    1ebe:	20 e1       	ldi	r18, 0x10	; 16
    1ec0:	30 e0       	ldi	r19, 0x00	; 0
    1ec2:	40 e8       	ldi	r20, 0x80	; 128
    1ec4:	54 e2       	ldi	r21, 0x24	; 36
    1ec6:	60 e0       	ldi	r22, 0x00	; 0
    1ec8:	70 e0       	ldi	r23, 0x00	; 0
    1eca:	80 e0       	ldi	r24, 0x00	; 0
    1ecc:	90 e0       	ldi	r25, 0x00	; 0
    1ece:	0e 94 82 0a 	call	0x1504	; 0x1504 <Exec_WriteCMD>
    1ed2:	80 e0       	ldi	r24, 0x00	; 0
    1ed4:	90 e0       	ldi	r25, 0x00	; 0
    1ed6:	0e 94 b7 08 	call	0x116e	; 0x116e <ShiftData>
    1eda:	80 e0       	ldi	r24, 0x00	; 0
    1edc:	9c e0       	ldi	r25, 0x0C	; 12
    1ede:	0e 94 fd 04 	call	0x9fa	; 0x9fa <ShiftData_s>
    1ee2:	82 e0       	ldi	r24, 0x02	; 2
    1ee4:	c8 16       	cp	r12, r24
    1ee6:	d1 04       	cpc	r13, r1
    1ee8:	60 f0       	brcs	.+24     	; 0x1f02 <Flash+0x34c>
    1eea:	27 e0       	ldi	r18, 0x07	; 7
    1eec:	34 e0       	ldi	r19, 0x04	; 4
    1eee:	48 e5       	ldi	r20, 0x58	; 88
    1ef0:	52 e0       	ldi	r21, 0x02	; 2
    1ef2:	60 e3       	ldi	r22, 0x30	; 48
    1ef4:	76 e0       	ldi	r23, 0x06	; 6
    1ef6:	89 e0       	ldi	r24, 0x09	; 9
    1ef8:	94 e0       	ldi	r25, 0x04	; 4
    1efa:	0e 94 b6 2c 	call	0x596c	; 0x596c <f_read>
    1efe:	81 11       	cpse	r24, r1
    1f00:	01 cf       	rjmp	.-510    	; 0x1d04 <Flash+0x14e>
    1f02:	08 e0       	ldi	r16, 0x08	; 8
    1f04:	10 e0       	ldi	r17, 0x00	; 0
    1f06:	03 c0       	rjmp	.+6      	; 0x1f0e <Flash+0x358>
    1f08:	01 50       	subi	r16, 0x01	; 1
    1f0a:	11 09       	sbc	r17, r1
    1f0c:	a1 f0       	breq	.+40     	; 0x1f36 <Flash+0x380>
    1f0e:	62 e0       	ldi	r22, 0x02	; 2
    1f10:	83 e0       	ldi	r24, 0x03	; 3
    1f12:	0e 94 d7 36 	call	0x6dae	; 0x6dae <ReadPin>
    1f16:	88 23       	and	r24, r24
    1f18:	b9 f3       	breq	.-18     	; 0x1f08 <Flash+0x352>
    1f1a:	67 e0       	ldi	r22, 0x07	; 7
    1f1c:	83 e0       	ldi	r24, 0x03	; 3
    1f1e:	0e 94 d7 36 	call	0x6dae	; 0x6dae <ReadPin>
    1f22:	81 11       	cpse	r24, r1
    1f24:	f1 cf       	rjmp	.-30     	; 0x1f08 <Flash+0x352>
    1f26:	08 30       	cpi	r16, 0x08	; 8
    1f28:	11 05       	cpc	r17, r1
    1f2a:	51 f1       	breq	.+84     	; 0x1f80 <Flash+0x3ca>
    1f2c:	0e 5f       	subi	r16, 0xFE	; 254
    1f2e:	1f 4f       	sbci	r17, 0xFF	; 255
    1f30:	01 50       	subi	r16, 0x01	; 1
    1f32:	11 09       	sbc	r17, r1
    1f34:	61 f7       	brne	.-40     	; 0x1f0e <Flash+0x358>
    1f36:	40 e8       	ldi	r20, 0x80	; 128
    1f38:	51 e2       	ldi	r21, 0x21	; 33
    1f3a:	60 e0       	ldi	r22, 0x00	; 0
    1f3c:	70 e0       	ldi	r23, 0x00	; 0
    1f3e:	80 e0       	ldi	r24, 0x00	; 0
    1f40:	90 e0       	ldi	r25, 0x00	; 0
    1f42:	0e 94 b8 0b 	call	0x1770	; 0x1770 <Exec_ReadCMD>
    1f46:	80 91 2c 06 	lds	r24, 0x062C	; 0x80062c <bdmresp16>
    1f4a:	90 91 2d 06 	lds	r25, 0x062D	; 0x80062d <bdmresp16+0x1>
    1f4e:	01 97       	sbiw	r24, 0x01	; 1
    1f50:	09 f0       	breq	.+2      	; 0x1f54 <Flash+0x39e>
    1f52:	d8 ce       	rjmp	.-592    	; 0x1d04 <Flash+0x14e>
    1f54:	81 e0       	ldi	r24, 0x01	; 1
    1f56:	c8 1a       	sub	r12, r24
    1f58:	d1 08       	sbc	r13, r1
    1f5a:	09 f0       	breq	.+2      	; 0x1f5e <Flash+0x3a8>
    1f5c:	7e cf       	rjmp	.-260    	; 0x1e5a <Flash+0x2a4>
    1f5e:	80 e6       	ldi	r24, 0x60	; 96
    1f60:	91 e0       	ldi	r25, 0x01	; 1
    1f62:	0e 94 dc 3b 	call	0x77b8	; 0x77b8 <clrprintlcd>
    1f66:	80 91 2a 06 	lds	r24, 0x062A	; 0x80062a <BenchTime>
    1f6a:	90 91 2b 06 	lds	r25, 0x062B	; 0x80062b <BenchTime+0x1>
    1f6e:	80 95       	com	r24
    1f70:	90 95       	com	r25
    1f72:	0e 94 2e 3b 	call	0x765c	; 0x765c <showval>
    1f76:	99 24       	eor	r9, r9
    1f78:	93 94       	inc	r9
    1f7a:	c4 ce       	rjmp	.-632    	; 0x1d04 <Flash+0x14e>
    1f7c:	17 e0       	ldi	r17, 0x07	; 7
    1f7e:	22 cf       	rjmp	.-444    	; 0x1dc4 <Flash+0x20e>
    1f80:	07 e0       	ldi	r16, 0x07	; 7
    1f82:	10 e0       	ldi	r17, 0x00	; 0
    1f84:	c4 cf       	rjmp	.-120    	; 0x1f0e <Flash+0x358>

00001f86 <FlashMCP>:
    1f86:	ef 92       	push	r14
    1f88:	ff 92       	push	r15
    1f8a:	0f 93       	push	r16
    1f8c:	1f 93       	push	r17
    1f8e:	cf 93       	push	r28
    1f90:	df 93       	push	r29
    1f92:	00 d0       	rcall	.+0      	; 0x1f94 <FlashMCP+0xe>
    1f94:	00 d0       	rcall	.+0      	; 0x1f96 <FlashMCP+0x10>
    1f96:	cd b7       	in	r28, 0x3d	; 61
    1f98:	de b7       	in	r29, 0x3e	; 62
    1f9a:	83 e6       	ldi	r24, 0x63	; 99
    1f9c:	91 e0       	ldi	r25, 0x01	; 1
    1f9e:	0e 94 dc 3b 	call	0x77b8	; 0x77b8 <clrprintlcd>
    1fa2:	8f ef       	ldi	r24, 0xFF	; 255
    1fa4:	9f ef       	ldi	r25, 0xFF	; 255
    1fa6:	90 93 2b 06 	sts	0x062B, r25	; 0x80062b <BenchTime+0x1>
    1faa:	80 93 2a 06 	sts	0x062A, r24	; 0x80062a <BenchTime>
    1fae:	00 e0       	ldi	r16, 0x00	; 0
    1fb0:	10 e0       	ldi	r17, 0x00	; 0
    1fb2:	20 e0       	ldi	r18, 0x00	; 0
    1fb4:	30 e0       	ldi	r19, 0x00	; 0
    1fb6:	40 e8       	ldi	r20, 0x80	; 128
    1fb8:	58 e1       	ldi	r21, 0x18	; 24
    1fba:	6c ef       	ldi	r22, 0xFC	; 252
    1fbc:	73 e0       	ldi	r23, 0x03	; 3
    1fbe:	80 e1       	ldi	r24, 0x10	; 16
    1fc0:	90 e0       	ldi	r25, 0x00	; 0
    1fc2:	0e 94 82 0a 	call	0x1504	; 0x1504 <Exec_WriteCMD>
    1fc6:	08 e6       	ldi	r16, 0x68	; 104
    1fc8:	10 e0       	ldi	r17, 0x00	; 0
    1fca:	84 e5       	ldi	r24, 0x54	; 84
    1fcc:	e8 2e       	mov	r14, r24
    1fce:	84 e0       	ldi	r24, 0x04	; 4
    1fd0:	f8 2e       	mov	r15, r24
    1fd2:	f8 01       	movw	r30, r16
    1fd4:	85 91       	lpm	r24, Z+
    1fd6:	94 91       	lpm	r25, Z
    1fd8:	9a 83       	std	Y+2, r25	; 0x02
    1fda:	89 83       	std	Y+1, r24	; 0x01
    1fdc:	f8 01       	movw	r30, r16
    1fde:	32 96       	adiw	r30, 0x02	; 2
    1fe0:	85 91       	lpm	r24, Z+
    1fe2:	94 91       	lpm	r25, Z
    1fe4:	9c 83       	std	Y+4, r25	; 0x04
    1fe6:	8b 83       	std	Y+3, r24	; 0x03
    1fe8:	ce 01       	movw	r24, r28
    1fea:	01 96       	adiw	r24, 0x01	; 1
    1fec:	0e 94 f3 09 	call	0x13e6	; 0x13e6 <Exec_FillCMD_p>
    1ff0:	0c 5f       	subi	r16, 0xFC	; 252
    1ff2:	1f 4f       	sbci	r17, 0xFF	; 255
    1ff4:	e0 16       	cp	r14, r16
    1ff6:	f1 06       	cpc	r15, r17
    1ff8:	61 f7       	brne	.-40     	; 0x1fd2 <FlashMCP+0x4c>
    1ffa:	8a e6       	ldi	r24, 0x6A	; 106
    1ffc:	91 e0       	ldi	r25, 0x01	; 1
    1ffe:	0e 94 dc 3b 	call	0x77b8	; 0x77b8 <clrprintlcd>
    2002:	04 e0       	ldi	r16, 0x04	; 4
    2004:	10 e0       	ldi	r17, 0x00	; 0
    2006:	20 e0       	ldi	r18, 0x00	; 0
    2008:	30 e0       	ldi	r19, 0x00	; 0
    200a:	40 e8       	ldi	r20, 0x80	; 128
    200c:	50 e2       	ldi	r21, 0x20	; 32
    200e:	60 e0       	ldi	r22, 0x00	; 0
    2010:	70 e0       	ldi	r23, 0x00	; 0
    2012:	80 e0       	ldi	r24, 0x00	; 0
    2014:	90 e0       	ldi	r25, 0x00	; 0
    2016:	0e 94 82 0a 	call	0x1504	; 0x1504 <Exec_WriteCMD>
    201a:	00 e0       	ldi	r16, 0x00	; 0
    201c:	10 e0       	ldi	r17, 0x00	; 0
    201e:	20 e0       	ldi	r18, 0x00	; 0
    2020:	30 e0       	ldi	r19, 0x00	; 0
    2022:	48 e8       	ldi	r20, 0x88	; 136
    2024:	50 e2       	ldi	r21, 0x20	; 32
    2026:	60 e0       	ldi	r22, 0x00	; 0
    2028:	70 e0       	ldi	r23, 0x00	; 0
    202a:	80 e0       	ldi	r24, 0x00	; 0
    202c:	90 e0       	ldi	r25, 0x00	; 0
    202e:	0e 94 82 0a 	call	0x1504	; 0x1504 <Exec_WriteCMD>
    2032:	20 e0       	ldi	r18, 0x00	; 0
    2034:	30 e0       	ldi	r19, 0x00	; 0
    2036:	49 e8       	ldi	r20, 0x89	; 137
    2038:	50 e2       	ldi	r21, 0x20	; 32
    203a:	60 e0       	ldi	r22, 0x00	; 0
    203c:	70 e0       	ldi	r23, 0x00	; 0
    203e:	80 e0       	ldi	r24, 0x00	; 0
    2040:	90 e0       	ldi	r25, 0x00	; 0
    2042:	0e 94 82 0a 	call	0x1504	; 0x1504 <Exec_WriteCMD>
    2046:	00 e0       	ldi	r16, 0x00	; 0
    2048:	14 e0       	ldi	r17, 0x04	; 4
    204a:	20 e1       	ldi	r18, 0x10	; 16
    204c:	30 e0       	ldi	r19, 0x00	; 0
    204e:	40 e8       	ldi	r20, 0x80	; 128
    2050:	54 e2       	ldi	r21, 0x24	; 36
    2052:	60 e0       	ldi	r22, 0x00	; 0
    2054:	70 e0       	ldi	r23, 0x00	; 0
    2056:	80 e0       	ldi	r24, 0x00	; 0
    2058:	90 e0       	ldi	r25, 0x00	; 0
    205a:	0e 94 82 0a 	call	0x1504	; 0x1504 <Exec_WriteCMD>
    205e:	80 e0       	ldi	r24, 0x00	; 0
    2060:	90 e0       	ldi	r25, 0x00	; 0
    2062:	0e 94 b7 08 	call	0x116e	; 0x116e <ShiftData>
    2066:	80 e0       	ldi	r24, 0x00	; 0
    2068:	9c e0       	ldi	r25, 0x0C	; 12
    206a:	0e 94 fd 04 	call	0x9fa	; 0x9fa <ShiftData_s>
    206e:	67 e0       	ldi	r22, 0x07	; 7
    2070:	83 e0       	ldi	r24, 0x03	; 3
    2072:	0e 94 d7 36 	call	0x6dae	; 0x6dae <ReadPin>
    2076:	f8 2e       	mov	r15, r24
    2078:	81 11       	cpse	r24, r1
    207a:	f9 cf       	rjmp	.-14     	; 0x206e <FlashMCP+0xe8>
    207c:	18 e0       	ldi	r17, 0x08	; 8
    207e:	02 c0       	rjmp	.+4      	; 0x2084 <FlashMCP+0xfe>
    2080:	11 50       	subi	r17, 0x01	; 1
    2082:	89 f0       	breq	.+34     	; 0x20a6 <FlashMCP+0x120>
    2084:	62 e0       	ldi	r22, 0x02	; 2
    2086:	83 e0       	ldi	r24, 0x03	; 3
    2088:	0e 94 d7 36 	call	0x6dae	; 0x6dae <ReadPin>
    208c:	88 23       	and	r24, r24
    208e:	c1 f3       	breq	.-16     	; 0x2080 <FlashMCP+0xfa>
    2090:	67 e0       	ldi	r22, 0x07	; 7
    2092:	83 e0       	ldi	r24, 0x03	; 3
    2094:	0e 94 d7 36 	call	0x6dae	; 0x6dae <ReadPin>
    2098:	81 11       	cpse	r24, r1
    209a:	f2 cf       	rjmp	.-28     	; 0x2080 <FlashMCP+0xfa>
    209c:	18 30       	cpi	r17, 0x08	; 8
    209e:	d9 f0       	breq	.+54     	; 0x20d6 <FlashMCP+0x150>
    20a0:	1e 5f       	subi	r17, 0xFE	; 254
    20a2:	11 50       	subi	r17, 0x01	; 1
    20a4:	79 f7       	brne	.-34     	; 0x2084 <FlashMCP+0xfe>
    20a6:	40 e8       	ldi	r20, 0x80	; 128
    20a8:	51 e2       	ldi	r21, 0x21	; 33
    20aa:	60 e0       	ldi	r22, 0x00	; 0
    20ac:	70 e0       	ldi	r23, 0x00	; 0
    20ae:	80 e0       	ldi	r24, 0x00	; 0
    20b0:	90 e0       	ldi	r25, 0x00	; 0
    20b2:	0e 94 b8 0b 	call	0x1770	; 0x1770 <Exec_ReadCMD>
    20b6:	80 91 2c 06 	lds	r24, 0x062C	; 0x80062c <bdmresp16>
    20ba:	81 11       	cpse	r24, r1
    20bc:	0e c0       	rjmp	.+28     	; 0x20da <FlashMCP+0x154>
    20be:	8f 2d       	mov	r24, r15
    20c0:	0f 90       	pop	r0
    20c2:	0f 90       	pop	r0
    20c4:	0f 90       	pop	r0
    20c6:	0f 90       	pop	r0
    20c8:	df 91       	pop	r29
    20ca:	cf 91       	pop	r28
    20cc:	1f 91       	pop	r17
    20ce:	0f 91       	pop	r16
    20d0:	ff 90       	pop	r15
    20d2:	ef 90       	pop	r14
    20d4:	08 95       	ret
    20d6:	17 e0       	ldi	r17, 0x07	; 7
    20d8:	d5 cf       	rjmp	.-86     	; 0x2084 <FlashMCP+0xfe>
    20da:	83 e7       	ldi	r24, 0x73	; 115
    20dc:	91 e0       	ldi	r25, 0x01	; 1
    20de:	0e 94 dc 3b 	call	0x77b8	; 0x77b8 <clrprintlcd>
    20e2:	02 e0       	ldi	r16, 0x02	; 2
    20e4:	10 e0       	ldi	r17, 0x00	; 0
    20e6:	20 e0       	ldi	r18, 0x00	; 0
    20e8:	30 e0       	ldi	r19, 0x00	; 0
    20ea:	40 e8       	ldi	r20, 0x80	; 128
    20ec:	50 e2       	ldi	r21, 0x20	; 32
    20ee:	60 e0       	ldi	r22, 0x00	; 0
    20f0:	70 e0       	ldi	r23, 0x00	; 0
    20f2:	80 e0       	ldi	r24, 0x00	; 0
    20f4:	90 e0       	ldi	r25, 0x00	; 0
    20f6:	0e 94 82 0a 	call	0x1504	; 0x1504 <Exec_WriteCMD>
    20fa:	00 e0       	ldi	r16, 0x00	; 0
    20fc:	10 e0       	ldi	r17, 0x00	; 0
    20fe:	20 e0       	ldi	r18, 0x00	; 0
    2100:	30 e0       	ldi	r19, 0x00	; 0
    2102:	48 e8       	ldi	r20, 0x88	; 136
    2104:	50 e2       	ldi	r21, 0x20	; 32
    2106:	60 e0       	ldi	r22, 0x00	; 0
    2108:	70 e0       	ldi	r23, 0x00	; 0
    210a:	80 e0       	ldi	r24, 0x00	; 0
    210c:	90 e0       	ldi	r25, 0x00	; 0
    210e:	0e 94 82 0a 	call	0x1504	; 0x1504 <Exec_WriteCMD>
    2112:	20 e0       	ldi	r18, 0x00	; 0
    2114:	30 e0       	ldi	r19, 0x00	; 0
    2116:	49 e8       	ldi	r20, 0x89	; 137
    2118:	50 e2       	ldi	r21, 0x20	; 32
    211a:	60 e0       	ldi	r22, 0x00	; 0
    211c:	70 e0       	ldi	r23, 0x00	; 0
    211e:	80 e0       	ldi	r24, 0x00	; 0
    2120:	90 e0       	ldi	r25, 0x00	; 0
    2122:	0e 94 82 0a 	call	0x1504	; 0x1504 <Exec_WriteCMD>
    2126:	00 e0       	ldi	r16, 0x00	; 0
    2128:	14 e0       	ldi	r17, 0x04	; 4
    212a:	20 e1       	ldi	r18, 0x10	; 16
    212c:	30 e0       	ldi	r19, 0x00	; 0
    212e:	40 e8       	ldi	r20, 0x80	; 128
    2130:	54 e2       	ldi	r21, 0x24	; 36
    2132:	60 e0       	ldi	r22, 0x00	; 0
    2134:	70 e0       	ldi	r23, 0x00	; 0
    2136:	80 e0       	ldi	r24, 0x00	; 0
    2138:	90 e0       	ldi	r25, 0x00	; 0
    213a:	0e 94 82 0a 	call	0x1504	; 0x1504 <Exec_WriteCMD>
    213e:	80 e0       	ldi	r24, 0x00	; 0
    2140:	90 e0       	ldi	r25, 0x00	; 0
    2142:	0e 94 b7 08 	call	0x116e	; 0x116e <ShiftData>
    2146:	80 e0       	ldi	r24, 0x00	; 0
    2148:	9c e0       	ldi	r25, 0x0C	; 12
    214a:	0e 94 fd 04 	call	0x9fa	; 0x9fa <ShiftData_s>
    214e:	67 e0       	ldi	r22, 0x07	; 7
    2150:	83 e0       	ldi	r24, 0x03	; 3
    2152:	0e 94 d7 36 	call	0x6dae	; 0x6dae <ReadPin>
    2156:	81 11       	cpse	r24, r1
    2158:	fa cf       	rjmp	.-12     	; 0x214e <FlashMCP+0x1c8>
    215a:	18 e0       	ldi	r17, 0x08	; 8
    215c:	02 c0       	rjmp	.+4      	; 0x2162 <FlashMCP+0x1dc>
    215e:	11 50       	subi	r17, 0x01	; 1
    2160:	89 f0       	breq	.+34     	; 0x2184 <FlashMCP+0x1fe>
    2162:	62 e0       	ldi	r22, 0x02	; 2
    2164:	83 e0       	ldi	r24, 0x03	; 3
    2166:	0e 94 d7 36 	call	0x6dae	; 0x6dae <ReadPin>
    216a:	88 23       	and	r24, r24
    216c:	c1 f3       	breq	.-16     	; 0x215e <FlashMCP+0x1d8>
    216e:	67 e0       	ldi	r22, 0x07	; 7
    2170:	83 e0       	ldi	r24, 0x03	; 3
    2172:	0e 94 d7 36 	call	0x6dae	; 0x6dae <ReadPin>
    2176:	81 11       	cpse	r24, r1
    2178:	f2 cf       	rjmp	.-28     	; 0x215e <FlashMCP+0x1d8>
    217a:	18 30       	cpi	r17, 0x08	; 8
    217c:	41 f1       	breq	.+80     	; 0x21ce <FlashMCP+0x248>
    217e:	1e 5f       	subi	r17, 0xFE	; 254
    2180:	11 50       	subi	r17, 0x01	; 1
    2182:	79 f7       	brne	.-34     	; 0x2162 <FlashMCP+0x1dc>
    2184:	40 e8       	ldi	r20, 0x80	; 128
    2186:	51 e2       	ldi	r21, 0x21	; 33
    2188:	60 e0       	ldi	r22, 0x00	; 0
    218a:	70 e0       	ldi	r23, 0x00	; 0
    218c:	80 e0       	ldi	r24, 0x00	; 0
    218e:	90 e0       	ldi	r25, 0x00	; 0
    2190:	0e 94 b8 0b 	call	0x1770	; 0x1770 <Exec_ReadCMD>
    2194:	80 91 2c 06 	lds	r24, 0x062C	; 0x80062c <bdmresp16>
    2198:	88 23       	and	r24, r24
    219a:	09 f4       	brne	.+2      	; 0x219e <FlashMCP+0x218>
    219c:	90 cf       	rjmp	.-224    	; 0x20be <FlashMCP+0x138>
    219e:	8c e7       	ldi	r24, 0x7C	; 124
    21a0:	91 e0       	ldi	r25, 0x01	; 1
    21a2:	0e 94 dc 3b 	call	0x77b8	; 0x77b8 <clrprintlcd>
    21a6:	0e 94 fe 0c 	call	0x19fc	; 0x19fc <LDRWriteMCP>
    21aa:	88 23       	and	r24, r24
    21ac:	09 f4       	brne	.+2      	; 0x21b0 <FlashMCP+0x22a>
    21ae:	87 cf       	rjmp	.-242    	; 0x20be <FlashMCP+0x138>
    21b0:	80 e6       	ldi	r24, 0x60	; 96
    21b2:	91 e0       	ldi	r25, 0x01	; 1
    21b4:	0e 94 dc 3b 	call	0x77b8	; 0x77b8 <clrprintlcd>
    21b8:	80 91 2a 06 	lds	r24, 0x062A	; 0x80062a <BenchTime>
    21bc:	90 91 2b 06 	lds	r25, 0x062B	; 0x80062b <BenchTime+0x1>
    21c0:	80 95       	com	r24
    21c2:	90 95       	com	r25
    21c4:	0e 94 2e 3b 	call	0x765c	; 0x765c <showval>
    21c8:	ff 24       	eor	r15, r15
    21ca:	f3 94       	inc	r15
    21cc:	78 cf       	rjmp	.-272    	; 0x20be <FlashMCP+0x138>
    21ce:	17 e0       	ldi	r17, 0x07	; 7
    21d0:	c8 cf       	rjmp	.-112    	; 0x2162 <FlashMCP+0x1dc>

000021d2 <DumpFlash>:
    21d2:	bf 92       	push	r11
    21d4:	cf 92       	push	r12
    21d6:	df 92       	push	r13
    21d8:	ef 92       	push	r14
    21da:	ff 92       	push	r15
    21dc:	0f 93       	push	r16
    21de:	1f 93       	push	r17
    21e0:	cf 93       	push	r28
    21e2:	df 93       	push	r29
    21e4:	ec 01       	movw	r28, r24
    21e6:	8f ef       	ldi	r24, 0xFF	; 255
    21e8:	9f ef       	ldi	r25, 0xFF	; 255
    21ea:	90 93 2b 06 	sts	0x062B, r25	; 0x80062b <BenchTime+0x1>
    21ee:	80 93 2a 06 	sts	0x062A, r24	; 0x80062a <BenchTime>
    21f2:	4a e0       	ldi	r20, 0x0A	; 10
    21f4:	64 e8       	ldi	r22, 0x84	; 132
    21f6:	71 e0       	ldi	r23, 0x01	; 1
    21f8:	89 e0       	ldi	r24, 0x09	; 9
    21fa:	94 e0       	ldi	r25, 0x04	; 4
    21fc:	0e 94 f0 22 	call	0x45e0	; 0x45e0 <f_open>
    2200:	88 23       	and	r24, r24
    2202:	59 f0       	breq	.+22     	; 0x221a <DumpFlash+0x48>
    2204:	80 e0       	ldi	r24, 0x00	; 0
    2206:	df 91       	pop	r29
    2208:	cf 91       	pop	r28
    220a:	1f 91       	pop	r17
    220c:	0f 91       	pop	r16
    220e:	ff 90       	pop	r15
    2210:	ef 90       	pop	r14
    2212:	df 90       	pop	r13
    2214:	cf 90       	pop	r12
    2216:	bf 90       	pop	r11
    2218:	08 95       	ret
    221a:	cc 0f       	add	r28, r28
    221c:	dd 1f       	adc	r29, r29
    221e:	cc 0f       	add	r28, r28
    2220:	dd 1f       	adc	r29, r29
    2222:	40 e8       	ldi	r20, 0x80	; 128
    2224:	59 e1       	ldi	r21, 0x19	; 25
    2226:	60 e0       	ldi	r22, 0x00	; 0
    2228:	70 e0       	ldi	r23, 0x00	; 0
    222a:	80 e0       	ldi	r24, 0x00	; 0
    222c:	90 e0       	ldi	r25, 0x00	; 0
    222e:	0e 94 e8 08 	call	0x11d0	; 0x11d0 <Exec_ReadCMD_workaround>
    2232:	20 91 04 04 	lds	r18, 0x0404	; 0x800404 <bdmresp32>
    2236:	30 91 05 04 	lds	r19, 0x0405	; 0x800405 <bdmresp32+0x1>
    223a:	32 27       	eor	r19, r18
    223c:	23 27       	eor	r18, r19
    223e:	32 27       	eor	r19, r18
    2240:	30 93 31 06 	sts	0x0631, r19	; 0x800631 <Fbuf+0x1>
    2244:	20 93 30 06 	sts	0x0630, r18	; 0x800630 <Fbuf>
    2248:	80 91 2c 06 	lds	r24, 0x062C	; 0x80062c <bdmresp16>
    224c:	90 91 2d 06 	lds	r25, 0x062D	; 0x80062d <bdmresp16+0x1>
    2250:	98 27       	eor	r25, r24
    2252:	89 27       	eor	r24, r25
    2254:	98 27       	eor	r25, r24
    2256:	90 93 33 06 	sts	0x0633, r25	; 0x800633 <Fbuf+0x3>
    225a:	80 93 32 06 	sts	0x0632, r24	; 0x800632 <Fbuf+0x2>
    225e:	00 91 31 06 	lds	r16, 0x0631	; 0x800631 <Fbuf+0x1>
    2262:	10 e0       	ldi	r17, 0x00	; 0
    2264:	02 0f       	add	r16, r18
    2266:	11 1d       	adc	r17, r1
    2268:	08 0f       	add	r16, r24
    226a:	11 1d       	adc	r17, r1
    226c:	80 91 33 06 	lds	r24, 0x0633	; 0x800633 <Fbuf+0x3>
    2270:	08 0f       	add	r16, r24
    2272:	11 1d       	adc	r17, r1
    2274:	94 e0       	ldi	r25, 0x04	; 4
    2276:	d9 2e       	mov	r13, r25
    2278:	23 ec       	ldi	r18, 0xC3	; 195
    227a:	e2 2e       	mov	r14, r18
    227c:	38 e1       	ldi	r19, 0x18	; 24
    227e:	f3 2e       	mov	r15, r19
    2280:	4d e1       	ldi	r20, 0x1D	; 29
    2282:	b4 2e       	mov	r11, r20
    2284:	50 e8       	ldi	r21, 0x80	; 128
    2286:	c5 2e       	mov	r12, r21
    2288:	ed 2d       	mov	r30, r13
    228a:	f0 e0       	ldi	r31, 0x00	; 0
    228c:	e0 5d       	subi	r30, 0xD0	; 208
    228e:	f9 4f       	sbci	r31, 0xF9	; 249
    2290:	8b b1       	in	r24, 0x0b	; 11
    2292:	8d 7e       	andi	r24, 0xED	; 237
    2294:	8b b9       	out	0x0b, r24	; 11
    2296:	e0 92 c2 00 	sts	0x00C2, r14	; 0x8000c2 <__TEXT_REGION_LENGTH__+0x7e00c2>
    229a:	f0 92 c1 00 	sts	0x00C1, r15	; 0x8000c1 <__TEXT_REGION_LENGTH__+0x7e00c1>
    229e:	b0 92 c6 00 	sts	0x00C6, r11	; 0x8000c6 <__TEXT_REGION_LENGTH__+0x7e00c6>
    22a2:	80 91 c0 00 	lds	r24, 0x00C0	; 0x8000c0 <__TEXT_REGION_LENGTH__+0x7e00c0>
    22a6:	87 ff       	sbrs	r24, 7
    22a8:	fc cf       	rjmp	.-8      	; 0x22a2 <DumpFlash+0xd0>
    22aa:	80 91 c6 00 	lds	r24, 0x00C6	; 0x8000c6 <__TEXT_REGION_LENGTH__+0x7e00c6>
    22ae:	c0 92 c6 00 	sts	0x00C6, r12	; 0x8000c6 <__TEXT_REGION_LENGTH__+0x7e00c6>
    22b2:	80 91 c0 00 	lds	r24, 0x00C0	; 0x8000c0 <__TEXT_REGION_LENGTH__+0x7e00c0>
    22b6:	87 ff       	sbrs	r24, 7
    22b8:	fc cf       	rjmp	.-8      	; 0x22b2 <DumpFlash+0xe0>
    22ba:	10 92 c1 00 	sts	0x00C1, r1	; 0x8000c1 <__TEXT_REGION_LENGTH__+0x7e00c1>
    22be:	10 92 c2 00 	sts	0x00C2, r1	; 0x8000c2 <__TEXT_REGION_LENGTH__+0x7e00c2>
    22c2:	00 00       	nop
    22c4:	8b b1       	in	r24, 0x0b	; 11
    22c6:	8d 7e       	andi	r24, 0xED	; 237
    22c8:	8b b9       	out	0x0b, r24	; 11
    22ca:	00 00       	nop
    22cc:	00 00       	nop
    22ce:	00 00       	nop
    22d0:	e0 92 c2 00 	sts	0x00C2, r14	; 0x8000c2 <__TEXT_REGION_LENGTH__+0x7e00c2>
    22d4:	f0 92 c1 00 	sts	0x00C1, r15	; 0x8000c1 <__TEXT_REGION_LENGTH__+0x7e00c1>
    22d8:	10 92 c6 00 	sts	0x00C6, r1	; 0x8000c6 <__TEXT_REGION_LENGTH__+0x7e00c6>
    22dc:	80 91 c0 00 	lds	r24, 0x00C0	; 0x8000c0 <__TEXT_REGION_LENGTH__+0x7e00c0>
    22e0:	87 ff       	sbrs	r24, 7
    22e2:	fc cf       	rjmp	.-8      	; 0x22dc <DumpFlash+0x10a>
    22e4:	80 91 c6 00 	lds	r24, 0x00C6	; 0x8000c6 <__TEXT_REGION_LENGTH__+0x7e00c6>
    22e8:	80 83       	st	Z, r24
    22ea:	10 92 c6 00 	sts	0x00C6, r1	; 0x8000c6 <__TEXT_REGION_LENGTH__+0x7e00c6>
    22ee:	80 91 c0 00 	lds	r24, 0x00C0	; 0x8000c0 <__TEXT_REGION_LENGTH__+0x7e00c0>
    22f2:	87 ff       	sbrs	r24, 7
    22f4:	fc cf       	rjmp	.-8      	; 0x22ee <DumpFlash+0x11c>
    22f6:	80 91 c6 00 	lds	r24, 0x00C6	; 0x8000c6 <__TEXT_REGION_LENGTH__+0x7e00c6>
    22fa:	81 83       	std	Z+1, r24	; 0x01
    22fc:	10 92 c1 00 	sts	0x00C1, r1	; 0x8000c1 <__TEXT_REGION_LENGTH__+0x7e00c1>
    2300:	10 92 c2 00 	sts	0x00C2, r1	; 0x8000c2 <__TEXT_REGION_LENGTH__+0x7e00c2>
    2304:	8b b1       	in	r24, 0x0b	; 11
    2306:	8d 7e       	andi	r24, 0xED	; 237
    2308:	8b b9       	out	0x0b, r24	; 11
    230a:	48 99       	sbic	0x09, 0	; 9
    230c:	e1 cf       	rjmp	.-62     	; 0x22d0 <DumpFlash+0xfe>
    230e:	8b b1       	in	r24, 0x0b	; 11
    2310:	8d 7e       	andi	r24, 0xED	; 237
    2312:	8b b9       	out	0x0b, r24	; 11
    2314:	00 00       	nop
    2316:	00 00       	nop
    2318:	00 00       	nop
    231a:	e0 92 c2 00 	sts	0x00C2, r14	; 0x8000c2 <__TEXT_REGION_LENGTH__+0x7e00c2>
    231e:	f0 92 c1 00 	sts	0x00C1, r15	; 0x8000c1 <__TEXT_REGION_LENGTH__+0x7e00c1>
    2322:	10 92 c6 00 	sts	0x00C6, r1	; 0x8000c6 <__TEXT_REGION_LENGTH__+0x7e00c6>
    2326:	80 91 c0 00 	lds	r24, 0x00C0	; 0x8000c0 <__TEXT_REGION_LENGTH__+0x7e00c0>
    232a:	87 ff       	sbrs	r24, 7
    232c:	fc cf       	rjmp	.-8      	; 0x2326 <DumpFlash+0x154>
    232e:	80 91 c6 00 	lds	r24, 0x00C6	; 0x8000c6 <__TEXT_REGION_LENGTH__+0x7e00c6>
    2332:	82 83       	std	Z+2, r24	; 0x02
    2334:	10 92 c6 00 	sts	0x00C6, r1	; 0x8000c6 <__TEXT_REGION_LENGTH__+0x7e00c6>
    2338:	80 91 c0 00 	lds	r24, 0x00C0	; 0x8000c0 <__TEXT_REGION_LENGTH__+0x7e00c0>
    233c:	87 ff       	sbrs	r24, 7
    233e:	fc cf       	rjmp	.-8      	; 0x2338 <DumpFlash+0x166>
    2340:	80 91 c6 00 	lds	r24, 0x00C6	; 0x8000c6 <__TEXT_REGION_LENGTH__+0x7e00c6>
    2344:	83 83       	std	Z+3, r24	; 0x03
    2346:	10 92 c1 00 	sts	0x00C1, r1	; 0x8000c1 <__TEXT_REGION_LENGTH__+0x7e00c1>
    234a:	10 92 c2 00 	sts	0x00C2, r1	; 0x8000c2 <__TEXT_REGION_LENGTH__+0x7e00c2>
    234e:	8b b1       	in	r24, 0x0b	; 11
    2350:	8d 7e       	andi	r24, 0xED	; 237
    2352:	8b b9       	out	0x0b, r24	; 11
    2354:	48 99       	sbic	0x09, 0	; 9
    2356:	e1 cf       	rjmp	.-62     	; 0x231a <DumpFlash+0x148>
    2358:	21 81       	ldd	r18, Z+1	; 0x01
    235a:	80 81       	ld	r24, Z
    235c:	90 e0       	ldi	r25, 0x00	; 0
    235e:	82 0f       	add	r24, r18
    2360:	91 1d       	adc	r25, r1
    2362:	22 81       	ldd	r18, Z+2	; 0x02
    2364:	82 0f       	add	r24, r18
    2366:	91 1d       	adc	r25, r1
    2368:	23 81       	ldd	r18, Z+3	; 0x03
    236a:	82 0f       	add	r24, r18
    236c:	91 1d       	adc	r25, r1
    236e:	08 0f       	add	r16, r24
    2370:	19 1f       	adc	r17, r25
    2372:	84 e0       	ldi	r24, 0x04	; 4
    2374:	d8 0e       	add	r13, r24
    2376:	09 f0       	breq	.+2      	; 0x237a <DumpFlash+0x1a8>
    2378:	87 cf       	rjmp	.-242    	; 0x2288 <DumpFlash+0xb6>
    237a:	27 e0       	ldi	r18, 0x07	; 7
    237c:	34 e0       	ldi	r19, 0x04	; 4
    237e:	40 e0       	ldi	r20, 0x00	; 0
    2380:	51 e0       	ldi	r21, 0x01	; 1
    2382:	60 e3       	ldi	r22, 0x30	; 48
    2384:	76 e0       	ldi	r23, 0x06	; 6
    2386:	89 e0       	ldi	r24, 0x09	; 9
    2388:	94 e0       	ldi	r25, 0x04	; 4
    238a:	0e 94 80 2e 	call	0x5d00	; 0x5d00 <f_write>
    238e:	81 11       	cpse	r24, r1
    2390:	39 cf       	rjmp	.-398    	; 0x2204 <DumpFlash+0x32>
    2392:	21 97       	sbiw	r28, 0x01	; 1
    2394:	09 f0       	breq	.+2      	; 0x2398 <DumpFlash+0x1c6>
    2396:	78 cf       	rjmp	.-272    	; 0x2288 <DumpFlash+0xb6>
    2398:	80 91 2a 06 	lds	r24, 0x062A	; 0x80062a <BenchTime>
    239c:	90 91 2b 06 	lds	r25, 0x062B	; 0x80062b <BenchTime+0x1>
    23a0:	80 95       	com	r24
    23a2:	90 95       	com	r25
    23a4:	0e 94 2e 3b 	call	0x765c	; 0x765c <showval>
    23a8:	b8 01       	movw	r22, r16
    23aa:	80 e0       	ldi	r24, 0x00	; 0
    23ac:	0e 94 e7 3b 	call	0x77ce	; 0x77ce <ShowAddr>
    23b0:	81 e0       	ldi	r24, 0x01	; 1
    23b2:	29 cf       	rjmp	.-430    	; 0x2206 <DumpFlash+0x34>

000023b4 <sync_window.part.2>:
    23b4:	8f 92       	push	r8
    23b6:	9f 92       	push	r9
    23b8:	af 92       	push	r10
    23ba:	bf 92       	push	r11
    23bc:	cf 92       	push	r12
    23be:	df 92       	push	r13
    23c0:	ef 92       	push	r14
    23c2:	ff 92       	push	r15
    23c4:	0f 93       	push	r16
    23c6:	1f 93       	push	r17
    23c8:	cf 93       	push	r28
    23ca:	df 93       	push	r29
    23cc:	ec 01       	movw	r28, r24
    23ce:	ca a4       	ldd	r12, Y+42	; 0x2a
    23d0:	db a4       	ldd	r13, Y+43	; 0x2b
    23d2:	ec a4       	ldd	r14, Y+44	; 0x2c
    23d4:	fd a4       	ldd	r15, Y+45	; 0x2d
    23d6:	5c 01       	movw	r10, r24
    23d8:	8e e2       	ldi	r24, 0x2E	; 46
    23da:	a8 0e       	add	r10, r24
    23dc:	b1 1c       	adc	r11, r1
    23de:	01 e0       	ldi	r16, 0x01	; 1
    23e0:	10 e0       	ldi	r17, 0x00	; 0
    23e2:	a7 01       	movw	r20, r14
    23e4:	96 01       	movw	r18, r12
    23e6:	b5 01       	movw	r22, r10
    23e8:	89 81       	ldd	r24, Y+1	; 0x01
    23ea:	0e 94 74 34 	call	0x68e8	; 0x68e8 <disk_write>
    23ee:	81 11       	cpse	r24, r1
    23f0:	30 c0       	rjmp	.+96     	; 0x2452 <sync_window.part.2+0x9e>
    23f2:	1c 82       	std	Y+4, r1	; 0x04
    23f4:	8e 8d       	ldd	r24, Y+30	; 0x1e
    23f6:	9f 8d       	ldd	r25, Y+31	; 0x1f
    23f8:	a8 a1       	ldd	r26, Y+32	; 0x20
    23fa:	b9 a1       	ldd	r27, Y+33	; 0x21
    23fc:	b7 01       	movw	r22, r14
    23fe:	a6 01       	movw	r20, r12
    2400:	48 1b       	sub	r20, r24
    2402:	59 0b       	sbc	r21, r25
    2404:	6a 0b       	sbc	r22, r26
    2406:	7b 0b       	sbc	r23, r27
    2408:	8e 89       	ldd	r24, Y+22	; 0x16
    240a:	9f 89       	ldd	r25, Y+23	; 0x17
    240c:	a8 8d       	ldd	r26, Y+24	; 0x18
    240e:	b9 8d       	ldd	r27, Y+25	; 0x19
    2410:	48 17       	cp	r20, r24
    2412:	59 07       	cpc	r21, r25
    2414:	6a 07       	cpc	r22, r26
    2416:	7b 07       	cpc	r23, r27
    2418:	10 f0       	brcs	.+4      	; 0x241e <sync_window.part.2+0x6a>
    241a:	80 e0       	ldi	r24, 0x00	; 0
    241c:	1b c0       	rjmp	.+54     	; 0x2454 <sync_window.part.2+0xa0>
    241e:	8b 80       	ldd	r8, Y+3	; 0x03
    2420:	91 2c       	mov	r9, r1
    2422:	82 e0       	ldi	r24, 0x02	; 2
    2424:	88 16       	cp	r8, r24
    2426:	91 04       	cpc	r9, r1
    2428:	c0 f3       	brcs	.-16     	; 0x241a <sync_window.part.2+0x66>
    242a:	8e 89       	ldd	r24, Y+22	; 0x16
    242c:	9f 89       	ldd	r25, Y+23	; 0x17
    242e:	a8 8d       	ldd	r26, Y+24	; 0x18
    2430:	b9 8d       	ldd	r27, Y+25	; 0x19
    2432:	c8 0e       	add	r12, r24
    2434:	d9 1e       	adc	r13, r25
    2436:	ea 1e       	adc	r14, r26
    2438:	fb 1e       	adc	r15, r27
    243a:	01 e0       	ldi	r16, 0x01	; 1
    243c:	10 e0       	ldi	r17, 0x00	; 0
    243e:	a7 01       	movw	r20, r14
    2440:	96 01       	movw	r18, r12
    2442:	b5 01       	movw	r22, r10
    2444:	89 81       	ldd	r24, Y+1	; 0x01
    2446:	0e 94 74 34 	call	0x68e8	; 0x68e8 <disk_write>
    244a:	81 e0       	ldi	r24, 0x01	; 1
    244c:	88 1a       	sub	r8, r24
    244e:	91 08       	sbc	r9, r1
    2450:	e8 cf       	rjmp	.-48     	; 0x2422 <sync_window.part.2+0x6e>
    2452:	81 e0       	ldi	r24, 0x01	; 1
    2454:	df 91       	pop	r29
    2456:	cf 91       	pop	r28
    2458:	1f 91       	pop	r17
    245a:	0f 91       	pop	r16
    245c:	ff 90       	pop	r15
    245e:	ef 90       	pop	r14
    2460:	df 90       	pop	r13
    2462:	cf 90       	pop	r12
    2464:	bf 90       	pop	r11
    2466:	af 90       	pop	r10
    2468:	9f 90       	pop	r9
    246a:	8f 90       	pop	r8
    246c:	08 95       	ret

0000246e <move_window>:
    246e:	4f 92       	push	r4
    2470:	5f 92       	push	r5
    2472:	6f 92       	push	r6
    2474:	7f 92       	push	r7
    2476:	8f 92       	push	r8
    2478:	9f 92       	push	r9
    247a:	af 92       	push	r10
    247c:	bf 92       	push	r11
    247e:	cf 92       	push	r12
    2480:	df 92       	push	r13
    2482:	ef 92       	push	r14
    2484:	ff 92       	push	r15
    2486:	0f 93       	push	r16
    2488:	1f 93       	push	r17
    248a:	cf 93       	push	r28
    248c:	df 93       	push	r29
    248e:	ec 01       	movw	r28, r24
    2490:	2a 01       	movw	r4, r20
    2492:	3b 01       	movw	r6, r22
    2494:	ca a4       	ldd	r12, Y+42	; 0x2a
    2496:	db a4       	ldd	r13, Y+43	; 0x2b
    2498:	ec a4       	ldd	r14, Y+44	; 0x2c
    249a:	fd a4       	ldd	r15, Y+45	; 0x2d
    249c:	c4 16       	cp	r12, r20
    249e:	d5 06       	cpc	r13, r21
    24a0:	e6 06       	cpc	r14, r22
    24a2:	f7 06       	cpc	r15, r23
    24a4:	09 f4       	brne	.+2      	; 0x24a8 <move_window+0x3a>
    24a6:	6f c0       	rjmp	.+222    	; 0x2586 <move_window+0x118>
    24a8:	8c 81       	ldd	r24, Y+4	; 0x04
    24aa:	81 11       	cpse	r24, r1
    24ac:	28 c0       	rjmp	.+80     	; 0x24fe <move_window+0x90>
    24ae:	8e 01       	movw	r16, r28
    24b0:	02 5d       	subi	r16, 0xD2	; 210
    24b2:	1f 4f       	sbci	r17, 0xFF	; 255
    24b4:	58 01       	movw	r10, r16
    24b6:	01 e0       	ldi	r16, 0x01	; 1
    24b8:	10 e0       	ldi	r17, 0x00	; 0
    24ba:	a3 01       	movw	r20, r6
    24bc:	92 01       	movw	r18, r4
    24be:	b5 01       	movw	r22, r10
    24c0:	89 81       	ldd	r24, Y+1	; 0x01
    24c2:	0e 94 ef 33 	call	0x67de	; 0x67de <disk_read>
    24c6:	88 23       	and	r24, r24
    24c8:	29 f0       	breq	.+10     	; 0x24d4 <move_window+0x66>
    24ca:	81 e0       	ldi	r24, 0x01	; 1
    24cc:	44 24       	eor	r4, r4
    24ce:	4a 94       	dec	r4
    24d0:	54 2c       	mov	r5, r4
    24d2:	32 01       	movw	r6, r4
    24d4:	4a a6       	std	Y+42, r4	; 0x2a
    24d6:	5b a6       	std	Y+43, r5	; 0x2b
    24d8:	6c a6       	std	Y+44, r6	; 0x2c
    24da:	7d a6       	std	Y+45, r7	; 0x2d
    24dc:	df 91       	pop	r29
    24de:	cf 91       	pop	r28
    24e0:	1f 91       	pop	r17
    24e2:	0f 91       	pop	r16
    24e4:	ff 90       	pop	r15
    24e6:	ef 90       	pop	r14
    24e8:	df 90       	pop	r13
    24ea:	cf 90       	pop	r12
    24ec:	bf 90       	pop	r11
    24ee:	af 90       	pop	r10
    24f0:	9f 90       	pop	r9
    24f2:	8f 90       	pop	r8
    24f4:	7f 90       	pop	r7
    24f6:	6f 90       	pop	r6
    24f8:	5f 90       	pop	r5
    24fa:	4f 90       	pop	r4
    24fc:	08 95       	ret
    24fe:	5e 01       	movw	r10, r28
    2500:	1e e2       	ldi	r17, 0x2E	; 46
    2502:	a1 0e       	add	r10, r17
    2504:	b1 1c       	adc	r11, r1
    2506:	01 e0       	ldi	r16, 0x01	; 1
    2508:	10 e0       	ldi	r17, 0x00	; 0
    250a:	a7 01       	movw	r20, r14
    250c:	96 01       	movw	r18, r12
    250e:	b5 01       	movw	r22, r10
    2510:	89 81       	ldd	r24, Y+1	; 0x01
    2512:	0e 94 74 34 	call	0x68e8	; 0x68e8 <disk_write>
    2516:	81 11       	cpse	r24, r1
    2518:	34 c0       	rjmp	.+104    	; 0x2582 <move_window+0x114>
    251a:	1c 82       	std	Y+4, r1	; 0x04
    251c:	8e 89       	ldd	r24, Y+22	; 0x16
    251e:	9f 89       	ldd	r25, Y+23	; 0x17
    2520:	a8 8d       	ldd	r26, Y+24	; 0x18
    2522:	b9 8d       	ldd	r27, Y+25	; 0x19
    2524:	4e 8d       	ldd	r20, Y+30	; 0x1e
    2526:	5f 8d       	ldd	r21, Y+31	; 0x1f
    2528:	68 a1       	ldd	r22, Y+32	; 0x20
    252a:	79 a1       	ldd	r23, Y+33	; 0x21
    252c:	97 01       	movw	r18, r14
    252e:	86 01       	movw	r16, r12
    2530:	04 1b       	sub	r16, r20
    2532:	15 0b       	sbc	r17, r21
    2534:	26 0b       	sbc	r18, r22
    2536:	37 0b       	sbc	r19, r23
    2538:	08 17       	cp	r16, r24
    253a:	19 07       	cpc	r17, r25
    253c:	2a 07       	cpc	r18, r26
    253e:	3b 07       	cpc	r19, r27
    2540:	08 f0       	brcs	.+2      	; 0x2544 <move_window+0xd6>
    2542:	b9 cf       	rjmp	.-142    	; 0x24b6 <move_window+0x48>
    2544:	8b 80       	ldd	r8, Y+3	; 0x03
    2546:	91 2c       	mov	r9, r1
    2548:	12 e0       	ldi	r17, 0x02	; 2
    254a:	81 16       	cp	r8, r17
    254c:	91 04       	cpc	r9, r1
    254e:	28 f4       	brcc	.+10     	; 0x255a <move_window+0xec>
    2550:	b2 cf       	rjmp	.-156    	; 0x24b6 <move_window+0x48>
    2552:	8e 89       	ldd	r24, Y+22	; 0x16
    2554:	9f 89       	ldd	r25, Y+23	; 0x17
    2556:	a8 8d       	ldd	r26, Y+24	; 0x18
    2558:	b9 8d       	ldd	r27, Y+25	; 0x19
    255a:	c8 0e       	add	r12, r24
    255c:	d9 1e       	adc	r13, r25
    255e:	ea 1e       	adc	r14, r26
    2560:	fb 1e       	adc	r15, r27
    2562:	01 e0       	ldi	r16, 0x01	; 1
    2564:	10 e0       	ldi	r17, 0x00	; 0
    2566:	a7 01       	movw	r20, r14
    2568:	96 01       	movw	r18, r12
    256a:	b5 01       	movw	r22, r10
    256c:	89 81       	ldd	r24, Y+1	; 0x01
    256e:	0e 94 74 34 	call	0x68e8	; 0x68e8 <disk_write>
    2572:	21 e0       	ldi	r18, 0x01	; 1
    2574:	82 1a       	sub	r8, r18
    2576:	91 08       	sbc	r9, r1
    2578:	31 e0       	ldi	r19, 0x01	; 1
    257a:	83 16       	cp	r8, r19
    257c:	91 04       	cpc	r9, r1
    257e:	49 f7       	brne	.-46     	; 0x2552 <move_window+0xe4>
    2580:	9a cf       	rjmp	.-204    	; 0x24b6 <move_window+0x48>
    2582:	81 e0       	ldi	r24, 0x01	; 1
    2584:	ab cf       	rjmp	.-170    	; 0x24dc <move_window+0x6e>
    2586:	80 e0       	ldi	r24, 0x00	; 0
    2588:	a9 cf       	rjmp	.-174    	; 0x24dc <move_window+0x6e>

0000258a <put_fat.part.5>:
    258a:	2f 92       	push	r2
    258c:	3f 92       	push	r3
    258e:	4f 92       	push	r4
    2590:	5f 92       	push	r5
    2592:	6f 92       	push	r6
    2594:	7f 92       	push	r7
    2596:	8f 92       	push	r8
    2598:	9f 92       	push	r9
    259a:	af 92       	push	r10
    259c:	bf 92       	push	r11
    259e:	cf 92       	push	r12
    25a0:	df 92       	push	r13
    25a2:	ef 92       	push	r14
    25a4:	ff 92       	push	r15
    25a6:	0f 93       	push	r16
    25a8:	1f 93       	push	r17
    25aa:	cf 93       	push	r28
    25ac:	df 93       	push	r29
    25ae:	cd b7       	in	r28, 0x3d	; 61
    25b0:	de b7       	in	r29, 0x3e	; 62
    25b2:	62 97       	sbiw	r28, 0x12	; 18
    25b4:	0f b6       	in	r0, 0x3f	; 63
    25b6:	f8 94       	cli
    25b8:	de bf       	out	0x3e, r29	; 62
    25ba:	0f be       	out	0x3f, r0	; 63
    25bc:	cd bf       	out	0x3d, r28	; 61
    25be:	9a 8b       	std	Y+18, r25	; 0x12
    25c0:	89 8b       	std	Y+17, r24	; 0x11
    25c2:	6a 01       	movw	r12, r20
    25c4:	7b 01       	movw	r14, r22
    25c6:	48 01       	movw	r8, r16
    25c8:	59 01       	movw	r10, r18
    25ca:	dc 01       	movw	r26, r24
    25cc:	8c 91       	ld	r24, X
    25ce:	82 30       	cpi	r24, 0x02	; 2
    25d0:	09 f4       	brne	.+2      	; 0x25d4 <put_fat.part.5+0x4a>
    25d2:	9e c1       	rjmp	.+828    	; 0x2910 <put_fat.part.5+0x386>
    25d4:	83 30       	cpi	r24, 0x03	; 3
    25d6:	09 f4       	brne	.+2      	; 0x25da <put_fat.part.5+0x50>
    25d8:	2f c1       	rjmp	.+606    	; 0x2838 <put_fat.part.5+0x2ae>
    25da:	81 30       	cpi	r24, 0x01	; 1
    25dc:	d1 f0       	breq	.+52     	; 0x2612 <put_fat.part.5+0x88>
    25de:	82 e0       	ldi	r24, 0x02	; 2
    25e0:	62 96       	adiw	r28, 0x12	; 18
    25e2:	0f b6       	in	r0, 0x3f	; 63
    25e4:	f8 94       	cli
    25e6:	de bf       	out	0x3e, r29	; 62
    25e8:	0f be       	out	0x3f, r0	; 63
    25ea:	cd bf       	out	0x3d, r28	; 61
    25ec:	df 91       	pop	r29
    25ee:	cf 91       	pop	r28
    25f0:	1f 91       	pop	r17
    25f2:	0f 91       	pop	r16
    25f4:	ff 90       	pop	r15
    25f6:	ef 90       	pop	r14
    25f8:	df 90       	pop	r13
    25fa:	cf 90       	pop	r12
    25fc:	bf 90       	pop	r11
    25fe:	af 90       	pop	r10
    2600:	9f 90       	pop	r9
    2602:	8f 90       	pop	r8
    2604:	7f 90       	pop	r7
    2606:	6f 90       	pop	r6
    2608:	5f 90       	pop	r5
    260a:	4f 90       	pop	r4
    260c:	3f 90       	pop	r3
    260e:	2f 90       	pop	r2
    2610:	08 95       	ret
    2612:	ca 01       	movw	r24, r20
    2614:	96 95       	lsr	r25
    2616:	87 95       	ror	r24
    2618:	fc 01       	movw	r30, r24
    261a:	e4 0f       	add	r30, r20
    261c:	f5 1f       	adc	r31, r21
    261e:	fe 83       	std	Y+6, r31	; 0x06
    2620:	ed 83       	std	Y+5, r30	; 0x05
    2622:	5e 96       	adiw	r26, 0x1e	; 30
    2624:	8d 91       	ld	r24, X+
    2626:	9d 91       	ld	r25, X+
    2628:	0d 90       	ld	r0, X+
    262a:	bc 91       	ld	r27, X
    262c:	a0 2d       	mov	r26, r0
    262e:	9f 01       	movw	r18, r30
    2630:	23 2f       	mov	r18, r19
    2632:	33 27       	eor	r19, r19
    2634:	26 95       	lsr	r18
    2636:	ac 01       	movw	r20, r24
    2638:	bd 01       	movw	r22, r26
    263a:	42 0f       	add	r20, r18
    263c:	53 1f       	adc	r21, r19
    263e:	61 1d       	adc	r22, r1
    2640:	71 1d       	adc	r23, r1
    2642:	49 83       	std	Y+1, r20	; 0x01
    2644:	5a 83       	std	Y+2, r21	; 0x02
    2646:	6b 83       	std	Y+3, r22	; 0x03
    2648:	7c 83       	std	Y+4, r23	; 0x04
    264a:	e9 89       	ldd	r30, Y+17	; 0x11
    264c:	fa 89       	ldd	r31, Y+18	; 0x12
    264e:	42 a4       	ldd	r4, Z+42	; 0x2a
    2650:	53 a4       	ldd	r5, Z+43	; 0x2b
    2652:	64 a4       	ldd	r6, Z+44	; 0x2c
    2654:	75 a4       	ldd	r7, Z+45	; 0x2d
    2656:	44 15       	cp	r20, r4
    2658:	55 05       	cpc	r21, r5
    265a:	66 05       	cpc	r22, r6
    265c:	77 05       	cpc	r23, r7
    265e:	09 f4       	brne	.+2      	; 0x2662 <put_fat.part.5+0xd8>
    2660:	eb c2       	rjmp	.+1494   	; 0x2c38 <put_fat.part.5+0x6ae>
    2662:	84 81       	ldd	r24, Z+4	; 0x04
    2664:	81 11       	cpse	r24, r1
    2666:	58 c2       	rjmp	.+1200   	; 0x2b18 <put_fat.part.5+0x58e>
    2668:	be 96       	adiw	r30, 0x2e	; 46
    266a:	1f 01       	movw	r2, r30
    266c:	01 e0       	ldi	r16, 0x01	; 1
    266e:	10 e0       	ldi	r17, 0x00	; 0
    2670:	29 81       	ldd	r18, Y+1	; 0x01
    2672:	3a 81       	ldd	r19, Y+2	; 0x02
    2674:	4b 81       	ldd	r20, Y+3	; 0x03
    2676:	5c 81       	ldd	r21, Y+4	; 0x04
    2678:	b1 01       	movw	r22, r2
    267a:	e9 89       	ldd	r30, Y+17	; 0x11
    267c:	fa 89       	ldd	r31, Y+18	; 0x12
    267e:	81 81       	ldd	r24, Z+1	; 0x01
    2680:	0e 94 ef 33 	call	0x67de	; 0x67de <disk_read>
    2684:	81 11       	cpse	r24, r1
    2686:	9f c2       	rjmp	.+1342   	; 0x2bc6 <put_fat.part.5+0x63c>
    2688:	09 81       	ldd	r16, Y+1	; 0x01
    268a:	1a 81       	ldd	r17, Y+2	; 0x02
    268c:	2b 81       	ldd	r18, Y+3	; 0x03
    268e:	3c 81       	ldd	r19, Y+4	; 0x04
    2690:	a9 89       	ldd	r26, Y+17	; 0x11
    2692:	ba 89       	ldd	r27, Y+18	; 0x12
    2694:	9a 96       	adiw	r26, 0x2a	; 42
    2696:	0d 93       	st	X+, r16
    2698:	1d 93       	st	X+, r17
    269a:	2d 93       	st	X+, r18
    269c:	3c 93       	st	X, r19
    269e:	9d 97       	sbiw	r26, 0x2d	; 45
    26a0:	fd 01       	movw	r30, r26
    26a2:	86 8d       	ldd	r24, Z+30	; 0x1e
    26a4:	97 8d       	ldd	r25, Z+31	; 0x1f
    26a6:	a0 a1       	ldd	r26, Z+32	; 0x20
    26a8:	b1 a1       	ldd	r27, Z+33	; 0x21
    26aa:	28 01       	movw	r4, r16
    26ac:	39 01       	movw	r6, r18
    26ae:	0d 81       	ldd	r16, Y+5	; 0x05
    26b0:	1e 81       	ldd	r17, Y+6	; 0x06
    26b2:	0f 5f       	subi	r16, 0xFF	; 255
    26b4:	1f 4f       	sbci	r17, 0xFF	; 255
    26b6:	1a 87       	std	Y+10, r17	; 0x0a
    26b8:	09 87       	std	Y+9, r16	; 0x09
    26ba:	6d 81       	ldd	r22, Y+5	; 0x05
    26bc:	7e 81       	ldd	r23, Y+6	; 0x06
    26be:	71 70       	andi	r23, 0x01	; 1
    26c0:	a7 01       	movw	r20, r14
    26c2:	96 01       	movw	r18, r12
    26c4:	21 70       	andi	r18, 0x01	; 1
    26c6:	33 27       	eor	r19, r19
    26c8:	44 27       	eor	r20, r20
    26ca:	55 27       	eor	r21, r21
    26cc:	2d 87       	std	Y+13, r18	; 0x0d
    26ce:	3e 87       	std	Y+14, r19	; 0x0e
    26d0:	4f 87       	std	Y+15, r20	; 0x0f
    26d2:	58 8b       	std	Y+16, r21	; 0x10
    26d4:	e9 89       	ldd	r30, Y+17	; 0x11
    26d6:	fa 89       	ldd	r31, Y+18	; 0x12
    26d8:	e6 0f       	add	r30, r22
    26da:	f7 1f       	adc	r31, r23
    26dc:	c0 fe       	sbrs	r12, 0
    26de:	7e c2       	rjmp	.+1276   	; 0x2bdc <put_fat.part.5+0x652>
    26e0:	26 a5       	ldd	r18, Z+46	; 0x2e
    26e2:	42 2f       	mov	r20, r18
    26e4:	4f 70       	andi	r20, 0x0F	; 15
    26e6:	50 e1       	ldi	r21, 0x10	; 16
    26e8:	85 9e       	mul	r8, r21
    26ea:	90 01       	movw	r18, r0
    26ec:	11 24       	eor	r1, r1
    26ee:	24 2b       	or	r18, r20
    26f0:	26 a7       	std	Z+46, r18	; 0x2e
    26f2:	21 e0       	ldi	r18, 0x01	; 1
    26f4:	e9 89       	ldd	r30, Y+17	; 0x11
    26f6:	fa 89       	ldd	r31, Y+18	; 0x12
    26f8:	24 83       	std	Z+4, r18	; 0x04
    26fa:	98 01       	movw	r18, r16
    26fc:	23 2f       	mov	r18, r19
    26fe:	33 27       	eor	r19, r19
    2700:	26 95       	lsr	r18
    2702:	6c 01       	movw	r12, r24
    2704:	7d 01       	movw	r14, r26
    2706:	c2 0e       	add	r12, r18
    2708:	d3 1e       	adc	r13, r19
    270a:	e1 1c       	adc	r14, r1
    270c:	f1 1c       	adc	r15, r1
    270e:	09 81       	ldd	r16, Y+1	; 0x01
    2710:	1a 81       	ldd	r17, Y+2	; 0x02
    2712:	2b 81       	ldd	r18, Y+3	; 0x03
    2714:	3c 81       	ldd	r19, Y+4	; 0x04
    2716:	0c 15       	cp	r16, r12
    2718:	1d 05       	cpc	r17, r13
    271a:	2e 05       	cpc	r18, r14
    271c:	3f 05       	cpc	r19, r15
    271e:	09 f4       	brne	.+2      	; 0x2722 <put_fat.part.5+0x198>
    2720:	8e c2       	rjmp	.+1308   	; 0x2c3e <put_fat.part.5+0x6b4>
    2722:	29 89       	ldd	r18, Y+17	; 0x11
    2724:	3a 89       	ldd	r19, Y+18	; 0x12
    2726:	22 5d       	subi	r18, 0xD2	; 210
    2728:	3f 4f       	sbci	r19, 0xFF	; 255
    272a:	3e 83       	std	Y+6, r19	; 0x06
    272c:	2d 83       	std	Y+5, r18	; 0x05
    272e:	01 e0       	ldi	r16, 0x01	; 1
    2730:	10 e0       	ldi	r17, 0x00	; 0
    2732:	29 81       	ldd	r18, Y+1	; 0x01
    2734:	3a 81       	ldd	r19, Y+2	; 0x02
    2736:	4b 81       	ldd	r20, Y+3	; 0x03
    2738:	5c 81       	ldd	r21, Y+4	; 0x04
    273a:	6d 81       	ldd	r22, Y+5	; 0x05
    273c:	7e 81       	ldd	r23, Y+6	; 0x06
    273e:	a9 89       	ldd	r26, Y+17	; 0x11
    2740:	ba 89       	ldd	r27, Y+18	; 0x12
    2742:	11 96       	adiw	r26, 0x01	; 1
    2744:	8c 91       	ld	r24, X
    2746:	0e 94 74 34 	call	0x68e8	; 0x68e8 <disk_write>
    274a:	81 11       	cpse	r24, r1
    274c:	45 c2       	rjmp	.+1162   	; 0x2bd8 <put_fat.part.5+0x64e>
    274e:	e9 89       	ldd	r30, Y+17	; 0x11
    2750:	fa 89       	ldd	r31, Y+18	; 0x12
    2752:	14 82       	std	Z+4, r1	; 0x04
    2754:	86 89       	ldd	r24, Z+22	; 0x16
    2756:	97 89       	ldd	r25, Z+23	; 0x17
    2758:	a0 8d       	ldd	r26, Z+24	; 0x18
    275a:	b1 8d       	ldd	r27, Z+25	; 0x19
    275c:	46 8d       	ldd	r20, Z+30	; 0x1e
    275e:	57 8d       	ldd	r21, Z+31	; 0x1f
    2760:	60 a1       	ldd	r22, Z+32	; 0x20
    2762:	71 a1       	ldd	r23, Z+33	; 0x21
    2764:	09 81       	ldd	r16, Y+1	; 0x01
    2766:	1a 81       	ldd	r17, Y+2	; 0x02
    2768:	2b 81       	ldd	r18, Y+3	; 0x03
    276a:	3c 81       	ldd	r19, Y+4	; 0x04
    276c:	04 1b       	sub	r16, r20
    276e:	15 0b       	sbc	r17, r21
    2770:	26 0b       	sbc	r18, r22
    2772:	37 0b       	sbc	r19, r23
    2774:	08 17       	cp	r16, r24
    2776:	19 07       	cpc	r17, r25
    2778:	2a 07       	cpc	r18, r26
    277a:	3b 07       	cpc	r19, r27
    277c:	70 f5       	brcc	.+92     	; 0x27da <put_fat.part.5+0x250>
    277e:	23 81       	ldd	r18, Z+3	; 0x03
    2780:	22 2e       	mov	r2, r18
    2782:	31 2c       	mov	r3, r1
    2784:	12 e0       	ldi	r17, 0x02	; 2
    2786:	21 16       	cp	r2, r17
    2788:	31 04       	cpc	r3, r1
    278a:	38 f1       	brcs	.+78     	; 0x27da <put_fat.part.5+0x250>
    278c:	c9 82       	std	Y+1, r12	; 0x01
    278e:	da 82       	std	Y+2, r13	; 0x02
    2790:	eb 82       	std	Y+3, r14	; 0x03
    2792:	fc 82       	std	Y+4, r15	; 0x04
    2794:	ed 80       	ldd	r14, Y+5	; 0x05
    2796:	fe 80       	ldd	r15, Y+6	; 0x06
    2798:	06 c0       	rjmp	.+12     	; 0x27a6 <put_fat.part.5+0x21c>
    279a:	e9 89       	ldd	r30, Y+17	; 0x11
    279c:	fa 89       	ldd	r31, Y+18	; 0x12
    279e:	86 89       	ldd	r24, Z+22	; 0x16
    27a0:	97 89       	ldd	r25, Z+23	; 0x17
    27a2:	a0 8d       	ldd	r26, Z+24	; 0x18
    27a4:	b1 8d       	ldd	r27, Z+25	; 0x19
    27a6:	48 0e       	add	r4, r24
    27a8:	59 1e       	adc	r5, r25
    27aa:	6a 1e       	adc	r6, r26
    27ac:	7b 1e       	adc	r7, r27
    27ae:	01 e0       	ldi	r16, 0x01	; 1
    27b0:	10 e0       	ldi	r17, 0x00	; 0
    27b2:	a3 01       	movw	r20, r6
    27b4:	92 01       	movw	r18, r4
    27b6:	b7 01       	movw	r22, r14
    27b8:	a9 89       	ldd	r26, Y+17	; 0x11
    27ba:	ba 89       	ldd	r27, Y+18	; 0x12
    27bc:	11 96       	adiw	r26, 0x01	; 1
    27be:	8c 91       	ld	r24, X
    27c0:	0e 94 74 34 	call	0x68e8	; 0x68e8 <disk_write>
    27c4:	b1 e0       	ldi	r27, 0x01	; 1
    27c6:	2b 1a       	sub	r2, r27
    27c8:	31 08       	sbc	r3, r1
    27ca:	e1 e0       	ldi	r30, 0x01	; 1
    27cc:	2e 16       	cp	r2, r30
    27ce:	31 04       	cpc	r3, r1
    27d0:	21 f7       	brne	.-56     	; 0x279a <put_fat.part.5+0x210>
    27d2:	c9 80       	ldd	r12, Y+1	; 0x01
    27d4:	da 80       	ldd	r13, Y+2	; 0x02
    27d6:	eb 80       	ldd	r14, Y+3	; 0x03
    27d8:	fc 80       	ldd	r15, Y+4	; 0x04
    27da:	01 e0       	ldi	r16, 0x01	; 1
    27dc:	10 e0       	ldi	r17, 0x00	; 0
    27de:	a7 01       	movw	r20, r14
    27e0:	96 01       	movw	r18, r12
    27e2:	6d 81       	ldd	r22, Y+5	; 0x05
    27e4:	7e 81       	ldd	r23, Y+6	; 0x06
    27e6:	a9 89       	ldd	r26, Y+17	; 0x11
    27e8:	ba 89       	ldd	r27, Y+18	; 0x12
    27ea:	11 96       	adiw	r26, 0x01	; 1
    27ec:	8c 91       	ld	r24, X
    27ee:	0e 94 ef 33 	call	0x67de	; 0x67de <disk_read>
    27f2:	81 11       	cpse	r24, r1
    27f4:	e8 c1       	rjmp	.+976    	; 0x2bc6 <put_fat.part.5+0x63c>
    27f6:	a9 89       	ldd	r26, Y+17	; 0x11
    27f8:	ba 89       	ldd	r27, Y+18	; 0x12
    27fa:	9a 96       	adiw	r26, 0x2a	; 42
    27fc:	cd 92       	st	X+, r12
    27fe:	dd 92       	st	X+, r13
    2800:	ed 92       	st	X+, r14
    2802:	fc 92       	st	X, r15
    2804:	9d 97       	sbiw	r26, 0x2d	; 45
    2806:	e9 85       	ldd	r30, Y+9	; 0x09
    2808:	fa 85       	ldd	r31, Y+10	; 0x0a
    280a:	f1 70       	andi	r31, 0x01	; 1
    280c:	0d 85       	ldd	r16, Y+13	; 0x0d
    280e:	1e 85       	ldd	r17, Y+14	; 0x0e
    2810:	2f 85       	ldd	r18, Y+15	; 0x0f
    2812:	38 89       	ldd	r19, Y+16	; 0x10
    2814:	01 2b       	or	r16, r17
    2816:	02 2b       	or	r16, r18
    2818:	03 2b       	or	r16, r19
    281a:	09 f4       	brne	.+2      	; 0x281e <put_fat.part.5+0x294>
    281c:	fc c1       	rjmp	.+1016   	; 0x2c16 <put_fat.part.5+0x68c>
    281e:	54 e0       	ldi	r21, 0x04	; 4
    2820:	b6 94       	lsr	r11
    2822:	a7 94       	ror	r10
    2824:	97 94       	ror	r9
    2826:	87 94       	ror	r8
    2828:	5a 95       	dec	r21
    282a:	d1 f7       	brne	.-12     	; 0x2820 <put_fat.part.5+0x296>
    282c:	09 89       	ldd	r16, Y+17	; 0x11
    282e:	1a 89       	ldd	r17, Y+18	; 0x12
    2830:	e0 0f       	add	r30, r16
    2832:	f1 1f       	adc	r31, r17
    2834:	d8 01       	movw	r26, r16
    2836:	fa c1       	rjmp	.+1012   	; 0x2c2c <put_fat.part.5+0x6a2>
    2838:	e9 89       	ldd	r30, Y+17	; 0x11
    283a:	fa 89       	ldd	r31, Y+18	; 0x12
    283c:	46 8d       	ldd	r20, Z+30	; 0x1e
    283e:	57 8d       	ldd	r21, Z+31	; 0x1f
    2840:	60 a1       	ldd	r22, Z+32	; 0x20
    2842:	71 a1       	ldd	r23, Z+33	; 0x21
    2844:	d7 01       	movw	r26, r14
    2846:	c6 01       	movw	r24, r12
    2848:	27 e0       	ldi	r18, 0x07	; 7
    284a:	b6 95       	lsr	r27
    284c:	a7 95       	ror	r26
    284e:	97 95       	ror	r25
    2850:	87 95       	ror	r24
    2852:	2a 95       	dec	r18
    2854:	d1 f7       	brne	.-12     	; 0x284a <put_fat.part.5+0x2c0>
    2856:	8c 01       	movw	r16, r24
    2858:	9d 01       	movw	r18, r26
    285a:	04 0f       	add	r16, r20
    285c:	15 1f       	adc	r17, r21
    285e:	26 1f       	adc	r18, r22
    2860:	37 1f       	adc	r19, r23
    2862:	09 83       	std	Y+1, r16	; 0x01
    2864:	1a 83       	std	Y+2, r17	; 0x02
    2866:	2b 83       	std	Y+3, r18	; 0x03
    2868:	3c 83       	std	Y+4, r19	; 0x04
    286a:	42 a4       	ldd	r4, Z+42	; 0x2a
    286c:	53 a4       	ldd	r5, Z+43	; 0x2b
    286e:	64 a4       	ldd	r6, Z+44	; 0x2c
    2870:	75 a4       	ldd	r7, Z+45	; 0x2d
    2872:	04 15       	cp	r16, r4
    2874:	15 05       	cpc	r17, r5
    2876:	26 05       	cpc	r18, r6
    2878:	37 05       	cpc	r19, r7
    287a:	01 f1       	breq	.+64     	; 0x28bc <put_fat.part.5+0x332>
    287c:	84 81       	ldd	r24, Z+4	; 0x04
    287e:	81 11       	cpse	r24, r1
    2880:	f4 c0       	rjmp	.+488    	; 0x2a6a <put_fat.part.5+0x4e0>
    2882:	be 96       	adiw	r30, 0x2e	; 46
    2884:	1f 01       	movw	r2, r30
    2886:	01 e0       	ldi	r16, 0x01	; 1
    2888:	10 e0       	ldi	r17, 0x00	; 0
    288a:	29 81       	ldd	r18, Y+1	; 0x01
    288c:	3a 81       	ldd	r19, Y+2	; 0x02
    288e:	4b 81       	ldd	r20, Y+3	; 0x03
    2890:	5c 81       	ldd	r21, Y+4	; 0x04
    2892:	b1 01       	movw	r22, r2
    2894:	a9 89       	ldd	r26, Y+17	; 0x11
    2896:	ba 89       	ldd	r27, Y+18	; 0x12
    2898:	11 96       	adiw	r26, 0x01	; 1
    289a:	8c 91       	ld	r24, X
    289c:	0e 94 ef 33 	call	0x67de	; 0x67de <disk_read>
    28a0:	81 11       	cpse	r24, r1
    28a2:	91 c1       	rjmp	.+802    	; 0x2bc6 <put_fat.part.5+0x63c>
    28a4:	09 81       	ldd	r16, Y+1	; 0x01
    28a6:	1a 81       	ldd	r17, Y+2	; 0x02
    28a8:	2b 81       	ldd	r18, Y+3	; 0x03
    28aa:	3c 81       	ldd	r19, Y+4	; 0x04
    28ac:	a9 89       	ldd	r26, Y+17	; 0x11
    28ae:	ba 89       	ldd	r27, Y+18	; 0x12
    28b0:	9a 96       	adiw	r26, 0x2a	; 42
    28b2:	0d 93       	st	X+, r16
    28b4:	1d 93       	st	X+, r17
    28b6:	2d 93       	st	X+, r18
    28b8:	3c 93       	st	X, r19
    28ba:	9d 97       	sbiw	r26, 0x2d	; 45
    28bc:	cc 0c       	add	r12, r12
    28be:	dd 1c       	adc	r13, r13
    28c0:	ee 1c       	adc	r14, r14
    28c2:	ff 1c       	adc	r15, r15
    28c4:	cc 0c       	add	r12, r12
    28c6:	dd 1c       	adc	r13, r13
    28c8:	ee 1c       	adc	r14, r14
    28ca:	ff 1c       	adc	r15, r15
    28cc:	fc ef       	ldi	r31, 0xFC	; 252
    28ce:	cf 22       	and	r12, r31
    28d0:	f1 e0       	ldi	r31, 0x01	; 1
    28d2:	df 22       	and	r13, r31
    28d4:	ee 24       	eor	r14, r14
    28d6:	ff 24       	eor	r15, r15
    28d8:	f6 01       	movw	r30, r12
    28da:	be 96       	adiw	r30, 0x2e	; 46
    28dc:	09 89       	ldd	r16, Y+17	; 0x11
    28de:	1a 89       	ldd	r17, Y+18	; 0x12
    28e0:	e0 0f       	add	r30, r16
    28e2:	f1 1f       	adc	r31, r17
    28e4:	80 81       	ld	r24, Z
    28e6:	91 81       	ldd	r25, Z+1	; 0x01
    28e8:	a2 81       	ldd	r26, Z+2	; 0x02
    28ea:	b3 81       	ldd	r27, Z+3	; 0x03
    28ec:	88 27       	eor	r24, r24
    28ee:	99 27       	eor	r25, r25
    28f0:	aa 27       	eor	r26, r26
    28f2:	b0 7f       	andi	r27, 0xF0	; 240
    28f4:	88 2a       	or	r8, r24
    28f6:	99 2a       	or	r9, r25
    28f8:	aa 2a       	or	r10, r26
    28fa:	bb 2a       	or	r11, r27
    28fc:	80 82       	st	Z, r8
    28fe:	91 82       	std	Z+1, r9	; 0x01
    2900:	a2 82       	std	Z+2, r10	; 0x02
    2902:	b3 82       	std	Z+3, r11	; 0x03
    2904:	81 e0       	ldi	r24, 0x01	; 1
    2906:	d8 01       	movw	r26, r16
    2908:	14 96       	adiw	r26, 0x04	; 4
    290a:	8c 93       	st	X, r24
    290c:	80 e0       	ldi	r24, 0x00	; 0
    290e:	68 ce       	rjmp	.-816    	; 0x25e0 <put_fat.part.5+0x56>
    2910:	bb 27       	eor	r27, r27
    2912:	af 2d       	mov	r26, r15
    2914:	9e 2d       	mov	r25, r14
    2916:	8d 2d       	mov	r24, r13
    2918:	e9 89       	ldd	r30, Y+17	; 0x11
    291a:	fa 89       	ldd	r31, Y+18	; 0x12
    291c:	46 8d       	ldd	r20, Z+30	; 0x1e
    291e:	57 8d       	ldd	r21, Z+31	; 0x1f
    2920:	60 a1       	ldd	r22, Z+32	; 0x20
    2922:	71 a1       	ldd	r23, Z+33	; 0x21
    2924:	8c 01       	movw	r16, r24
    2926:	9d 01       	movw	r18, r26
    2928:	04 0f       	add	r16, r20
    292a:	15 1f       	adc	r17, r21
    292c:	26 1f       	adc	r18, r22
    292e:	37 1f       	adc	r19, r23
    2930:	09 83       	std	Y+1, r16	; 0x01
    2932:	1a 83       	std	Y+2, r17	; 0x02
    2934:	2b 83       	std	Y+3, r18	; 0x03
    2936:	3c 83       	std	Y+4, r19	; 0x04
    2938:	42 a4       	ldd	r4, Z+42	; 0x2a
    293a:	53 a4       	ldd	r5, Z+43	; 0x2b
    293c:	64 a4       	ldd	r6, Z+44	; 0x2c
    293e:	75 a4       	ldd	r7, Z+45	; 0x2d
    2940:	04 15       	cp	r16, r4
    2942:	15 05       	cpc	r17, r5
    2944:	26 05       	cpc	r18, r6
    2946:	37 05       	cpc	r19, r7
    2948:	f9 f0       	breq	.+62     	; 0x2988 <put_fat.part.5+0x3fe>
    294a:	84 81       	ldd	r24, Z+4	; 0x04
    294c:	81 11       	cpse	r24, r1
    294e:	36 c0       	rjmp	.+108    	; 0x29bc <put_fat.part.5+0x432>
    2950:	be 96       	adiw	r30, 0x2e	; 46
    2952:	1f 01       	movw	r2, r30
    2954:	01 e0       	ldi	r16, 0x01	; 1
    2956:	10 e0       	ldi	r17, 0x00	; 0
    2958:	29 81       	ldd	r18, Y+1	; 0x01
    295a:	3a 81       	ldd	r19, Y+2	; 0x02
    295c:	4b 81       	ldd	r20, Y+3	; 0x03
    295e:	5c 81       	ldd	r21, Y+4	; 0x04
    2960:	b1 01       	movw	r22, r2
    2962:	e9 89       	ldd	r30, Y+17	; 0x11
    2964:	fa 89       	ldd	r31, Y+18	; 0x12
    2966:	81 81       	ldd	r24, Z+1	; 0x01
    2968:	0e 94 ef 33 	call	0x67de	; 0x67de <disk_read>
    296c:	81 11       	cpse	r24, r1
    296e:	2b c1       	rjmp	.+598    	; 0x2bc6 <put_fat.part.5+0x63c>
    2970:	29 81       	ldd	r18, Y+1	; 0x01
    2972:	3a 81       	ldd	r19, Y+2	; 0x02
    2974:	4b 81       	ldd	r20, Y+3	; 0x03
    2976:	5c 81       	ldd	r21, Y+4	; 0x04
    2978:	a9 89       	ldd	r26, Y+17	; 0x11
    297a:	ba 89       	ldd	r27, Y+18	; 0x12
    297c:	9a 96       	adiw	r26, 0x2a	; 42
    297e:	2d 93       	st	X+, r18
    2980:	3d 93       	st	X+, r19
    2982:	4d 93       	st	X+, r20
    2984:	5c 93       	st	X, r21
    2986:	9d 97       	sbiw	r26, 0x2d	; 45
    2988:	cc 0c       	add	r12, r12
    298a:	dd 1c       	adc	r13, r13
    298c:	ee 1c       	adc	r14, r14
    298e:	ff 1c       	adc	r15, r15
    2990:	e8 94       	clt
    2992:	c0 f8       	bld	r12, 0
    2994:	f1 e0       	ldi	r31, 0x01	; 1
    2996:	df 22       	and	r13, r31
    2998:	ee 24       	eor	r14, r14
    299a:	ff 24       	eor	r15, r15
    299c:	0e e2       	ldi	r16, 0x2E	; 46
    299e:	c0 0e       	add	r12, r16
    29a0:	d1 1c       	adc	r13, r1
    29a2:	e9 89       	ldd	r30, Y+17	; 0x11
    29a4:	fa 89       	ldd	r31, Y+18	; 0x12
    29a6:	ec 0d       	add	r30, r12
    29a8:	fd 1d       	adc	r31, r13
    29aa:	91 82       	std	Z+1, r9	; 0x01
    29ac:	80 82       	st	Z, r8
    29ae:	81 e0       	ldi	r24, 0x01	; 1
    29b0:	a9 89       	ldd	r26, Y+17	; 0x11
    29b2:	ba 89       	ldd	r27, Y+18	; 0x12
    29b4:	14 96       	adiw	r26, 0x04	; 4
    29b6:	8c 93       	st	X, r24
    29b8:	80 e0       	ldi	r24, 0x00	; 0
    29ba:	12 ce       	rjmp	.-988    	; 0x25e0 <put_fat.part.5+0x56>
    29bc:	29 88       	ldd	r2, Y+17	; 0x11
    29be:	3a 88       	ldd	r3, Y+18	; 0x12
    29c0:	1e e2       	ldi	r17, 0x2E	; 46
    29c2:	21 0e       	add	r2, r17
    29c4:	31 1c       	adc	r3, r1
    29c6:	01 e0       	ldi	r16, 0x01	; 1
    29c8:	10 e0       	ldi	r17, 0x00	; 0
    29ca:	a3 01       	movw	r20, r6
    29cc:	92 01       	movw	r18, r4
    29ce:	b1 01       	movw	r22, r2
    29d0:	a9 89       	ldd	r26, Y+17	; 0x11
    29d2:	ba 89       	ldd	r27, Y+18	; 0x12
    29d4:	11 96       	adiw	r26, 0x01	; 1
    29d6:	8c 91       	ld	r24, X
    29d8:	0e 94 74 34 	call	0x68e8	; 0x68e8 <disk_write>
    29dc:	81 11       	cpse	r24, r1
    29de:	fc c0       	rjmp	.+504    	; 0x2bd8 <put_fat.part.5+0x64e>
    29e0:	e9 89       	ldd	r30, Y+17	; 0x11
    29e2:	fa 89       	ldd	r31, Y+18	; 0x12
    29e4:	14 82       	std	Z+4, r1	; 0x04
    29e6:	86 89       	ldd	r24, Z+22	; 0x16
    29e8:	97 89       	ldd	r25, Z+23	; 0x17
    29ea:	a0 8d       	ldd	r26, Z+24	; 0x18
    29ec:	b1 8d       	ldd	r27, Z+25	; 0x19
    29ee:	46 8d       	ldd	r20, Z+30	; 0x1e
    29f0:	57 8d       	ldd	r21, Z+31	; 0x1f
    29f2:	60 a1       	ldd	r22, Z+32	; 0x20
    29f4:	71 a1       	ldd	r23, Z+33	; 0x21
    29f6:	93 01       	movw	r18, r6
    29f8:	82 01       	movw	r16, r4
    29fa:	04 1b       	sub	r16, r20
    29fc:	15 0b       	sbc	r17, r21
    29fe:	26 0b       	sbc	r18, r22
    2a00:	37 0b       	sbc	r19, r23
    2a02:	08 17       	cp	r16, r24
    2a04:	19 07       	cpc	r17, r25
    2a06:	2a 07       	cpc	r18, r26
    2a08:	3b 07       	cpc	r19, r27
    2a0a:	08 f0       	brcs	.+2      	; 0x2a0e <put_fat.part.5+0x484>
    2a0c:	a3 cf       	rjmp	.-186    	; 0x2954 <put_fat.part.5+0x3ca>
    2a0e:	23 81       	ldd	r18, Z+3	; 0x03
    2a10:	02 2f       	mov	r16, r18
    2a12:	10 e0       	ldi	r17, 0x00	; 0
    2a14:	02 30       	cpi	r16, 0x02	; 2
    2a16:	11 05       	cpc	r17, r1
    2a18:	08 f4       	brcc	.+2      	; 0x2a1c <put_fat.part.5+0x492>
    2a1a:	9c cf       	rjmp	.-200    	; 0x2954 <put_fat.part.5+0x3ca>
    2a1c:	cd 82       	std	Y+5, r12	; 0x05
    2a1e:	de 82       	std	Y+6, r13	; 0x06
    2a20:	ef 82       	std	Y+7, r14	; 0x07
    2a22:	f8 86       	std	Y+8, r15	; 0x08
    2a24:	78 01       	movw	r14, r16
    2a26:	06 c0       	rjmp	.+12     	; 0x2a34 <put_fat.part.5+0x4aa>
    2a28:	e9 89       	ldd	r30, Y+17	; 0x11
    2a2a:	fa 89       	ldd	r31, Y+18	; 0x12
    2a2c:	86 89       	ldd	r24, Z+22	; 0x16
    2a2e:	97 89       	ldd	r25, Z+23	; 0x17
    2a30:	a0 8d       	ldd	r26, Z+24	; 0x18
    2a32:	b1 8d       	ldd	r27, Z+25	; 0x19
    2a34:	48 0e       	add	r4, r24
    2a36:	59 1e       	adc	r5, r25
    2a38:	6a 1e       	adc	r6, r26
    2a3a:	7b 1e       	adc	r7, r27
    2a3c:	01 e0       	ldi	r16, 0x01	; 1
    2a3e:	10 e0       	ldi	r17, 0x00	; 0
    2a40:	a3 01       	movw	r20, r6
    2a42:	92 01       	movw	r18, r4
    2a44:	b1 01       	movw	r22, r2
    2a46:	a9 89       	ldd	r26, Y+17	; 0x11
    2a48:	ba 89       	ldd	r27, Y+18	; 0x12
    2a4a:	11 96       	adiw	r26, 0x01	; 1
    2a4c:	8c 91       	ld	r24, X
    2a4e:	0e 94 74 34 	call	0x68e8	; 0x68e8 <disk_write>
    2a52:	b1 e0       	ldi	r27, 0x01	; 1
    2a54:	eb 1a       	sub	r14, r27
    2a56:	f1 08       	sbc	r15, r1
    2a58:	e1 e0       	ldi	r30, 0x01	; 1
    2a5a:	ee 16       	cp	r14, r30
    2a5c:	f1 04       	cpc	r15, r1
    2a5e:	21 f7       	brne	.-56     	; 0x2a28 <put_fat.part.5+0x49e>
    2a60:	cd 80       	ldd	r12, Y+5	; 0x05
    2a62:	de 80       	ldd	r13, Y+6	; 0x06
    2a64:	ef 80       	ldd	r14, Y+7	; 0x07
    2a66:	f8 84       	ldd	r15, Y+8	; 0x08
    2a68:	75 cf       	rjmp	.-278    	; 0x2954 <put_fat.part.5+0x3ca>
    2a6a:	29 88       	ldd	r2, Y+17	; 0x11
    2a6c:	3a 88       	ldd	r3, Y+18	; 0x12
    2a6e:	1e e2       	ldi	r17, 0x2E	; 46
    2a70:	21 0e       	add	r2, r17
    2a72:	31 1c       	adc	r3, r1
    2a74:	01 e0       	ldi	r16, 0x01	; 1
    2a76:	10 e0       	ldi	r17, 0x00	; 0
    2a78:	a3 01       	movw	r20, r6
    2a7a:	92 01       	movw	r18, r4
    2a7c:	b1 01       	movw	r22, r2
    2a7e:	a9 89       	ldd	r26, Y+17	; 0x11
    2a80:	ba 89       	ldd	r27, Y+18	; 0x12
    2a82:	11 96       	adiw	r26, 0x01	; 1
    2a84:	8c 91       	ld	r24, X
    2a86:	0e 94 74 34 	call	0x68e8	; 0x68e8 <disk_write>
    2a8a:	81 11       	cpse	r24, r1
    2a8c:	a5 c0       	rjmp	.+330    	; 0x2bd8 <put_fat.part.5+0x64e>
    2a8e:	e9 89       	ldd	r30, Y+17	; 0x11
    2a90:	fa 89       	ldd	r31, Y+18	; 0x12
    2a92:	14 82       	std	Z+4, r1	; 0x04
    2a94:	86 89       	ldd	r24, Z+22	; 0x16
    2a96:	97 89       	ldd	r25, Z+23	; 0x17
    2a98:	a0 8d       	ldd	r26, Z+24	; 0x18
    2a9a:	b1 8d       	ldd	r27, Z+25	; 0x19
    2a9c:	46 8d       	ldd	r20, Z+30	; 0x1e
    2a9e:	57 8d       	ldd	r21, Z+31	; 0x1f
    2aa0:	60 a1       	ldd	r22, Z+32	; 0x20
    2aa2:	71 a1       	ldd	r23, Z+33	; 0x21
    2aa4:	93 01       	movw	r18, r6
    2aa6:	82 01       	movw	r16, r4
    2aa8:	04 1b       	sub	r16, r20
    2aaa:	15 0b       	sbc	r17, r21
    2aac:	26 0b       	sbc	r18, r22
    2aae:	37 0b       	sbc	r19, r23
    2ab0:	08 17       	cp	r16, r24
    2ab2:	19 07       	cpc	r17, r25
    2ab4:	2a 07       	cpc	r18, r26
    2ab6:	3b 07       	cpc	r19, r27
    2ab8:	08 f0       	brcs	.+2      	; 0x2abc <put_fat.part.5+0x532>
    2aba:	e5 ce       	rjmp	.-566    	; 0x2886 <put_fat.part.5+0x2fc>
    2abc:	23 81       	ldd	r18, Z+3	; 0x03
    2abe:	02 2f       	mov	r16, r18
    2ac0:	10 e0       	ldi	r17, 0x00	; 0
    2ac2:	02 30       	cpi	r16, 0x02	; 2
    2ac4:	11 05       	cpc	r17, r1
    2ac6:	08 f4       	brcc	.+2      	; 0x2aca <put_fat.part.5+0x540>
    2ac8:	de ce       	rjmp	.-580    	; 0x2886 <put_fat.part.5+0x2fc>
    2aca:	cd 82       	std	Y+5, r12	; 0x05
    2acc:	de 82       	std	Y+6, r13	; 0x06
    2ace:	ef 82       	std	Y+7, r14	; 0x07
    2ad0:	f8 86       	std	Y+8, r15	; 0x08
    2ad2:	78 01       	movw	r14, r16
    2ad4:	06 c0       	rjmp	.+12     	; 0x2ae2 <put_fat.part.5+0x558>
    2ad6:	e9 89       	ldd	r30, Y+17	; 0x11
    2ad8:	fa 89       	ldd	r31, Y+18	; 0x12
    2ada:	86 89       	ldd	r24, Z+22	; 0x16
    2adc:	97 89       	ldd	r25, Z+23	; 0x17
    2ade:	a0 8d       	ldd	r26, Z+24	; 0x18
    2ae0:	b1 8d       	ldd	r27, Z+25	; 0x19
    2ae2:	48 0e       	add	r4, r24
    2ae4:	59 1e       	adc	r5, r25
    2ae6:	6a 1e       	adc	r6, r26
    2ae8:	7b 1e       	adc	r7, r27
    2aea:	01 e0       	ldi	r16, 0x01	; 1
    2aec:	10 e0       	ldi	r17, 0x00	; 0
    2aee:	a3 01       	movw	r20, r6
    2af0:	92 01       	movw	r18, r4
    2af2:	b1 01       	movw	r22, r2
    2af4:	a9 89       	ldd	r26, Y+17	; 0x11
    2af6:	ba 89       	ldd	r27, Y+18	; 0x12
    2af8:	11 96       	adiw	r26, 0x01	; 1
    2afa:	8c 91       	ld	r24, X
    2afc:	0e 94 74 34 	call	0x68e8	; 0x68e8 <disk_write>
    2b00:	b1 e0       	ldi	r27, 0x01	; 1
    2b02:	eb 1a       	sub	r14, r27
    2b04:	f1 08       	sbc	r15, r1
    2b06:	e1 e0       	ldi	r30, 0x01	; 1
    2b08:	ee 16       	cp	r14, r30
    2b0a:	f1 04       	cpc	r15, r1
    2b0c:	21 f7       	brne	.-56     	; 0x2ad6 <put_fat.part.5+0x54c>
    2b0e:	cd 80       	ldd	r12, Y+5	; 0x05
    2b10:	de 80       	ldd	r13, Y+6	; 0x06
    2b12:	ef 80       	ldd	r14, Y+7	; 0x07
    2b14:	f8 84       	ldd	r15, Y+8	; 0x08
    2b16:	b7 ce       	rjmp	.-658    	; 0x2886 <put_fat.part.5+0x2fc>
    2b18:	29 88       	ldd	r2, Y+17	; 0x11
    2b1a:	3a 88       	ldd	r3, Y+18	; 0x12
    2b1c:	fe e2       	ldi	r31, 0x2E	; 46
    2b1e:	2f 0e       	add	r2, r31
    2b20:	31 1c       	adc	r3, r1
    2b22:	01 e0       	ldi	r16, 0x01	; 1
    2b24:	10 e0       	ldi	r17, 0x00	; 0
    2b26:	a3 01       	movw	r20, r6
    2b28:	92 01       	movw	r18, r4
    2b2a:	b1 01       	movw	r22, r2
    2b2c:	a9 89       	ldd	r26, Y+17	; 0x11
    2b2e:	ba 89       	ldd	r27, Y+18	; 0x12
    2b30:	11 96       	adiw	r26, 0x01	; 1
    2b32:	8c 91       	ld	r24, X
    2b34:	0e 94 74 34 	call	0x68e8	; 0x68e8 <disk_write>
    2b38:	81 11       	cpse	r24, r1
    2b3a:	4e c0       	rjmp	.+156    	; 0x2bd8 <put_fat.part.5+0x64e>
    2b3c:	e9 89       	ldd	r30, Y+17	; 0x11
    2b3e:	fa 89       	ldd	r31, Y+18	; 0x12
    2b40:	14 82       	std	Z+4, r1	; 0x04
    2b42:	86 89       	ldd	r24, Z+22	; 0x16
    2b44:	97 89       	ldd	r25, Z+23	; 0x17
    2b46:	a0 8d       	ldd	r26, Z+24	; 0x18
    2b48:	b1 8d       	ldd	r27, Z+25	; 0x19
    2b4a:	46 8d       	ldd	r20, Z+30	; 0x1e
    2b4c:	57 8d       	ldd	r21, Z+31	; 0x1f
    2b4e:	60 a1       	ldd	r22, Z+32	; 0x20
    2b50:	71 a1       	ldd	r23, Z+33	; 0x21
    2b52:	93 01       	movw	r18, r6
    2b54:	82 01       	movw	r16, r4
    2b56:	04 1b       	sub	r16, r20
    2b58:	15 0b       	sbc	r17, r21
    2b5a:	26 0b       	sbc	r18, r22
    2b5c:	37 0b       	sbc	r19, r23
    2b5e:	08 17       	cp	r16, r24
    2b60:	19 07       	cpc	r17, r25
    2b62:	2a 07       	cpc	r18, r26
    2b64:	3b 07       	cpc	r19, r27
    2b66:	08 f0       	brcs	.+2      	; 0x2b6a <put_fat.part.5+0x5e0>
    2b68:	81 cd       	rjmp	.-1278   	; 0x266c <put_fat.part.5+0xe2>
    2b6a:	23 81       	ldd	r18, Z+3	; 0x03
    2b6c:	02 2f       	mov	r16, r18
    2b6e:	10 e0       	ldi	r17, 0x00	; 0
    2b70:	02 30       	cpi	r16, 0x02	; 2
    2b72:	11 05       	cpc	r17, r1
    2b74:	08 f4       	brcc	.+2      	; 0x2b78 <put_fat.part.5+0x5ee>
    2b76:	7a cd       	rjmp	.-1292   	; 0x266c <put_fat.part.5+0xe2>
    2b78:	c9 86       	std	Y+9, r12	; 0x09
    2b7a:	da 86       	std	Y+10, r13	; 0x0a
    2b7c:	eb 86       	std	Y+11, r14	; 0x0b
    2b7e:	fc 86       	std	Y+12, r15	; 0x0c
    2b80:	78 01       	movw	r14, r16
    2b82:	06 c0       	rjmp	.+12     	; 0x2b90 <put_fat.part.5+0x606>
    2b84:	e9 89       	ldd	r30, Y+17	; 0x11
    2b86:	fa 89       	ldd	r31, Y+18	; 0x12
    2b88:	86 89       	ldd	r24, Z+22	; 0x16
    2b8a:	97 89       	ldd	r25, Z+23	; 0x17
    2b8c:	a0 8d       	ldd	r26, Z+24	; 0x18
    2b8e:	b1 8d       	ldd	r27, Z+25	; 0x19
    2b90:	48 0e       	add	r4, r24
    2b92:	59 1e       	adc	r5, r25
    2b94:	6a 1e       	adc	r6, r26
    2b96:	7b 1e       	adc	r7, r27
    2b98:	01 e0       	ldi	r16, 0x01	; 1
    2b9a:	10 e0       	ldi	r17, 0x00	; 0
    2b9c:	a3 01       	movw	r20, r6
    2b9e:	92 01       	movw	r18, r4
    2ba0:	b1 01       	movw	r22, r2
    2ba2:	a9 89       	ldd	r26, Y+17	; 0x11
    2ba4:	ba 89       	ldd	r27, Y+18	; 0x12
    2ba6:	11 96       	adiw	r26, 0x01	; 1
    2ba8:	8c 91       	ld	r24, X
    2baa:	0e 94 74 34 	call	0x68e8	; 0x68e8 <disk_write>
    2bae:	b1 e0       	ldi	r27, 0x01	; 1
    2bb0:	eb 1a       	sub	r14, r27
    2bb2:	f1 08       	sbc	r15, r1
    2bb4:	e1 e0       	ldi	r30, 0x01	; 1
    2bb6:	ee 16       	cp	r14, r30
    2bb8:	f1 04       	cpc	r15, r1
    2bba:	21 f7       	brne	.-56     	; 0x2b84 <put_fat.part.5+0x5fa>
    2bbc:	c9 84       	ldd	r12, Y+9	; 0x09
    2bbe:	da 84       	ldd	r13, Y+10	; 0x0a
    2bc0:	eb 84       	ldd	r14, Y+11	; 0x0b
    2bc2:	fc 84       	ldd	r15, Y+12	; 0x0c
    2bc4:	53 cd       	rjmp	.-1370   	; 0x266c <put_fat.part.5+0xe2>
    2bc6:	8f ef       	ldi	r24, 0xFF	; 255
    2bc8:	9f ef       	ldi	r25, 0xFF	; 255
    2bca:	dc 01       	movw	r26, r24
    2bcc:	e9 89       	ldd	r30, Y+17	; 0x11
    2bce:	fa 89       	ldd	r31, Y+18	; 0x12
    2bd0:	82 a7       	std	Z+42, r24	; 0x2a
    2bd2:	93 a7       	std	Z+43, r25	; 0x2b
    2bd4:	a4 a7       	std	Z+44, r26	; 0x2c
    2bd6:	b5 a7       	std	Z+45, r27	; 0x2d
    2bd8:	81 e0       	ldi	r24, 0x01	; 1
    2bda:	02 cd       	rjmp	.-1532   	; 0x25e0 <put_fat.part.5+0x56>
    2bdc:	86 a6       	std	Z+46, r8	; 0x2e
    2bde:	21 e0       	ldi	r18, 0x01	; 1
    2be0:	e9 89       	ldd	r30, Y+17	; 0x11
    2be2:	fa 89       	ldd	r31, Y+18	; 0x12
    2be4:	24 83       	std	Z+4, r18	; 0x04
    2be6:	29 85       	ldd	r18, Y+9	; 0x09
    2be8:	3a 85       	ldd	r19, Y+10	; 0x0a
    2bea:	23 2f       	mov	r18, r19
    2bec:	33 27       	eor	r19, r19
    2bee:	26 95       	lsr	r18
    2bf0:	6c 01       	movw	r12, r24
    2bf2:	7d 01       	movw	r14, r26
    2bf4:	c2 0e       	add	r12, r18
    2bf6:	d3 1e       	adc	r13, r19
    2bf8:	e1 1c       	adc	r14, r1
    2bfa:	f1 1c       	adc	r15, r1
    2bfc:	09 81       	ldd	r16, Y+1	; 0x01
    2bfe:	1a 81       	ldd	r17, Y+2	; 0x02
    2c00:	2b 81       	ldd	r18, Y+3	; 0x03
    2c02:	3c 81       	ldd	r19, Y+4	; 0x04
    2c04:	c0 16       	cp	r12, r16
    2c06:	d1 06       	cpc	r13, r17
    2c08:	e2 06       	cpc	r14, r18
    2c0a:	f3 06       	cpc	r15, r19
    2c0c:	09 f0       	breq	.+2      	; 0x2c10 <put_fat.part.5+0x686>
    2c0e:	89 cd       	rjmp	.-1262   	; 0x2722 <put_fat.part.5+0x198>
    2c10:	e9 85       	ldd	r30, Y+9	; 0x09
    2c12:	fa 85       	ldd	r31, Y+10	; 0x0a
    2c14:	f1 70       	andi	r31, 0x01	; 1
    2c16:	29 89       	ldd	r18, Y+17	; 0x11
    2c18:	3a 89       	ldd	r19, Y+18	; 0x12
    2c1a:	e2 0f       	add	r30, r18
    2c1c:	f3 1f       	adc	r31, r19
    2c1e:	96 a5       	ldd	r25, Z+46	; 0x2e
    2c20:	90 7f       	andi	r25, 0xF0	; 240
    2c22:	89 2d       	mov	r24, r9
    2c24:	8f 70       	andi	r24, 0x0F	; 15
    2c26:	89 2e       	mov	r8, r25
    2c28:	88 2a       	or	r8, r24
    2c2a:	d9 01       	movw	r26, r18
    2c2c:	86 a6       	std	Z+46, r8	; 0x2e
    2c2e:	81 e0       	ldi	r24, 0x01	; 1
    2c30:	14 96       	adiw	r26, 0x04	; 4
    2c32:	8c 93       	st	X, r24
    2c34:	80 e0       	ldi	r24, 0x00	; 0
    2c36:	d4 cc       	rjmp	.-1624   	; 0x25e0 <put_fat.part.5+0x56>
    2c38:	2a 01       	movw	r4, r20
    2c3a:	3b 01       	movw	r6, r22
    2c3c:	38 cd       	rjmp	.-1424   	; 0x26ae <put_fat.part.5+0x124>
    2c3e:	e9 85       	ldd	r30, Y+9	; 0x09
    2c40:	fa 85       	ldd	r31, Y+10	; 0x0a
    2c42:	f1 70       	andi	r31, 0x01	; 1
    2c44:	ec cd       	rjmp	.-1064   	; 0x281e <put_fat.part.5+0x294>

00002c46 <get_fat.part.4>:
    2c46:	2f 92       	push	r2
    2c48:	3f 92       	push	r3
    2c4a:	4f 92       	push	r4
    2c4c:	5f 92       	push	r5
    2c4e:	6f 92       	push	r6
    2c50:	7f 92       	push	r7
    2c52:	8f 92       	push	r8
    2c54:	9f 92       	push	r9
    2c56:	af 92       	push	r10
    2c58:	bf 92       	push	r11
    2c5a:	cf 92       	push	r12
    2c5c:	df 92       	push	r13
    2c5e:	ef 92       	push	r14
    2c60:	ff 92       	push	r15
    2c62:	0f 93       	push	r16
    2c64:	1f 93       	push	r17
    2c66:	cf 93       	push	r28
    2c68:	df 93       	push	r29
    2c6a:	cd b7       	in	r28, 0x3d	; 61
    2c6c:	de b7       	in	r29, 0x3e	; 62
    2c6e:	60 97       	sbiw	r28, 0x10	; 16
    2c70:	0f b6       	in	r0, 0x3f	; 63
    2c72:	f8 94       	cli
    2c74:	de bf       	out	0x3e, r29	; 62
    2c76:	0f be       	out	0x3f, r0	; 63
    2c78:	cd bf       	out	0x3d, r28	; 61
    2c7a:	98 8b       	std	Y+16, r25	; 0x10
    2c7c:	8f 87       	std	Y+15, r24	; 0x0f
    2c7e:	6a 01       	movw	r12, r20
    2c80:	7b 01       	movw	r14, r22
    2c82:	dc 01       	movw	r26, r24
    2c84:	8c 91       	ld	r24, X
    2c86:	82 30       	cpi	r24, 0x02	; 2
    2c88:	09 f4       	brne	.+2      	; 0x2c8c <get_fat.part.4+0x46>
    2c8a:	0f c1       	rjmp	.+542    	; 0x2eaa <get_fat.part.4+0x264>
    2c8c:	83 30       	cpi	r24, 0x03	; 3
    2c8e:	09 f4       	brne	.+2      	; 0x2c92 <get_fat.part.4+0x4c>
    2c90:	b9 c0       	rjmp	.+370    	; 0x2e04 <get_fat.part.4+0x1be>
    2c92:	81 30       	cpi	r24, 0x01	; 1
    2c94:	e9 f0       	breq	.+58     	; 0x2cd0 <get_fat.part.4+0x8a>
    2c96:	61 e0       	ldi	r22, 0x01	; 1
    2c98:	70 e0       	ldi	r23, 0x00	; 0
    2c9a:	80 e0       	ldi	r24, 0x00	; 0
    2c9c:	90 e0       	ldi	r25, 0x00	; 0
    2c9e:	60 96       	adiw	r28, 0x10	; 16
    2ca0:	0f b6       	in	r0, 0x3f	; 63
    2ca2:	f8 94       	cli
    2ca4:	de bf       	out	0x3e, r29	; 62
    2ca6:	0f be       	out	0x3f, r0	; 63
    2ca8:	cd bf       	out	0x3d, r28	; 61
    2caa:	df 91       	pop	r29
    2cac:	cf 91       	pop	r28
    2cae:	1f 91       	pop	r17
    2cb0:	0f 91       	pop	r16
    2cb2:	ff 90       	pop	r15
    2cb4:	ef 90       	pop	r14
    2cb6:	df 90       	pop	r13
    2cb8:	cf 90       	pop	r12
    2cba:	bf 90       	pop	r11
    2cbc:	af 90       	pop	r10
    2cbe:	9f 90       	pop	r9
    2cc0:	8f 90       	pop	r8
    2cc2:	7f 90       	pop	r7
    2cc4:	6f 90       	pop	r6
    2cc6:	5f 90       	pop	r5
    2cc8:	4f 90       	pop	r4
    2cca:	3f 90       	pop	r3
    2ccc:	2f 90       	pop	r2
    2cce:	08 95       	ret
    2cd0:	ca 01       	movw	r24, r20
    2cd2:	96 95       	lsr	r25
    2cd4:	87 95       	ror	r24
    2cd6:	fc 01       	movw	r30, r24
    2cd8:	ec 0d       	add	r30, r12
    2cda:	fd 1d       	adc	r31, r13
    2cdc:	fa 83       	std	Y+2, r31	; 0x02
    2cde:	e9 83       	std	Y+1, r30	; 0x01
    2ce0:	5e 96       	adiw	r26, 0x1e	; 30
    2ce2:	8d 91       	ld	r24, X+
    2ce4:	9d 91       	ld	r25, X+
    2ce6:	0d 90       	ld	r0, X+
    2ce8:	bc 91       	ld	r27, X
    2cea:	a0 2d       	mov	r26, r0
    2cec:	9f 01       	movw	r18, r30
    2cee:	23 2f       	mov	r18, r19
    2cf0:	33 27       	eor	r19, r19
    2cf2:	26 95       	lsr	r18
    2cf4:	4c 01       	movw	r8, r24
    2cf6:	5d 01       	movw	r10, r26
    2cf8:	82 0e       	add	r8, r18
    2cfa:	93 1e       	adc	r9, r19
    2cfc:	a1 1c       	adc	r10, r1
    2cfe:	b1 1c       	adc	r11, r1
    2d00:	ef 85       	ldd	r30, Y+15	; 0x0f
    2d02:	f8 89       	ldd	r31, Y+16	; 0x10
    2d04:	42 a4       	ldd	r4, Z+42	; 0x2a
    2d06:	53 a4       	ldd	r5, Z+43	; 0x2b
    2d08:	64 a4       	ldd	r6, Z+44	; 0x2c
    2d0a:	75 a4       	ldd	r7, Z+45	; 0x2d
    2d0c:	84 14       	cp	r8, r4
    2d0e:	95 04       	cpc	r9, r5
    2d10:	a6 04       	cpc	r10, r6
    2d12:	b7 04       	cpc	r11, r7
    2d14:	09 f4       	brne	.+2      	; 0x2d18 <get_fat.part.4+0xd2>
    2d16:	1d c2       	rjmp	.+1082   	; 0x3152 <get_fat.part.4+0x50c>
    2d18:	84 81       	ldd	r24, Z+4	; 0x04
    2d1a:	81 11       	cpse	r24, r1
    2d1c:	b6 c1       	rjmp	.+876    	; 0x308a <get_fat.part.4+0x444>
    2d1e:	be 96       	adiw	r30, 0x2e	; 46
    2d20:	1f 01       	movw	r2, r30
    2d22:	01 e0       	ldi	r16, 0x01	; 1
    2d24:	10 e0       	ldi	r17, 0x00	; 0
    2d26:	a5 01       	movw	r20, r10
    2d28:	94 01       	movw	r18, r8
    2d2a:	b1 01       	movw	r22, r2
    2d2c:	af 85       	ldd	r26, Y+15	; 0x0f
    2d2e:	b8 89       	ldd	r27, Y+16	; 0x10
    2d30:	11 96       	adiw	r26, 0x01	; 1
    2d32:	8c 91       	ld	r24, X
    2d34:	0e 94 ef 33 	call	0x67de	; 0x67de <disk_read>
    2d38:	81 11       	cpse	r24, r1
    2d3a:	fe c1       	rjmp	.+1020   	; 0x3138 <get_fat.part.4+0x4f2>
    2d3c:	af 85       	ldd	r26, Y+15	; 0x0f
    2d3e:	b8 89       	ldd	r27, Y+16	; 0x10
    2d40:	9a 96       	adiw	r26, 0x2a	; 42
    2d42:	8d 92       	st	X+, r8
    2d44:	9d 92       	st	X+, r9
    2d46:	ad 92       	st	X+, r10
    2d48:	bc 92       	st	X, r11
    2d4a:	9d 97       	sbiw	r26, 0x2d	; 45
    2d4c:	fd 01       	movw	r30, r26
    2d4e:	86 8d       	ldd	r24, Z+30	; 0x1e
    2d50:	97 8d       	ldd	r25, Z+31	; 0x1f
    2d52:	a0 a1       	ldd	r26, Z+32	; 0x20
    2d54:	b1 a1       	ldd	r27, Z+33	; 0x21
    2d56:	8d 82       	std	Y+5, r8	; 0x05
    2d58:	9e 82       	std	Y+6, r9	; 0x06
    2d5a:	af 82       	std	Y+7, r10	; 0x07
    2d5c:	b8 86       	std	Y+8, r11	; 0x08
    2d5e:	09 81       	ldd	r16, Y+1	; 0x01
    2d60:	1a 81       	ldd	r17, Y+2	; 0x02
    2d62:	0f 5f       	subi	r16, 0xFF	; 255
    2d64:	1f 4f       	sbci	r17, 0xFF	; 255
    2d66:	1a 87       	std	Y+10, r17	; 0x0a
    2d68:	09 87       	std	Y+9, r16	; 0x09
    2d6a:	29 81       	ldd	r18, Y+1	; 0x01
    2d6c:	3a 81       	ldd	r19, Y+2	; 0x02
    2d6e:	31 70       	andi	r19, 0x01	; 1
    2d70:	4f 85       	ldd	r20, Y+15	; 0x0f
    2d72:	58 89       	ldd	r21, Y+16	; 0x10
    2d74:	42 0f       	add	r20, r18
    2d76:	53 1f       	adc	r21, r19
    2d78:	fa 01       	movw	r30, r20
    2d7a:	f6 a5       	ldd	r31, Z+46	; 0x2e
    2d7c:	f9 83       	std	Y+1, r31	; 0x01
    2d7e:	98 01       	movw	r18, r16
    2d80:	23 2f       	mov	r18, r19
    2d82:	33 27       	eor	r19, r19
    2d84:	26 95       	lsr	r18
    2d86:	2c 01       	movw	r4, r24
    2d88:	3d 01       	movw	r6, r26
    2d8a:	42 0e       	add	r4, r18
    2d8c:	53 1e       	adc	r5, r19
    2d8e:	61 1c       	adc	r6, r1
    2d90:	71 1c       	adc	r7, r1
    2d92:	48 14       	cp	r4, r8
    2d94:	59 04       	cpc	r5, r9
    2d96:	6a 04       	cpc	r6, r10
    2d98:	7b 04       	cpc	r7, r11
    2d9a:	e9 f0       	breq	.+58     	; 0x2dd6 <get_fat.part.4+0x190>
    2d9c:	af 85       	ldd	r26, Y+15	; 0x0f
    2d9e:	b8 89       	ldd	r27, Y+16	; 0x10
    2da0:	14 96       	adiw	r26, 0x04	; 4
    2da2:	8c 91       	ld	r24, X
    2da4:	14 97       	sbiw	r26, 0x04	; 4
    2da6:	81 11       	cpse	r24, r1
    2da8:	d9 c1       	rjmp	.+946    	; 0x315c <get_fat.part.4+0x516>
    2daa:	9e 96       	adiw	r26, 0x2e	; 46
    2dac:	1d 01       	movw	r2, r26
    2dae:	01 e0       	ldi	r16, 0x01	; 1
    2db0:	10 e0       	ldi	r17, 0x00	; 0
    2db2:	a3 01       	movw	r20, r6
    2db4:	92 01       	movw	r18, r4
    2db6:	b1 01       	movw	r22, r2
    2db8:	ef 85       	ldd	r30, Y+15	; 0x0f
    2dba:	f8 89       	ldd	r31, Y+16	; 0x10
    2dbc:	81 81       	ldd	r24, Z+1	; 0x01
    2dbe:	0e 94 ef 33 	call	0x67de	; 0x67de <disk_read>
    2dc2:	81 11       	cpse	r24, r1
    2dc4:	b9 c1       	rjmp	.+882    	; 0x3138 <get_fat.part.4+0x4f2>
    2dc6:	af 85       	ldd	r26, Y+15	; 0x0f
    2dc8:	b8 89       	ldd	r27, Y+16	; 0x10
    2dca:	9a 96       	adiw	r26, 0x2a	; 42
    2dcc:	4d 92       	st	X+, r4
    2dce:	5d 92       	st	X+, r5
    2dd0:	6d 92       	st	X+, r6
    2dd2:	7c 92       	st	X, r7
    2dd4:	9d 97       	sbiw	r26, 0x2d	; 45
    2dd6:	e9 85       	ldd	r30, Y+9	; 0x09
    2dd8:	fa 85       	ldd	r31, Y+10	; 0x0a
    2dda:	f1 70       	andi	r31, 0x01	; 1
    2ddc:	0f 85       	ldd	r16, Y+15	; 0x0f
    2dde:	18 89       	ldd	r17, Y+16	; 0x10
    2de0:	e0 0f       	add	r30, r16
    2de2:	f1 1f       	adc	r31, r17
    2de4:	86 a5       	ldd	r24, Z+46	; 0x2e
    2de6:	99 81       	ldd	r25, Y+1	; 0x01
    2de8:	69 2f       	mov	r22, r25
    2dea:	70 e0       	ldi	r23, 0x00	; 0
    2dec:	78 2b       	or	r23, r24
    2dee:	c0 fe       	sbrs	r12, 0
    2df0:	11 c2       	rjmp	.+1058   	; 0x3214 <get_fat.part.4+0x5ce>
    2df2:	72 95       	swap	r23
    2df4:	62 95       	swap	r22
    2df6:	6f 70       	andi	r22, 0x0F	; 15
    2df8:	67 27       	eor	r22, r23
    2dfa:	7f 70       	andi	r23, 0x0F	; 15
    2dfc:	67 27       	eor	r22, r23
    2dfe:	80 e0       	ldi	r24, 0x00	; 0
    2e00:	90 e0       	ldi	r25, 0x00	; 0
    2e02:	4d cf       	rjmp	.-358    	; 0x2c9e <get_fat.part.4+0x58>
    2e04:	af 85       	ldd	r26, Y+15	; 0x0f
    2e06:	b8 89       	ldd	r27, Y+16	; 0x10
    2e08:	5e 96       	adiw	r26, 0x1e	; 30
    2e0a:	8d 90       	ld	r8, X+
    2e0c:	9d 90       	ld	r9, X+
    2e0e:	ad 90       	ld	r10, X+
    2e10:	bc 90       	ld	r11, X
    2e12:	91 97       	sbiw	r26, 0x21	; 33
    2e14:	db 01       	movw	r26, r22
    2e16:	ca 01       	movw	r24, r20
    2e18:	27 e0       	ldi	r18, 0x07	; 7
    2e1a:	b6 95       	lsr	r27
    2e1c:	a7 95       	ror	r26
    2e1e:	97 95       	ror	r25
    2e20:	87 95       	ror	r24
    2e22:	2a 95       	dec	r18
    2e24:	d1 f7       	brne	.-12     	; 0x2e1a <get_fat.part.4+0x1d4>
    2e26:	88 0e       	add	r8, r24
    2e28:	99 1e       	adc	r9, r25
    2e2a:	aa 1e       	adc	r10, r26
    2e2c:	bb 1e       	adc	r11, r27
    2e2e:	ef 85       	ldd	r30, Y+15	; 0x0f
    2e30:	f8 89       	ldd	r31, Y+16	; 0x10
    2e32:	42 a4       	ldd	r4, Z+42	; 0x2a
    2e34:	53 a4       	ldd	r5, Z+43	; 0x2b
    2e36:	64 a4       	ldd	r6, Z+44	; 0x2c
    2e38:	75 a4       	ldd	r7, Z+45	; 0x2d
    2e3a:	84 14       	cp	r8, r4
    2e3c:	95 04       	cpc	r9, r5
    2e3e:	a6 04       	cpc	r10, r6
    2e40:	b7 04       	cpc	r11, r7
    2e42:	c9 f0       	breq	.+50     	; 0x2e76 <get_fat.part.4+0x230>
    2e44:	84 81       	ldd	r24, Z+4	; 0x04
    2e46:	81 11       	cpse	r24, r1
    2e48:	c9 c0       	rjmp	.+402    	; 0x2fdc <get_fat.part.4+0x396>
    2e4a:	be 96       	adiw	r30, 0x2e	; 46
    2e4c:	1f 01       	movw	r2, r30
    2e4e:	01 e0       	ldi	r16, 0x01	; 1
    2e50:	10 e0       	ldi	r17, 0x00	; 0
    2e52:	a5 01       	movw	r20, r10
    2e54:	94 01       	movw	r18, r8
    2e56:	b1 01       	movw	r22, r2
    2e58:	ef 85       	ldd	r30, Y+15	; 0x0f
    2e5a:	f8 89       	ldd	r31, Y+16	; 0x10
    2e5c:	81 81       	ldd	r24, Z+1	; 0x01
    2e5e:	0e 94 ef 33 	call	0x67de	; 0x67de <disk_read>
    2e62:	81 11       	cpse	r24, r1
    2e64:	69 c1       	rjmp	.+722    	; 0x3138 <get_fat.part.4+0x4f2>
    2e66:	af 85       	ldd	r26, Y+15	; 0x0f
    2e68:	b8 89       	ldd	r27, Y+16	; 0x10
    2e6a:	9a 96       	adiw	r26, 0x2a	; 42
    2e6c:	8d 92       	st	X+, r8
    2e6e:	9d 92       	st	X+, r9
    2e70:	ad 92       	st	X+, r10
    2e72:	bc 92       	st	X, r11
    2e74:	9d 97       	sbiw	r26, 0x2d	; 45
    2e76:	cc 0c       	add	r12, r12
    2e78:	dd 1c       	adc	r13, r13
    2e7a:	ee 1c       	adc	r14, r14
    2e7c:	ff 1c       	adc	r15, r15
    2e7e:	cc 0c       	add	r12, r12
    2e80:	dd 1c       	adc	r13, r13
    2e82:	ee 1c       	adc	r14, r14
    2e84:	ff 1c       	adc	r15, r15
    2e86:	fc ef       	ldi	r31, 0xFC	; 252
    2e88:	cf 22       	and	r12, r31
    2e8a:	f1 e0       	ldi	r31, 0x01	; 1
    2e8c:	df 22       	and	r13, r31
    2e8e:	ee 24       	eor	r14, r14
    2e90:	ff 24       	eor	r15, r15
    2e92:	ef 85       	ldd	r30, Y+15	; 0x0f
    2e94:	f8 89       	ldd	r31, Y+16	; 0x10
    2e96:	ec 0d       	add	r30, r12
    2e98:	fd 1d       	adc	r31, r13
    2e9a:	86 a5       	ldd	r24, Z+46	; 0x2e
    2e9c:	97 a5       	ldd	r25, Z+47	; 0x2f
    2e9e:	a0 a9       	ldd	r26, Z+48	; 0x30
    2ea0:	b1 a9       	ldd	r27, Z+49	; 0x31
    2ea2:	bc 01       	movw	r22, r24
    2ea4:	cd 01       	movw	r24, r26
    2ea6:	9f 70       	andi	r25, 0x0F	; 15
    2ea8:	fa ce       	rjmp	.-524    	; 0x2c9e <get_fat.part.4+0x58>
    2eaa:	8d 2c       	mov	r8, r13
    2eac:	9e 2c       	mov	r9, r14
    2eae:	af 2c       	mov	r10, r15
    2eb0:	bb 24       	eor	r11, r11
    2eb2:	ef 85       	ldd	r30, Y+15	; 0x0f
    2eb4:	f8 89       	ldd	r31, Y+16	; 0x10
    2eb6:	86 8d       	ldd	r24, Z+30	; 0x1e
    2eb8:	97 8d       	ldd	r25, Z+31	; 0x1f
    2eba:	a0 a1       	ldd	r26, Z+32	; 0x20
    2ebc:	b1 a1       	ldd	r27, Z+33	; 0x21
    2ebe:	88 0e       	add	r8, r24
    2ec0:	99 1e       	adc	r9, r25
    2ec2:	aa 1e       	adc	r10, r26
    2ec4:	bb 1e       	adc	r11, r27
    2ec6:	42 a4       	ldd	r4, Z+42	; 0x2a
    2ec8:	53 a4       	ldd	r5, Z+43	; 0x2b
    2eca:	64 a4       	ldd	r6, Z+44	; 0x2c
    2ecc:	75 a4       	ldd	r7, Z+45	; 0x2d
    2ece:	84 14       	cp	r8, r4
    2ed0:	95 04       	cpc	r9, r5
    2ed2:	a6 04       	cpc	r10, r6
    2ed4:	b7 04       	cpc	r11, r7
    2ed6:	c1 f0       	breq	.+48     	; 0x2f08 <get_fat.part.4+0x2c2>
    2ed8:	84 81       	ldd	r24, Z+4	; 0x04
    2eda:	81 11       	cpse	r24, r1
    2edc:	28 c0       	rjmp	.+80     	; 0x2f2e <get_fat.part.4+0x2e8>
    2ede:	be 96       	adiw	r30, 0x2e	; 46
    2ee0:	1f 01       	movw	r2, r30
    2ee2:	01 e0       	ldi	r16, 0x01	; 1
    2ee4:	10 e0       	ldi	r17, 0x00	; 0
    2ee6:	a5 01       	movw	r20, r10
    2ee8:	94 01       	movw	r18, r8
    2eea:	b1 01       	movw	r22, r2
    2eec:	af 85       	ldd	r26, Y+15	; 0x0f
    2eee:	b8 89       	ldd	r27, Y+16	; 0x10
    2ef0:	11 96       	adiw	r26, 0x01	; 1
    2ef2:	8c 91       	ld	r24, X
    2ef4:	0e 94 ef 33 	call	0x67de	; 0x67de <disk_read>
    2ef8:	81 11       	cpse	r24, r1
    2efa:	1e c1       	rjmp	.+572    	; 0x3138 <get_fat.part.4+0x4f2>
    2efc:	ef 85       	ldd	r30, Y+15	; 0x0f
    2efe:	f8 89       	ldd	r31, Y+16	; 0x10
    2f00:	82 a6       	std	Z+42, r8	; 0x2a
    2f02:	93 a6       	std	Z+43, r9	; 0x2b
    2f04:	a4 a6       	std	Z+44, r10	; 0x2c
    2f06:	b5 a6       	std	Z+45, r11	; 0x2d
    2f08:	cc 0c       	add	r12, r12
    2f0a:	dd 1c       	adc	r13, r13
    2f0c:	ee 1c       	adc	r14, r14
    2f0e:	ff 1c       	adc	r15, r15
    2f10:	e8 94       	clt
    2f12:	c0 f8       	bld	r12, 0
    2f14:	f1 e0       	ldi	r31, 0x01	; 1
    2f16:	df 22       	and	r13, r31
    2f18:	ee 24       	eor	r14, r14
    2f1a:	ff 24       	eor	r15, r15
    2f1c:	ef 85       	ldd	r30, Y+15	; 0x0f
    2f1e:	f8 89       	ldd	r31, Y+16	; 0x10
    2f20:	ec 0d       	add	r30, r12
    2f22:	fd 1d       	adc	r31, r13
    2f24:	66 a5       	ldd	r22, Z+46	; 0x2e
    2f26:	77 a5       	ldd	r23, Z+47	; 0x2f
    2f28:	80 e0       	ldi	r24, 0x00	; 0
    2f2a:	90 e0       	ldi	r25, 0x00	; 0
    2f2c:	b8 ce       	rjmp	.-656    	; 0x2c9e <get_fat.part.4+0x58>
    2f2e:	2f 84       	ldd	r2, Y+15	; 0x0f
    2f30:	38 88       	ldd	r3, Y+16	; 0x10
    2f32:	fe e2       	ldi	r31, 0x2E	; 46
    2f34:	2f 0e       	add	r2, r31
    2f36:	31 1c       	adc	r3, r1
    2f38:	01 e0       	ldi	r16, 0x01	; 1
    2f3a:	10 e0       	ldi	r17, 0x00	; 0
    2f3c:	a3 01       	movw	r20, r6
    2f3e:	92 01       	movw	r18, r4
    2f40:	b1 01       	movw	r22, r2
    2f42:	af 85       	ldd	r26, Y+15	; 0x0f
    2f44:	b8 89       	ldd	r27, Y+16	; 0x10
    2f46:	11 96       	adiw	r26, 0x01	; 1
    2f48:	8c 91       	ld	r24, X
    2f4a:	0e 94 74 34 	call	0x68e8	; 0x68e8 <disk_write>
    2f4e:	81 11       	cpse	r24, r1
    2f50:	fc c0       	rjmp	.+504    	; 0x314a <get_fat.part.4+0x504>
    2f52:	ef 85       	ldd	r30, Y+15	; 0x0f
    2f54:	f8 89       	ldd	r31, Y+16	; 0x10
    2f56:	14 82       	std	Z+4, r1	; 0x04
    2f58:	86 89       	ldd	r24, Z+22	; 0x16
    2f5a:	97 89       	ldd	r25, Z+23	; 0x17
    2f5c:	a0 8d       	ldd	r26, Z+24	; 0x18
    2f5e:	b1 8d       	ldd	r27, Z+25	; 0x19
    2f60:	46 8d       	ldd	r20, Z+30	; 0x1e
    2f62:	57 8d       	ldd	r21, Z+31	; 0x1f
    2f64:	60 a1       	ldd	r22, Z+32	; 0x20
    2f66:	71 a1       	ldd	r23, Z+33	; 0x21
    2f68:	93 01       	movw	r18, r6
    2f6a:	82 01       	movw	r16, r4
    2f6c:	04 1b       	sub	r16, r20
    2f6e:	15 0b       	sbc	r17, r21
    2f70:	26 0b       	sbc	r18, r22
    2f72:	37 0b       	sbc	r19, r23
    2f74:	08 17       	cp	r16, r24
    2f76:	19 07       	cpc	r17, r25
    2f78:	2a 07       	cpc	r18, r26
    2f7a:	3b 07       	cpc	r19, r27
    2f7c:	08 f0       	brcs	.+2      	; 0x2f80 <get_fat.part.4+0x33a>
    2f7e:	b1 cf       	rjmp	.-158    	; 0x2ee2 <get_fat.part.4+0x29c>
    2f80:	23 81       	ldd	r18, Z+3	; 0x03
    2f82:	02 2f       	mov	r16, r18
    2f84:	10 e0       	ldi	r17, 0x00	; 0
    2f86:	02 30       	cpi	r16, 0x02	; 2
    2f88:	11 05       	cpc	r17, r1
    2f8a:	08 f4       	brcc	.+2      	; 0x2f8e <get_fat.part.4+0x348>
    2f8c:	aa cf       	rjmp	.-172    	; 0x2ee2 <get_fat.part.4+0x29c>
    2f8e:	c9 82       	std	Y+1, r12	; 0x01
    2f90:	da 82       	std	Y+2, r13	; 0x02
    2f92:	eb 82       	std	Y+3, r14	; 0x03
    2f94:	fc 82       	std	Y+4, r15	; 0x04
    2f96:	78 01       	movw	r14, r16
    2f98:	06 c0       	rjmp	.+12     	; 0x2fa6 <get_fat.part.4+0x360>
    2f9a:	ef 85       	ldd	r30, Y+15	; 0x0f
    2f9c:	f8 89       	ldd	r31, Y+16	; 0x10
    2f9e:	86 89       	ldd	r24, Z+22	; 0x16
    2fa0:	97 89       	ldd	r25, Z+23	; 0x17
    2fa2:	a0 8d       	ldd	r26, Z+24	; 0x18
    2fa4:	b1 8d       	ldd	r27, Z+25	; 0x19
    2fa6:	48 0e       	add	r4, r24
    2fa8:	59 1e       	adc	r5, r25
    2faa:	6a 1e       	adc	r6, r26
    2fac:	7b 1e       	adc	r7, r27
    2fae:	01 e0       	ldi	r16, 0x01	; 1
    2fb0:	10 e0       	ldi	r17, 0x00	; 0
    2fb2:	a3 01       	movw	r20, r6
    2fb4:	92 01       	movw	r18, r4
    2fb6:	b1 01       	movw	r22, r2
    2fb8:	af 85       	ldd	r26, Y+15	; 0x0f
    2fba:	b8 89       	ldd	r27, Y+16	; 0x10
    2fbc:	11 96       	adiw	r26, 0x01	; 1
    2fbe:	8c 91       	ld	r24, X
    2fc0:	0e 94 74 34 	call	0x68e8	; 0x68e8 <disk_write>
    2fc4:	b1 e0       	ldi	r27, 0x01	; 1
    2fc6:	eb 1a       	sub	r14, r27
    2fc8:	f1 08       	sbc	r15, r1
    2fca:	e1 e0       	ldi	r30, 0x01	; 1
    2fcc:	ee 16       	cp	r14, r30
    2fce:	f1 04       	cpc	r15, r1
    2fd0:	21 f7       	brne	.-56     	; 0x2f9a <get_fat.part.4+0x354>
    2fd2:	c9 80       	ldd	r12, Y+1	; 0x01
    2fd4:	da 80       	ldd	r13, Y+2	; 0x02
    2fd6:	eb 80       	ldd	r14, Y+3	; 0x03
    2fd8:	fc 80       	ldd	r15, Y+4	; 0x04
    2fda:	83 cf       	rjmp	.-250    	; 0x2ee2 <get_fat.part.4+0x29c>
    2fdc:	2f 84       	ldd	r2, Y+15	; 0x0f
    2fde:	38 88       	ldd	r3, Y+16	; 0x10
    2fe0:	fe e2       	ldi	r31, 0x2E	; 46
    2fe2:	2f 0e       	add	r2, r31
    2fe4:	31 1c       	adc	r3, r1
    2fe6:	01 e0       	ldi	r16, 0x01	; 1
    2fe8:	10 e0       	ldi	r17, 0x00	; 0
    2fea:	a3 01       	movw	r20, r6
    2fec:	92 01       	movw	r18, r4
    2fee:	b1 01       	movw	r22, r2
    2ff0:	af 85       	ldd	r26, Y+15	; 0x0f
    2ff2:	b8 89       	ldd	r27, Y+16	; 0x10
    2ff4:	11 96       	adiw	r26, 0x01	; 1
    2ff6:	8c 91       	ld	r24, X
    2ff8:	0e 94 74 34 	call	0x68e8	; 0x68e8 <disk_write>
    2ffc:	81 11       	cpse	r24, r1
    2ffe:	a5 c0       	rjmp	.+330    	; 0x314a <get_fat.part.4+0x504>
    3000:	ef 85       	ldd	r30, Y+15	; 0x0f
    3002:	f8 89       	ldd	r31, Y+16	; 0x10
    3004:	14 82       	std	Z+4, r1	; 0x04
    3006:	86 89       	ldd	r24, Z+22	; 0x16
    3008:	97 89       	ldd	r25, Z+23	; 0x17
    300a:	a0 8d       	ldd	r26, Z+24	; 0x18
    300c:	b1 8d       	ldd	r27, Z+25	; 0x19
    300e:	46 8d       	ldd	r20, Z+30	; 0x1e
    3010:	57 8d       	ldd	r21, Z+31	; 0x1f
    3012:	60 a1       	ldd	r22, Z+32	; 0x20
    3014:	71 a1       	ldd	r23, Z+33	; 0x21
    3016:	93 01       	movw	r18, r6
    3018:	82 01       	movw	r16, r4
    301a:	04 1b       	sub	r16, r20
    301c:	15 0b       	sbc	r17, r21
    301e:	26 0b       	sbc	r18, r22
    3020:	37 0b       	sbc	r19, r23
    3022:	08 17       	cp	r16, r24
    3024:	19 07       	cpc	r17, r25
    3026:	2a 07       	cpc	r18, r26
    3028:	3b 07       	cpc	r19, r27
    302a:	08 f0       	brcs	.+2      	; 0x302e <get_fat.part.4+0x3e8>
    302c:	10 cf       	rjmp	.-480    	; 0x2e4e <get_fat.part.4+0x208>
    302e:	23 81       	ldd	r18, Z+3	; 0x03
    3030:	02 2f       	mov	r16, r18
    3032:	10 e0       	ldi	r17, 0x00	; 0
    3034:	02 30       	cpi	r16, 0x02	; 2
    3036:	11 05       	cpc	r17, r1
    3038:	08 f4       	brcc	.+2      	; 0x303c <get_fat.part.4+0x3f6>
    303a:	09 cf       	rjmp	.-494    	; 0x2e4e <get_fat.part.4+0x208>
    303c:	c9 82       	std	Y+1, r12	; 0x01
    303e:	da 82       	std	Y+2, r13	; 0x02
    3040:	eb 82       	std	Y+3, r14	; 0x03
    3042:	fc 82       	std	Y+4, r15	; 0x04
    3044:	78 01       	movw	r14, r16
    3046:	06 c0       	rjmp	.+12     	; 0x3054 <get_fat.part.4+0x40e>
    3048:	ef 85       	ldd	r30, Y+15	; 0x0f
    304a:	f8 89       	ldd	r31, Y+16	; 0x10
    304c:	86 89       	ldd	r24, Z+22	; 0x16
    304e:	97 89       	ldd	r25, Z+23	; 0x17
    3050:	a0 8d       	ldd	r26, Z+24	; 0x18
    3052:	b1 8d       	ldd	r27, Z+25	; 0x19
    3054:	48 0e       	add	r4, r24
    3056:	59 1e       	adc	r5, r25
    3058:	6a 1e       	adc	r6, r26
    305a:	7b 1e       	adc	r7, r27
    305c:	01 e0       	ldi	r16, 0x01	; 1
    305e:	10 e0       	ldi	r17, 0x00	; 0
    3060:	a3 01       	movw	r20, r6
    3062:	92 01       	movw	r18, r4
    3064:	b1 01       	movw	r22, r2
    3066:	af 85       	ldd	r26, Y+15	; 0x0f
    3068:	b8 89       	ldd	r27, Y+16	; 0x10
    306a:	11 96       	adiw	r26, 0x01	; 1
    306c:	8c 91       	ld	r24, X
    306e:	0e 94 74 34 	call	0x68e8	; 0x68e8 <disk_write>
    3072:	b1 e0       	ldi	r27, 0x01	; 1
    3074:	eb 1a       	sub	r14, r27
    3076:	f1 08       	sbc	r15, r1
    3078:	e1 e0       	ldi	r30, 0x01	; 1
    307a:	ee 16       	cp	r14, r30
    307c:	f1 04       	cpc	r15, r1
    307e:	21 f7       	brne	.-56     	; 0x3048 <get_fat.part.4+0x402>
    3080:	c9 80       	ldd	r12, Y+1	; 0x01
    3082:	da 80       	ldd	r13, Y+2	; 0x02
    3084:	eb 80       	ldd	r14, Y+3	; 0x03
    3086:	fc 80       	ldd	r15, Y+4	; 0x04
    3088:	e2 ce       	rjmp	.-572    	; 0x2e4e <get_fat.part.4+0x208>
    308a:	2f 84       	ldd	r2, Y+15	; 0x0f
    308c:	38 88       	ldd	r3, Y+16	; 0x10
    308e:	fe e2       	ldi	r31, 0x2E	; 46
    3090:	2f 0e       	add	r2, r31
    3092:	31 1c       	adc	r3, r1
    3094:	01 e0       	ldi	r16, 0x01	; 1
    3096:	10 e0       	ldi	r17, 0x00	; 0
    3098:	a3 01       	movw	r20, r6
    309a:	92 01       	movw	r18, r4
    309c:	b1 01       	movw	r22, r2
    309e:	af 85       	ldd	r26, Y+15	; 0x0f
    30a0:	b8 89       	ldd	r27, Y+16	; 0x10
    30a2:	11 96       	adiw	r26, 0x01	; 1
    30a4:	8c 91       	ld	r24, X
    30a6:	0e 94 74 34 	call	0x68e8	; 0x68e8 <disk_write>
    30aa:	81 11       	cpse	r24, r1
    30ac:	4e c0       	rjmp	.+156    	; 0x314a <get_fat.part.4+0x504>
    30ae:	ef 85       	ldd	r30, Y+15	; 0x0f
    30b0:	f8 89       	ldd	r31, Y+16	; 0x10
    30b2:	14 82       	std	Z+4, r1	; 0x04
    30b4:	86 89       	ldd	r24, Z+22	; 0x16
    30b6:	97 89       	ldd	r25, Z+23	; 0x17
    30b8:	a0 8d       	ldd	r26, Z+24	; 0x18
    30ba:	b1 8d       	ldd	r27, Z+25	; 0x19
    30bc:	46 8d       	ldd	r20, Z+30	; 0x1e
    30be:	57 8d       	ldd	r21, Z+31	; 0x1f
    30c0:	60 a1       	ldd	r22, Z+32	; 0x20
    30c2:	71 a1       	ldd	r23, Z+33	; 0x21
    30c4:	93 01       	movw	r18, r6
    30c6:	82 01       	movw	r16, r4
    30c8:	04 1b       	sub	r16, r20
    30ca:	15 0b       	sbc	r17, r21
    30cc:	26 0b       	sbc	r18, r22
    30ce:	37 0b       	sbc	r19, r23
    30d0:	08 17       	cp	r16, r24
    30d2:	19 07       	cpc	r17, r25
    30d4:	2a 07       	cpc	r18, r26
    30d6:	3b 07       	cpc	r19, r27
    30d8:	08 f0       	brcs	.+2      	; 0x30dc <get_fat.part.4+0x496>
    30da:	23 ce       	rjmp	.-954    	; 0x2d22 <get_fat.part.4+0xdc>
    30dc:	23 81       	ldd	r18, Z+3	; 0x03
    30de:	02 2f       	mov	r16, r18
    30e0:	10 e0       	ldi	r17, 0x00	; 0
    30e2:	02 30       	cpi	r16, 0x02	; 2
    30e4:	11 05       	cpc	r17, r1
    30e6:	08 f4       	brcc	.+2      	; 0x30ea <get_fat.part.4+0x4a4>
    30e8:	1c ce       	rjmp	.-968    	; 0x2d22 <get_fat.part.4+0xdc>
    30ea:	cd 82       	std	Y+5, r12	; 0x05
    30ec:	de 82       	std	Y+6, r13	; 0x06
    30ee:	ef 82       	std	Y+7, r14	; 0x07
    30f0:	f8 86       	std	Y+8, r15	; 0x08
    30f2:	78 01       	movw	r14, r16
    30f4:	06 c0       	rjmp	.+12     	; 0x3102 <get_fat.part.4+0x4bc>
    30f6:	ef 85       	ldd	r30, Y+15	; 0x0f
    30f8:	f8 89       	ldd	r31, Y+16	; 0x10
    30fa:	86 89       	ldd	r24, Z+22	; 0x16
    30fc:	97 89       	ldd	r25, Z+23	; 0x17
    30fe:	a0 8d       	ldd	r26, Z+24	; 0x18
    3100:	b1 8d       	ldd	r27, Z+25	; 0x19
    3102:	48 0e       	add	r4, r24
    3104:	59 1e       	adc	r5, r25
    3106:	6a 1e       	adc	r6, r26
    3108:	7b 1e       	adc	r7, r27
    310a:	01 e0       	ldi	r16, 0x01	; 1
    310c:	10 e0       	ldi	r17, 0x00	; 0
    310e:	a3 01       	movw	r20, r6
    3110:	92 01       	movw	r18, r4
    3112:	b1 01       	movw	r22, r2
    3114:	af 85       	ldd	r26, Y+15	; 0x0f
    3116:	b8 89       	ldd	r27, Y+16	; 0x10
    3118:	11 96       	adiw	r26, 0x01	; 1
    311a:	8c 91       	ld	r24, X
    311c:	0e 94 74 34 	call	0x68e8	; 0x68e8 <disk_write>
    3120:	b1 e0       	ldi	r27, 0x01	; 1
    3122:	eb 1a       	sub	r14, r27
    3124:	f1 08       	sbc	r15, r1
    3126:	e1 e0       	ldi	r30, 0x01	; 1
    3128:	ee 16       	cp	r14, r30
    312a:	f1 04       	cpc	r15, r1
    312c:	21 f7       	brne	.-56     	; 0x30f6 <get_fat.part.4+0x4b0>
    312e:	cd 80       	ldd	r12, Y+5	; 0x05
    3130:	de 80       	ldd	r13, Y+6	; 0x06
    3132:	ef 80       	ldd	r14, Y+7	; 0x07
    3134:	f8 84       	ldd	r15, Y+8	; 0x08
    3136:	f5 cd       	rjmp	.-1046   	; 0x2d22 <get_fat.part.4+0xdc>
    3138:	8f ef       	ldi	r24, 0xFF	; 255
    313a:	9f ef       	ldi	r25, 0xFF	; 255
    313c:	dc 01       	movw	r26, r24
    313e:	ef 85       	ldd	r30, Y+15	; 0x0f
    3140:	f8 89       	ldd	r31, Y+16	; 0x10
    3142:	82 a7       	std	Z+42, r24	; 0x2a
    3144:	93 a7       	std	Z+43, r25	; 0x2b
    3146:	a4 a7       	std	Z+44, r26	; 0x2c
    3148:	b5 a7       	std	Z+45, r27	; 0x2d
    314a:	6f ef       	ldi	r22, 0xFF	; 255
    314c:	7f ef       	ldi	r23, 0xFF	; 255
    314e:	cb 01       	movw	r24, r22
    3150:	a6 cd       	rjmp	.-1204   	; 0x2c9e <get_fat.part.4+0x58>
    3152:	8d 82       	std	Y+5, r8	; 0x05
    3154:	9e 82       	std	Y+6, r9	; 0x06
    3156:	af 82       	std	Y+7, r10	; 0x07
    3158:	b8 86       	std	Y+8, r11	; 0x08
    315a:	01 ce       	rjmp	.-1022   	; 0x2d5e <get_fat.part.4+0x118>
    315c:	1d 01       	movw	r2, r26
    315e:	fd 01       	movw	r30, r26
    3160:	be e2       	ldi	r27, 0x2E	; 46
    3162:	2b 0e       	add	r2, r27
    3164:	31 1c       	adc	r3, r1
    3166:	01 e0       	ldi	r16, 0x01	; 1
    3168:	10 e0       	ldi	r17, 0x00	; 0
    316a:	a5 01       	movw	r20, r10
    316c:	94 01       	movw	r18, r8
    316e:	b1 01       	movw	r22, r2
    3170:	81 81       	ldd	r24, Z+1	; 0x01
    3172:	0e 94 74 34 	call	0x68e8	; 0x68e8 <disk_write>
    3176:	81 11       	cpse	r24, r1
    3178:	e8 cf       	rjmp	.-48     	; 0x314a <get_fat.part.4+0x504>
    317a:	af 85       	ldd	r26, Y+15	; 0x0f
    317c:	b8 89       	ldd	r27, Y+16	; 0x10
    317e:	14 96       	adiw	r26, 0x04	; 4
    3180:	1c 92       	st	X, r1
    3182:	14 97       	sbiw	r26, 0x04	; 4
    3184:	fd 01       	movw	r30, r26
    3186:	86 89       	ldd	r24, Z+22	; 0x16
    3188:	97 89       	ldd	r25, Z+23	; 0x17
    318a:	a0 8d       	ldd	r26, Z+24	; 0x18
    318c:	b1 8d       	ldd	r27, Z+25	; 0x19
    318e:	46 8d       	ldd	r20, Z+30	; 0x1e
    3190:	57 8d       	ldd	r21, Z+31	; 0x1f
    3192:	60 a1       	ldd	r22, Z+32	; 0x20
    3194:	71 a1       	ldd	r23, Z+33	; 0x21
    3196:	95 01       	movw	r18, r10
    3198:	84 01       	movw	r16, r8
    319a:	04 1b       	sub	r16, r20
    319c:	15 0b       	sbc	r17, r21
    319e:	26 0b       	sbc	r18, r22
    31a0:	37 0b       	sbc	r19, r23
    31a2:	08 17       	cp	r16, r24
    31a4:	19 07       	cpc	r17, r25
    31a6:	2a 07       	cpc	r18, r26
    31a8:	3b 07       	cpc	r19, r27
    31aa:	08 f0       	brcs	.+2      	; 0x31ae <get_fat.part.4+0x568>
    31ac:	00 ce       	rjmp	.-1024   	; 0x2dae <get_fat.part.4+0x168>
    31ae:	23 81       	ldd	r18, Z+3	; 0x03
    31b0:	a2 2e       	mov	r10, r18
    31b2:	b1 2c       	mov	r11, r1
    31b4:	12 e0       	ldi	r17, 0x02	; 2
    31b6:	a1 16       	cp	r10, r17
    31b8:	b1 04       	cpc	r11, r1
    31ba:	08 f4       	brcc	.+2      	; 0x31be <get_fat.part.4+0x578>
    31bc:	f8 cd       	rjmp	.-1040   	; 0x2dae <get_fat.part.4+0x168>
    31be:	cb 86       	std	Y+11, r12	; 0x0b
    31c0:	dc 86       	std	Y+12, r13	; 0x0c
    31c2:	ed 86       	std	Y+13, r14	; 0x0d
    31c4:	fe 86       	std	Y+14, r15	; 0x0e
    31c6:	75 01       	movw	r14, r10
    31c8:	8d 80       	ldd	r8, Y+5	; 0x05
    31ca:	9e 80       	ldd	r9, Y+6	; 0x06
    31cc:	af 80       	ldd	r10, Y+7	; 0x07
    31ce:	b8 84       	ldd	r11, Y+8	; 0x08
    31d0:	06 c0       	rjmp	.+12     	; 0x31de <get_fat.part.4+0x598>
    31d2:	ef 85       	ldd	r30, Y+15	; 0x0f
    31d4:	f8 89       	ldd	r31, Y+16	; 0x10
    31d6:	86 89       	ldd	r24, Z+22	; 0x16
    31d8:	97 89       	ldd	r25, Z+23	; 0x17
    31da:	a0 8d       	ldd	r26, Z+24	; 0x18
    31dc:	b1 8d       	ldd	r27, Z+25	; 0x19
    31de:	88 0e       	add	r8, r24
    31e0:	99 1e       	adc	r9, r25
    31e2:	aa 1e       	adc	r10, r26
    31e4:	bb 1e       	adc	r11, r27
    31e6:	01 e0       	ldi	r16, 0x01	; 1
    31e8:	10 e0       	ldi	r17, 0x00	; 0
    31ea:	a5 01       	movw	r20, r10
    31ec:	94 01       	movw	r18, r8
    31ee:	b1 01       	movw	r22, r2
    31f0:	af 85       	ldd	r26, Y+15	; 0x0f
    31f2:	b8 89       	ldd	r27, Y+16	; 0x10
    31f4:	11 96       	adiw	r26, 0x01	; 1
    31f6:	8c 91       	ld	r24, X
    31f8:	0e 94 74 34 	call	0x68e8	; 0x68e8 <disk_write>
    31fc:	b1 e0       	ldi	r27, 0x01	; 1
    31fe:	eb 1a       	sub	r14, r27
    3200:	f1 08       	sbc	r15, r1
    3202:	e1 e0       	ldi	r30, 0x01	; 1
    3204:	ee 16       	cp	r14, r30
    3206:	f1 04       	cpc	r15, r1
    3208:	21 f7       	brne	.-56     	; 0x31d2 <get_fat.part.4+0x58c>
    320a:	cb 84       	ldd	r12, Y+11	; 0x0b
    320c:	dc 84       	ldd	r13, Y+12	; 0x0c
    320e:	ed 84       	ldd	r14, Y+13	; 0x0d
    3210:	fe 84       	ldd	r15, Y+14	; 0x0e
    3212:	cd cd       	rjmp	.-1126   	; 0x2dae <get_fat.part.4+0x168>
    3214:	7f 70       	andi	r23, 0x0F	; 15
    3216:	80 e0       	ldi	r24, 0x00	; 0
    3218:	90 e0       	ldi	r25, 0x00	; 0
    321a:	41 cd       	rjmp	.-1406   	; 0x2c9e <get_fat.part.4+0x58>

0000321c <dir_sdi.constprop.7>:
    321c:	cf 92       	push	r12
    321e:	df 92       	push	r13
    3220:	ef 92       	push	r14
    3222:	ff 92       	push	r15
    3224:	0f 93       	push	r16
    3226:	1f 93       	push	r17
    3228:	cf 93       	push	r28
    322a:	df 93       	push	r29
    322c:	fc 01       	movw	r30, r24
    322e:	15 82       	std	Z+5, r1	; 0x05
    3230:	14 82       	std	Z+4, r1	; 0x04
    3232:	c6 80       	ldd	r12, Z+6	; 0x06
    3234:	d7 80       	ldd	r13, Z+7	; 0x07
    3236:	e0 84       	ldd	r14, Z+8	; 0x08
    3238:	f1 84       	ldd	r15, Z+9	; 0x09
    323a:	21 e0       	ldi	r18, 0x01	; 1
    323c:	c2 16       	cp	r12, r18
    323e:	d1 04       	cpc	r13, r1
    3240:	e1 04       	cpc	r14, r1
    3242:	f1 04       	cpc	r15, r1
    3244:	59 f0       	breq	.+22     	; 0x325c <dir_sdi.constprop.7+0x40>
    3246:	c0 81       	ld	r28, Z
    3248:	d1 81       	ldd	r29, Z+1	; 0x01
    324a:	8a 89       	ldd	r24, Y+18	; 0x12
    324c:	9b 89       	ldd	r25, Y+19	; 0x13
    324e:	ac 89       	ldd	r26, Y+20	; 0x14
    3250:	bd 89       	ldd	r27, Y+21	; 0x15
    3252:	c8 16       	cp	r12, r24
    3254:	d9 06       	cpc	r13, r25
    3256:	ea 06       	cpc	r14, r26
    3258:	fb 06       	cpc	r15, r27
    325a:	50 f0       	brcs	.+20     	; 0x3270 <dir_sdi.constprop.7+0x54>
    325c:	82 e0       	ldi	r24, 0x02	; 2
    325e:	df 91       	pop	r29
    3260:	cf 91       	pop	r28
    3262:	1f 91       	pop	r17
    3264:	0f 91       	pop	r16
    3266:	ff 90       	pop	r15
    3268:	ef 90       	pop	r14
    326a:	df 90       	pop	r13
    326c:	cf 90       	pop	r12
    326e:	08 95       	ret
    3270:	c1 14       	cp	r12, r1
    3272:	d1 04       	cpc	r13, r1
    3274:	e1 04       	cpc	r14, r1
    3276:	f1 04       	cpc	r15, r1
    3278:	39 f5       	brne	.+78     	; 0x32c8 <dir_sdi.constprop.7+0xac>
    327a:	28 81       	ld	r18, Y
    327c:	23 30       	cpi	r18, 0x03	; 3
    327e:	c9 f0       	breq	.+50     	; 0x32b2 <dir_sdi.constprop.7+0x96>
    3280:	88 85       	ldd	r24, Y+8	; 0x08
    3282:	99 85       	ldd	r25, Y+9	; 0x09
    3284:	89 2b       	or	r24, r25
    3286:	51 f3       	breq	.-44     	; 0x325c <dir_sdi.constprop.7+0x40>
    3288:	8a a1       	ldd	r24, Y+34	; 0x22
    328a:	9b a1       	ldd	r25, Y+35	; 0x23
    328c:	ac a1       	ldd	r26, Y+36	; 0x24
    328e:	bd a1       	ldd	r27, Y+37	; 0x25
    3290:	c2 86       	std	Z+10, r12	; 0x0a
    3292:	d3 86       	std	Z+11, r13	; 0x0b
    3294:	e4 86       	std	Z+12, r14	; 0x0c
    3296:	f5 86       	std	Z+13, r15	; 0x0d
    3298:	00 97       	sbiw	r24, 0x00	; 0
    329a:	a1 05       	cpc	r26, r1
    329c:	b1 05       	cpc	r27, r1
    329e:	f1 f2       	breq	.-68     	; 0x325c <dir_sdi.constprop.7+0x40>
    32a0:	86 87       	std	Z+14, r24	; 0x0e
    32a2:	97 87       	std	Z+15, r25	; 0x0f
    32a4:	a0 8b       	std	Z+16, r26	; 0x10
    32a6:	b1 8b       	std	Z+17, r27	; 0x11
    32a8:	ae 96       	adiw	r28, 0x2e	; 46
    32aa:	d3 8b       	std	Z+19, r29	; 0x13
    32ac:	c2 8b       	std	Z+18, r28	; 0x12
    32ae:	80 e0       	ldi	r24, 0x00	; 0
    32b0:	d6 cf       	rjmp	.-84     	; 0x325e <dir_sdi.constprop.7+0x42>
    32b2:	4a a1       	ldd	r20, Y+34	; 0x22
    32b4:	5b a1       	ldd	r21, Y+35	; 0x23
    32b6:	6c a1       	ldd	r22, Y+36	; 0x24
    32b8:	7d a1       	ldd	r23, Y+37	; 0x25
    32ba:	41 15       	cp	r20, r1
    32bc:	51 05       	cpc	r21, r1
    32be:	61 05       	cpc	r22, r1
    32c0:	71 05       	cpc	r23, r1
    32c2:	f1 f2       	breq	.-68     	; 0x3280 <dir_sdi.constprop.7+0x64>
    32c4:	6a 01       	movw	r12, r20
    32c6:	7b 01       	movw	r14, r22
    32c8:	8f 01       	movw	r16, r30
    32ca:	6a 81       	ldd	r22, Y+2	; 0x02
    32cc:	66 23       	and	r22, r22
    32ce:	09 f1       	breq	.+66     	; 0x3312 <dir_sdi.constprop.7+0xf6>
    32d0:	2e c0       	rjmp	.+92     	; 0x332e <dir_sdi.constprop.7+0x112>
    32d2:	b7 01       	movw	r22, r14
    32d4:	a6 01       	movw	r20, r12
    32d6:	ce 01       	movw	r24, r28
    32d8:	0e 94 23 16 	call	0x2c46	; 0x2c46 <get_fat.part.4>
    32dc:	6b 01       	movw	r12, r22
    32de:	7c 01       	movw	r14, r24
    32e0:	6f 3f       	cpi	r22, 0xFF	; 255
    32e2:	ff ef       	ldi	r31, 0xFF	; 255
    32e4:	7f 07       	cpc	r23, r31
    32e6:	8f 07       	cpc	r24, r31
    32e8:	9f 07       	cpc	r25, r31
    32ea:	f1 f1       	breq	.+124    	; 0x3368 <dir_sdi.constprop.7+0x14c>
    32ec:	62 30       	cpi	r22, 0x02	; 2
    32ee:	71 05       	cpc	r23, r1
    32f0:	81 05       	cpc	r24, r1
    32f2:	91 05       	cpc	r25, r1
    32f4:	08 f4       	brcc	.+2      	; 0x32f8 <dir_sdi.constprop.7+0xdc>
    32f6:	b2 cf       	rjmp	.-156    	; 0x325c <dir_sdi.constprop.7+0x40>
    32f8:	f8 01       	movw	r30, r16
    32fa:	c0 81       	ld	r28, Z
    32fc:	d1 81       	ldd	r29, Z+1	; 0x01
    32fe:	8a 89       	ldd	r24, Y+18	; 0x12
    3300:	9b 89       	ldd	r25, Y+19	; 0x13
    3302:	ac 89       	ldd	r26, Y+20	; 0x14
    3304:	bd 89       	ldd	r27, Y+21	; 0x15
    3306:	c8 16       	cp	r12, r24
    3308:	d9 06       	cpc	r13, r25
    330a:	ea 06       	cpc	r14, r26
    330c:	fb 06       	cpc	r15, r27
    330e:	08 f0       	brcs	.+2      	; 0x3312 <dir_sdi.constprop.7+0xf6>
    3310:	a5 cf       	rjmp	.-182    	; 0x325c <dir_sdi.constprop.7+0x40>
    3312:	e2 e0       	ldi	r30, 0x02	; 2
    3314:	ce 16       	cp	r12, r30
    3316:	d1 04       	cpc	r13, r1
    3318:	e1 04       	cpc	r14, r1
    331a:	f1 04       	cpc	r15, r1
    331c:	08 f4       	brcc	.+2      	; 0x3320 <dir_sdi.constprop.7+0x104>
    331e:	9e cf       	rjmp	.-196    	; 0x325c <dir_sdi.constprop.7+0x40>
    3320:	c8 16       	cp	r12, r24
    3322:	d9 06       	cpc	r13, r25
    3324:	ea 06       	cpc	r14, r26
    3326:	fb 06       	cpc	r15, r27
    3328:	08 f0       	brcs	.+2      	; 0x332c <dir_sdi.constprop.7+0x110>
    332a:	98 cf       	rjmp	.-208    	; 0x325c <dir_sdi.constprop.7+0x40>
    332c:	d2 cf       	rjmp	.-92     	; 0x32d2 <dir_sdi.constprop.7+0xb6>
    332e:	a7 01       	movw	r20, r14
    3330:	96 01       	movw	r18, r12
    3332:	22 50       	subi	r18, 0x02	; 2
    3334:	31 09       	sbc	r19, r1
    3336:	41 09       	sbc	r20, r1
    3338:	51 09       	sbc	r21, r1
    333a:	02 97       	sbiw	r24, 0x02	; 2
    333c:	a1 09       	sbc	r26, r1
    333e:	b1 09       	sbc	r27, r1
    3340:	28 17       	cp	r18, r24
    3342:	39 07       	cpc	r19, r25
    3344:	4a 07       	cpc	r20, r26
    3346:	5b 07       	cpc	r21, r27
    3348:	88 f4       	brcc	.+34     	; 0x336c <dir_sdi.constprop.7+0x150>
    334a:	a6 2f       	mov	r26, r22
    334c:	b0 e0       	ldi	r27, 0x00	; 0
    334e:	0e 94 68 3c 	call	0x78d0	; 0x78d0 <__muluhisi3>
    3352:	0e a1       	ldd	r16, Y+38	; 0x26
    3354:	1f a1       	ldd	r17, Y+39	; 0x27
    3356:	28 a5       	ldd	r18, Y+40	; 0x28
    3358:	39 a5       	ldd	r19, Y+41	; 0x29
    335a:	dc 01       	movw	r26, r24
    335c:	cb 01       	movw	r24, r22
    335e:	80 0f       	add	r24, r16
    3360:	91 1f       	adc	r25, r17
    3362:	a2 1f       	adc	r26, r18
    3364:	b3 1f       	adc	r27, r19
    3366:	94 cf       	rjmp	.-216    	; 0x3290 <dir_sdi.constprop.7+0x74>
    3368:	81 e0       	ldi	r24, 0x01	; 1
    336a:	79 cf       	rjmp	.-270    	; 0x325e <dir_sdi.constprop.7+0x42>
    336c:	c2 86       	std	Z+10, r12	; 0x0a
    336e:	d3 86       	std	Z+11, r13	; 0x0b
    3370:	e4 86       	std	Z+12, r14	; 0x0c
    3372:	f5 86       	std	Z+13, r15	; 0x0d
    3374:	73 cf       	rjmp	.-282    	; 0x325c <dir_sdi.constprop.7+0x40>

00003376 <create_chain>:
    3376:	2f 92       	push	r2
    3378:	3f 92       	push	r3
    337a:	4f 92       	push	r4
    337c:	5f 92       	push	r5
    337e:	6f 92       	push	r6
    3380:	7f 92       	push	r7
    3382:	8f 92       	push	r8
    3384:	9f 92       	push	r9
    3386:	af 92       	push	r10
    3388:	bf 92       	push	r11
    338a:	cf 92       	push	r12
    338c:	df 92       	push	r13
    338e:	ef 92       	push	r14
    3390:	ff 92       	push	r15
    3392:	0f 93       	push	r16
    3394:	1f 93       	push	r17
    3396:	cf 93       	push	r28
    3398:	df 93       	push	r29
    339a:	cd b7       	in	r28, 0x3d	; 61
    339c:	de b7       	in	r29, 0x3e	; 62
    339e:	66 97       	sbiw	r28, 0x16	; 22
    33a0:	0f b6       	in	r0, 0x3f	; 63
    33a2:	f8 94       	cli
    33a4:	de bf       	out	0x3e, r29	; 62
    33a6:	0f be       	out	0x3f, r0	; 63
    33a8:	cd bf       	out	0x3d, r28	; 61
    33aa:	7c 01       	movw	r14, r24
    33ac:	49 87       	std	Y+9, r20	; 0x09
    33ae:	5a 87       	std	Y+10, r21	; 0x0a
    33b0:	6b 87       	std	Y+11, r22	; 0x0b
    33b2:	7c 87       	std	Y+12, r23	; 0x0c
    33b4:	45 2b       	or	r20, r21
    33b6:	46 2b       	or	r20, r22
    33b8:	47 2b       	or	r20, r23
    33ba:	09 f0       	breq	.+2      	; 0x33be <create_chain+0x48>
    33bc:	b8 c0       	rjmp	.+368    	; 0x352e <create_chain+0x1b8>
    33be:	dc 01       	movw	r26, r24
    33c0:	1a 96       	adiw	r26, 0x0a	; 10
    33c2:	0d 91       	ld	r16, X+
    33c4:	1d 91       	ld	r17, X+
    33c6:	2d 91       	ld	r18, X+
    33c8:	3c 91       	ld	r19, X
    33ca:	1d 97       	sbiw	r26, 0x0d	; 13
    33cc:	09 83       	std	Y+1, r16	; 0x01
    33ce:	1a 83       	std	Y+2, r17	; 0x02
    33d0:	2b 83       	std	Y+3, r18	; 0x03
    33d2:	3c 83       	std	Y+4, r19	; 0x04
    33d4:	01 15       	cp	r16, r1
    33d6:	11 05       	cpc	r17, r1
    33d8:	21 05       	cpc	r18, r1
    33da:	31 05       	cpc	r19, r1
    33dc:	09 f0       	breq	.+2      	; 0x33e0 <create_chain+0x6a>
    33de:	dc c0       	rjmp	.+440    	; 0x3598 <create_chain+0x222>
    33e0:	52 96       	adiw	r26, 0x12	; 18
    33e2:	8d 91       	ld	r24, X+
    33e4:	9d 91       	ld	r25, X+
    33e6:	0d 90       	ld	r0, X+
    33e8:	bc 91       	ld	r27, X
    33ea:	a0 2d       	mov	r26, r0
    33ec:	01 e0       	ldi	r16, 0x01	; 1
    33ee:	10 e0       	ldi	r17, 0x00	; 0
    33f0:	20 e0       	ldi	r18, 0x00	; 0
    33f2:	30 e0       	ldi	r19, 0x00	; 0
    33f4:	09 83       	std	Y+1, r16	; 0x01
    33f6:	1a 83       	std	Y+2, r17	; 0x02
    33f8:	2b 83       	std	Y+3, r18	; 0x03
    33fa:	3c 83       	std	Y+4, r19	; 0x04
    33fc:	49 80       	ldd	r4, Y+1	; 0x01
    33fe:	5a 80       	ldd	r5, Y+2	; 0x02
    3400:	6b 80       	ldd	r6, Y+3	; 0x03
    3402:	7c 80       	ldd	r7, Y+4	; 0x04
    3404:	17 01       	movw	r2, r14
    3406:	1e e2       	ldi	r17, 0x2E	; 46
    3408:	21 0e       	add	r2, r17
    340a:	31 1c       	adc	r3, r1
    340c:	fe 8a       	std	Y+22, r15	; 0x16
    340e:	ed 8a       	std	Y+21, r14	; 0x15
    3410:	38 c0       	rjmp	.+112    	; 0x3482 <create_chain+0x10c>
    3412:	09 81       	ldd	r16, Y+1	; 0x01
    3414:	1a 81       	ldd	r17, Y+2	; 0x02
    3416:	2b 81       	ldd	r18, Y+3	; 0x03
    3418:	3c 81       	ldd	r19, Y+4	; 0x04
    341a:	02 30       	cpi	r16, 0x02	; 2
    341c:	11 05       	cpc	r17, r1
    341e:	21 05       	cpc	r18, r1
    3420:	31 05       	cpc	r19, r1
    3422:	08 f4       	brcc	.+2      	; 0x3426 <create_chain+0xb0>
    3424:	1c c3       	rjmp	.+1592   	; 0x3a5e <create_chain+0x6e8>
    3426:	02 e0       	ldi	r16, 0x02	; 2
    3428:	40 2e       	mov	r4, r16
    342a:	51 2c       	mov	r5, r1
    342c:	61 2c       	mov	r6, r1
    342e:	71 2c       	mov	r7, r1
    3430:	03 97       	sbiw	r24, 0x03	; 3
    3432:	a1 05       	cpc	r26, r1
    3434:	b1 05       	cpc	r27, r1
    3436:	58 f0       	brcs	.+22     	; 0x344e <create_chain+0xd8>
    3438:	ad 89       	ldd	r26, Y+21	; 0x15
    343a:	be 89       	ldd	r27, Y+22	; 0x16
    343c:	8c 91       	ld	r24, X
    343e:	82 30       	cpi	r24, 0x02	; 2
    3440:	b1 f1       	breq	.+108    	; 0x34ae <create_chain+0x138>
    3442:	83 30       	cpi	r24, 0x03	; 3
    3444:	09 f4       	brne	.+2      	; 0x3448 <create_chain+0xd2>
    3446:	4e c1       	rjmp	.+668    	; 0x36e4 <create_chain+0x36e>
    3448:	81 30       	cpi	r24, 0x01	; 1
    344a:	09 f4       	brne	.+2      	; 0x344e <create_chain+0xd8>
    344c:	b9 c0       	rjmp	.+370    	; 0x35c0 <create_chain+0x24a>
    344e:	41 e0       	ldi	r20, 0x01	; 1
    3450:	50 e0       	ldi	r21, 0x00	; 0
    3452:	60 e0       	ldi	r22, 0x00	; 0
    3454:	70 e0       	ldi	r23, 0x00	; 0
    3456:	41 30       	cpi	r20, 0x01	; 1
    3458:	51 05       	cpc	r21, r1
    345a:	61 05       	cpc	r22, r1
    345c:	71 05       	cpc	r23, r1
    345e:	09 f4       	brne	.+2      	; 0x3462 <create_chain+0xec>
    3460:	00 c2       	rjmp	.+1024   	; 0x3862 <create_chain+0x4ec>
    3462:	09 81       	ldd	r16, Y+1	; 0x01
    3464:	1a 81       	ldd	r17, Y+2	; 0x02
    3466:	2b 81       	ldd	r18, Y+3	; 0x03
    3468:	3c 81       	ldd	r19, Y+4	; 0x04
    346a:	40 16       	cp	r4, r16
    346c:	51 06       	cpc	r5, r17
    346e:	62 06       	cpc	r6, r18
    3470:	73 06       	cpc	r7, r19
    3472:	09 f4       	brne	.+2      	; 0x3476 <create_chain+0x100>
    3474:	f4 c2       	rjmp	.+1512   	; 0x3a5e <create_chain+0x6e8>
    3476:	ed 89       	ldd	r30, Y+21	; 0x15
    3478:	fe 89       	ldd	r31, Y+22	; 0x16
    347a:	82 89       	ldd	r24, Z+18	; 0x12
    347c:	93 89       	ldd	r25, Z+19	; 0x13
    347e:	a4 89       	ldd	r26, Z+20	; 0x14
    3480:	b5 89       	ldd	r27, Z+21	; 0x15
    3482:	2f ef       	ldi	r18, 0xFF	; 255
    3484:	42 1a       	sub	r4, r18
    3486:	52 0a       	sbc	r5, r18
    3488:	62 0a       	sbc	r6, r18
    348a:	72 0a       	sbc	r7, r18
    348c:	48 16       	cp	r4, r24
    348e:	59 06       	cpc	r5, r25
    3490:	6a 06       	cpc	r6, r26
    3492:	7b 06       	cpc	r7, r27
    3494:	08 f0       	brcs	.+2      	; 0x3498 <create_chain+0x122>
    3496:	bd cf       	rjmp	.-134    	; 0x3412 <create_chain+0x9c>
    3498:	12 e0       	ldi	r17, 0x02	; 2
    349a:	41 16       	cp	r4, r17
    349c:	51 04       	cpc	r5, r1
    349e:	61 04       	cpc	r6, r1
    34a0:	71 04       	cpc	r7, r1
    34a2:	a8 f2       	brcs	.-86     	; 0x344e <create_chain+0xd8>
    34a4:	ad 89       	ldd	r26, Y+21	; 0x15
    34a6:	be 89       	ldd	r27, Y+22	; 0x16
    34a8:	8c 91       	ld	r24, X
    34aa:	82 30       	cpi	r24, 0x02	; 2
    34ac:	51 f6       	brne	.-108    	; 0x3442 <create_chain+0xcc>
    34ae:	fd 01       	movw	r30, r26
    34b0:	ff 24       	eor	r15, r15
    34b2:	e7 2c       	mov	r14, r7
    34b4:	d6 2c       	mov	r13, r6
    34b6:	c5 2c       	mov	r12, r5
    34b8:	86 8d       	ldd	r24, Z+30	; 0x1e
    34ba:	97 8d       	ldd	r25, Z+31	; 0x1f
    34bc:	a0 a1       	ldd	r26, Z+32	; 0x20
    34be:	b1 a1       	ldd	r27, Z+33	; 0x21
    34c0:	c8 0e       	add	r12, r24
    34c2:	d9 1e       	adc	r13, r25
    34c4:	ea 1e       	adc	r14, r26
    34c6:	fb 1e       	adc	r15, r27
    34c8:	82 a4       	ldd	r8, Z+42	; 0x2a
    34ca:	93 a4       	ldd	r9, Z+43	; 0x2b
    34cc:	a4 a4       	ldd	r10, Z+44	; 0x2c
    34ce:	b5 a4       	ldd	r11, Z+45	; 0x2d
    34d0:	c8 14       	cp	r12, r8
    34d2:	d9 04       	cpc	r13, r9
    34d4:	ea 04       	cpc	r14, r10
    34d6:	fb 04       	cpc	r15, r11
    34d8:	c9 f0       	breq	.+50     	; 0x350c <create_chain+0x196>
    34da:	84 81       	ldd	r24, Z+4	; 0x04
    34dc:	81 11       	cpse	r24, r1
    34de:	6d c2       	rjmp	.+1242   	; 0x39ba <create_chain+0x644>
    34e0:	01 e0       	ldi	r16, 0x01	; 1
    34e2:	10 e0       	ldi	r17, 0x00	; 0
    34e4:	a7 01       	movw	r20, r14
    34e6:	96 01       	movw	r18, r12
    34e8:	b1 01       	movw	r22, r2
    34ea:	ad 89       	ldd	r26, Y+21	; 0x15
    34ec:	be 89       	ldd	r27, Y+22	; 0x16
    34ee:	11 96       	adiw	r26, 0x01	; 1
    34f0:	8c 91       	ld	r24, X
    34f2:	0e 94 ef 33 	call	0x67de	; 0x67de <disk_read>
    34f6:	81 11       	cpse	r24, r1
    34f8:	a7 c1       	rjmp	.+846    	; 0x3848 <create_chain+0x4d2>
    34fa:	ad 89       	ldd	r26, Y+21	; 0x15
    34fc:	be 89       	ldd	r27, Y+22	; 0x16
    34fe:	9a 96       	adiw	r26, 0x2a	; 42
    3500:	cd 92       	st	X+, r12
    3502:	dd 92       	st	X+, r13
    3504:	ed 92       	st	X+, r14
    3506:	fc 92       	st	X, r15
    3508:	9d 97       	sbiw	r26, 0x2d	; 45
    350a:	fd 01       	movw	r30, r26
    350c:	d3 01       	movw	r26, r6
    350e:	c2 01       	movw	r24, r4
    3510:	88 0f       	add	r24, r24
    3512:	99 1f       	adc	r25, r25
    3514:	aa 1f       	adc	r26, r26
    3516:	bb 1f       	adc	r27, r27
    3518:	8e 7f       	andi	r24, 0xFE	; 254
    351a:	91 70       	andi	r25, 0x01	; 1
    351c:	aa 27       	eor	r26, r26
    351e:	bb 27       	eor	r27, r27
    3520:	e8 0f       	add	r30, r24
    3522:	f9 1f       	adc	r31, r25
    3524:	46 a5       	ldd	r20, Z+46	; 0x2e
    3526:	57 a5       	ldd	r21, Z+47	; 0x2f
    3528:	60 e0       	ldi	r22, 0x00	; 0
    352a:	70 e0       	ldi	r23, 0x00	; 0
    352c:	28 c1       	rjmp	.+592    	; 0x377e <create_chain+0x408>
    352e:	89 85       	ldd	r24, Y+9	; 0x09
    3530:	9a 85       	ldd	r25, Y+10	; 0x0a
    3532:	ab 85       	ldd	r26, Y+11	; 0x0b
    3534:	bc 85       	ldd	r27, Y+12	; 0x0c
    3536:	82 30       	cpi	r24, 0x02	; 2
    3538:	91 05       	cpc	r25, r1
    353a:	a1 05       	cpc	r26, r1
    353c:	b1 05       	cpc	r27, r1
    353e:	68 f0       	brcs	.+26     	; 0x355a <create_chain+0x1e4>
    3540:	8c 01       	movw	r16, r24
    3542:	9d 01       	movw	r18, r26
    3544:	f7 01       	movw	r30, r14
    3546:	82 89       	ldd	r24, Z+18	; 0x12
    3548:	93 89       	ldd	r25, Z+19	; 0x13
    354a:	a4 89       	ldd	r26, Z+20	; 0x14
    354c:	b5 89       	ldd	r27, Z+21	; 0x15
    354e:	08 17       	cp	r16, r24
    3550:	19 07       	cpc	r17, r25
    3552:	2a 07       	cpc	r18, r26
    3554:	3b 07       	cpc	r19, r27
    3556:	08 f4       	brcc	.+2      	; 0x355a <create_chain+0x1e4>
    3558:	d9 c2       	rjmp	.+1458   	; 0x3b0c <create_chain+0x796>
    355a:	31 e0       	ldi	r19, 0x01	; 1
    355c:	20 e0       	ldi	r18, 0x00	; 0
    355e:	80 e0       	ldi	r24, 0x00	; 0
    3560:	90 e0       	ldi	r25, 0x00	; 0
    3562:	63 2f       	mov	r22, r19
    3564:	72 2f       	mov	r23, r18
    3566:	66 96       	adiw	r28, 0x16	; 22
    3568:	0f b6       	in	r0, 0x3f	; 63
    356a:	f8 94       	cli
    356c:	de bf       	out	0x3e, r29	; 62
    356e:	0f be       	out	0x3f, r0	; 63
    3570:	cd bf       	out	0x3d, r28	; 61
    3572:	df 91       	pop	r29
    3574:	cf 91       	pop	r28
    3576:	1f 91       	pop	r17
    3578:	0f 91       	pop	r16
    357a:	ff 90       	pop	r15
    357c:	ef 90       	pop	r14
    357e:	df 90       	pop	r13
    3580:	cf 90       	pop	r12
    3582:	bf 90       	pop	r11
    3584:	af 90       	pop	r10
    3586:	9f 90       	pop	r9
    3588:	8f 90       	pop	r8
    358a:	7f 90       	pop	r7
    358c:	6f 90       	pop	r6
    358e:	5f 90       	pop	r5
    3590:	4f 90       	pop	r4
    3592:	3f 90       	pop	r3
    3594:	2f 90       	pop	r2
    3596:	08 95       	ret
    3598:	fc 01       	movw	r30, r24
    359a:	82 89       	ldd	r24, Z+18	; 0x12
    359c:	93 89       	ldd	r25, Z+19	; 0x13
    359e:	a4 89       	ldd	r26, Z+20	; 0x14
    35a0:	b5 89       	ldd	r27, Z+21	; 0x15
    35a2:	08 17       	cp	r16, r24
    35a4:	19 07       	cpc	r17, r25
    35a6:	2a 07       	cpc	r18, r26
    35a8:	3b 07       	cpc	r19, r27
    35aa:	08 f4       	brcc	.+2      	; 0x35ae <create_chain+0x238>
    35ac:	27 cf       	rjmp	.-434    	; 0x33fc <create_chain+0x86>
    35ae:	21 e0       	ldi	r18, 0x01	; 1
    35b0:	30 e0       	ldi	r19, 0x00	; 0
    35b2:	40 e0       	ldi	r20, 0x00	; 0
    35b4:	50 e0       	ldi	r21, 0x00	; 0
    35b6:	29 83       	std	Y+1, r18	; 0x01
    35b8:	3a 83       	std	Y+2, r19	; 0x02
    35ba:	4b 83       	std	Y+3, r20	; 0x03
    35bc:	5c 83       	std	Y+4, r21	; 0x04
    35be:	1e cf       	rjmp	.-452    	; 0x33fc <create_chain+0x86>
    35c0:	c2 01       	movw	r24, r4
    35c2:	96 95       	lsr	r25
    35c4:	87 95       	ror	r24
    35c6:	fc 01       	movw	r30, r24
    35c8:	e4 0d       	add	r30, r4
    35ca:	f5 1d       	adc	r31, r5
    35cc:	fe 83       	std	Y+6, r31	; 0x06
    35ce:	ed 83       	std	Y+5, r30	; 0x05
    35d0:	5e 96       	adiw	r26, 0x1e	; 30
    35d2:	4d 91       	ld	r20, X+
    35d4:	5d 91       	ld	r21, X+
    35d6:	6d 91       	ld	r22, X+
    35d8:	7c 91       	ld	r23, X
    35da:	91 97       	sbiw	r26, 0x21	; 33
    35dc:	cf 01       	movw	r24, r30
    35de:	89 2f       	mov	r24, r25
    35e0:	99 27       	eor	r25, r25
    35e2:	86 95       	lsr	r24
    35e4:	4a 01       	movw	r8, r20
    35e6:	5b 01       	movw	r10, r22
    35e8:	88 0e       	add	r8, r24
    35ea:	99 1e       	adc	r9, r25
    35ec:	a1 1c       	adc	r10, r1
    35ee:	b1 1c       	adc	r11, r1
    35f0:	9a 96       	adiw	r26, 0x2a	; 42
    35f2:	cd 90       	ld	r12, X+
    35f4:	dd 90       	ld	r13, X+
    35f6:	ed 90       	ld	r14, X+
    35f8:	fc 90       	ld	r15, X
    35fa:	9d 97       	sbiw	r26, 0x2d	; 45
    35fc:	c8 14       	cp	r12, r8
    35fe:	d9 04       	cpc	r13, r9
    3600:	ea 04       	cpc	r14, r10
    3602:	fb 04       	cpc	r15, r11
    3604:	11 f1       	breq	.+68     	; 0x364a <create_chain+0x2d4>
    3606:	14 96       	adiw	r26, 0x04	; 4
    3608:	8c 91       	ld	r24, X
    360a:	14 97       	sbiw	r26, 0x04	; 4
    360c:	81 11       	cpse	r24, r1
    360e:	2d c1       	rjmp	.+602    	; 0x386a <create_chain+0x4f4>
    3610:	01 e0       	ldi	r16, 0x01	; 1
    3612:	10 e0       	ldi	r17, 0x00	; 0
    3614:	a5 01       	movw	r20, r10
    3616:	94 01       	movw	r18, r8
    3618:	b1 01       	movw	r22, r2
    361a:	ad 89       	ldd	r26, Y+21	; 0x15
    361c:	be 89       	ldd	r27, Y+22	; 0x16
    361e:	11 96       	adiw	r26, 0x01	; 1
    3620:	8c 91       	ld	r24, X
    3622:	0e 94 ef 33 	call	0x67de	; 0x67de <disk_read>
    3626:	81 11       	cpse	r24, r1
    3628:	0f c1       	rjmp	.+542    	; 0x3848 <create_chain+0x4d2>
    362a:	ad 89       	ldd	r26, Y+21	; 0x15
    362c:	be 89       	ldd	r27, Y+22	; 0x16
    362e:	9a 96       	adiw	r26, 0x2a	; 42
    3630:	8d 92       	st	X+, r8
    3632:	9d 92       	st	X+, r9
    3634:	ad 92       	st	X+, r10
    3636:	bc 92       	st	X, r11
    3638:	9d 97       	sbiw	r26, 0x2d	; 45
    363a:	5e 96       	adiw	r26, 0x1e	; 30
    363c:	4d 91       	ld	r20, X+
    363e:	5d 91       	ld	r21, X+
    3640:	6d 91       	ld	r22, X+
    3642:	7c 91       	ld	r23, X
    3644:	91 97       	sbiw	r26, 0x21	; 33
    3646:	ed 81       	ldd	r30, Y+5	; 0x05
    3648:	fe 81       	ldd	r31, Y+6	; 0x06
    364a:	0d 81       	ldd	r16, Y+5	; 0x05
    364c:	1e 81       	ldd	r17, Y+6	; 0x06
    364e:	0f 5f       	subi	r16, 0xFF	; 255
    3650:	1f 4f       	sbci	r17, 0xFF	; 255
    3652:	1e 87       	std	Y+14, r17	; 0x0e
    3654:	0d 87       	std	Y+13, r16	; 0x0d
    3656:	f1 70       	andi	r31, 0x01	; 1
    3658:	2d 89       	ldd	r18, Y+21	; 0x15
    365a:	3e 89       	ldd	r19, Y+22	; 0x16
    365c:	e2 0f       	add	r30, r18
    365e:	f3 1f       	adc	r31, r19
    3660:	96 a5       	ldd	r25, Z+46	; 0x2e
    3662:	9d 83       	std	Y+5, r25	; 0x05
    3664:	c8 01       	movw	r24, r16
    3666:	89 2f       	mov	r24, r25
    3668:	99 27       	eor	r25, r25
    366a:	86 95       	lsr	r24
    366c:	6a 01       	movw	r12, r20
    366e:	7b 01       	movw	r14, r22
    3670:	c8 0e       	add	r12, r24
    3672:	d9 1e       	adc	r13, r25
    3674:	e1 1c       	adc	r14, r1
    3676:	f1 1c       	adc	r15, r1
    3678:	8c 14       	cp	r8, r12
    367a:	9d 04       	cpc	r9, r13
    367c:	ae 04       	cpc	r10, r14
    367e:	bf 04       	cpc	r11, r15
    3680:	d1 f0       	breq	.+52     	; 0x36b6 <create_chain+0x340>
    3682:	d9 01       	movw	r26, r18
    3684:	14 96       	adiw	r26, 0x04	; 4
    3686:	8c 91       	ld	r24, X
    3688:	14 97       	sbiw	r26, 0x04	; 4
    368a:	81 11       	cpse	r24, r1
    368c:	ed c1       	rjmp	.+986    	; 0x3a68 <create_chain+0x6f2>
    368e:	01 e0       	ldi	r16, 0x01	; 1
    3690:	10 e0       	ldi	r17, 0x00	; 0
    3692:	a7 01       	movw	r20, r14
    3694:	96 01       	movw	r18, r12
    3696:	b1 01       	movw	r22, r2
    3698:	ed 89       	ldd	r30, Y+21	; 0x15
    369a:	fe 89       	ldd	r31, Y+22	; 0x16
    369c:	81 81       	ldd	r24, Z+1	; 0x01
    369e:	0e 94 ef 33 	call	0x67de	; 0x67de <disk_read>
    36a2:	81 11       	cpse	r24, r1
    36a4:	d1 c0       	rjmp	.+418    	; 0x3848 <create_chain+0x4d2>
    36a6:	ad 89       	ldd	r26, Y+21	; 0x15
    36a8:	be 89       	ldd	r27, Y+22	; 0x16
    36aa:	9a 96       	adiw	r26, 0x2a	; 42
    36ac:	cd 92       	st	X+, r12
    36ae:	dd 92       	st	X+, r13
    36b0:	ed 92       	st	X+, r14
    36b2:	fc 92       	st	X, r15
    36b4:	9d 97       	sbiw	r26, 0x2d	; 45
    36b6:	ed 85       	ldd	r30, Y+13	; 0x0d
    36b8:	fe 85       	ldd	r31, Y+14	; 0x0e
    36ba:	f1 70       	andi	r31, 0x01	; 1
    36bc:	0d 89       	ldd	r16, Y+21	; 0x15
    36be:	1e 89       	ldd	r17, Y+22	; 0x16
    36c0:	e0 0f       	add	r30, r16
    36c2:	f1 1f       	adc	r31, r17
    36c4:	86 a5       	ldd	r24, Z+46	; 0x2e
    36c6:	9d 81       	ldd	r25, Y+5	; 0x05
    36c8:	49 2f       	mov	r20, r25
    36ca:	50 e0       	ldi	r21, 0x00	; 0
    36cc:	58 2b       	or	r21, r24
    36ce:	40 fe       	sbrs	r4, 0
    36d0:	4c c2       	rjmp	.+1176   	; 0x3b6a <create_chain+0x7f4>
    36d2:	52 95       	swap	r21
    36d4:	42 95       	swap	r20
    36d6:	4f 70       	andi	r20, 0x0F	; 15
    36d8:	45 27       	eor	r20, r21
    36da:	5f 70       	andi	r21, 0x0F	; 15
    36dc:	45 27       	eor	r20, r21
    36de:	60 e0       	ldi	r22, 0x00	; 0
    36e0:	70 e0       	ldi	r23, 0x00	; 0
    36e2:	4d c0       	rjmp	.+154    	; 0x377e <create_chain+0x408>
    36e4:	ad 89       	ldd	r26, Y+21	; 0x15
    36e6:	be 89       	ldd	r27, Y+22	; 0x16
    36e8:	5e 96       	adiw	r26, 0x1e	; 30
    36ea:	cd 90       	ld	r12, X+
    36ec:	dd 90       	ld	r13, X+
    36ee:	ed 90       	ld	r14, X+
    36f0:	fc 90       	ld	r15, X
    36f2:	91 97       	sbiw	r26, 0x21	; 33
    36f4:	d3 01       	movw	r26, r6
    36f6:	c2 01       	movw	r24, r4
    36f8:	37 e0       	ldi	r19, 0x07	; 7
    36fa:	b6 95       	lsr	r27
    36fc:	a7 95       	ror	r26
    36fe:	97 95       	ror	r25
    3700:	87 95       	ror	r24
    3702:	3a 95       	dec	r19
    3704:	d1 f7       	brne	.-12     	; 0x36fa <create_chain+0x384>
    3706:	c8 0e       	add	r12, r24
    3708:	d9 1e       	adc	r13, r25
    370a:	ea 1e       	adc	r14, r26
    370c:	fb 1e       	adc	r15, r27
    370e:	ed 89       	ldd	r30, Y+21	; 0x15
    3710:	fe 89       	ldd	r31, Y+22	; 0x16
    3712:	82 a4       	ldd	r8, Z+42	; 0x2a
    3714:	93 a4       	ldd	r9, Z+43	; 0x2b
    3716:	a4 a4       	ldd	r10, Z+44	; 0x2c
    3718:	b5 a4       	ldd	r11, Z+45	; 0x2d
    371a:	c8 14       	cp	r12, r8
    371c:	d9 04       	cpc	r13, r9
    371e:	ea 04       	cpc	r14, r10
    3720:	fb 04       	cpc	r15, r11
    3722:	c1 f0       	breq	.+48     	; 0x3754 <create_chain+0x3de>
    3724:	84 81       	ldd	r24, Z+4	; 0x04
    3726:	81 11       	cpse	r24, r1
    3728:	f6 c0       	rjmp	.+492    	; 0x3916 <create_chain+0x5a0>
    372a:	01 e0       	ldi	r16, 0x01	; 1
    372c:	10 e0       	ldi	r17, 0x00	; 0
    372e:	a7 01       	movw	r20, r14
    3730:	96 01       	movw	r18, r12
    3732:	b1 01       	movw	r22, r2
    3734:	ed 89       	ldd	r30, Y+21	; 0x15
    3736:	fe 89       	ldd	r31, Y+22	; 0x16
    3738:	81 81       	ldd	r24, Z+1	; 0x01
    373a:	0e 94 ef 33 	call	0x67de	; 0x67de <disk_read>
    373e:	81 11       	cpse	r24, r1
    3740:	83 c0       	rjmp	.+262    	; 0x3848 <create_chain+0x4d2>
    3742:	ad 89       	ldd	r26, Y+21	; 0x15
    3744:	be 89       	ldd	r27, Y+22	; 0x16
    3746:	9a 96       	adiw	r26, 0x2a	; 42
    3748:	cd 92       	st	X+, r12
    374a:	dd 92       	st	X+, r13
    374c:	ed 92       	st	X+, r14
    374e:	fc 92       	st	X, r15
    3750:	9d 97       	sbiw	r26, 0x2d	; 45
    3752:	fd 01       	movw	r30, r26
    3754:	d3 01       	movw	r26, r6
    3756:	c2 01       	movw	r24, r4
    3758:	88 0f       	add	r24, r24
    375a:	99 1f       	adc	r25, r25
    375c:	aa 1f       	adc	r26, r26
    375e:	bb 1f       	adc	r27, r27
    3760:	88 0f       	add	r24, r24
    3762:	99 1f       	adc	r25, r25
    3764:	aa 1f       	adc	r26, r26
    3766:	bb 1f       	adc	r27, r27
    3768:	8c 7f       	andi	r24, 0xFC	; 252
    376a:	91 70       	andi	r25, 0x01	; 1
    376c:	aa 27       	eor	r26, r26
    376e:	bb 27       	eor	r27, r27
    3770:	e8 0f       	add	r30, r24
    3772:	f9 1f       	adc	r31, r25
    3774:	46 a5       	ldd	r20, Z+46	; 0x2e
    3776:	57 a5       	ldd	r21, Z+47	; 0x2f
    3778:	60 a9       	ldd	r22, Z+48	; 0x30
    377a:	71 a9       	ldd	r23, Z+49	; 0x31
    377c:	7f 70       	andi	r23, 0x0F	; 15
    377e:	41 15       	cp	r20, r1
    3780:	51 05       	cpc	r21, r1
    3782:	61 05       	cpc	r22, r1
    3784:	71 05       	cpc	r23, r1
    3786:	09 f0       	breq	.+2      	; 0x378a <create_chain+0x414>
    3788:	66 ce       	rjmp	.-820    	; 0x3456 <create_chain+0xe0>
    378a:	ed 88       	ldd	r14, Y+21	; 0x15
    378c:	fe 88       	ldd	r15, Y+22	; 0x16
    378e:	f7 01       	movw	r30, r14
    3790:	82 89       	ldd	r24, Z+18	; 0x12
    3792:	93 89       	ldd	r25, Z+19	; 0x13
    3794:	a4 89       	ldd	r26, Z+20	; 0x14
    3796:	b5 89       	ldd	r27, Z+21	; 0x15
    3798:	48 16       	cp	r4, r24
    379a:	59 06       	cpc	r5, r25
    379c:	6a 06       	cpc	r6, r26
    379e:	7b 06       	cpc	r7, r27
    37a0:	08 f0       	brcs	.+2      	; 0x37a4 <create_chain+0x42e>
    37a2:	db ce       	rjmp	.-586    	; 0x355a <create_chain+0x1e4>
    37a4:	0f ef       	ldi	r16, 0xFF	; 255
    37a6:	1f ef       	ldi	r17, 0xFF	; 255
    37a8:	2f ef       	ldi	r18, 0xFF	; 255
    37aa:	3f e0       	ldi	r19, 0x0F	; 15
    37ac:	b3 01       	movw	r22, r6
    37ae:	a2 01       	movw	r20, r4
    37b0:	c7 01       	movw	r24, r14
    37b2:	0e 94 c5 12 	call	0x258a	; 0x258a <put_fat.part.5>
    37b6:	81 11       	cpse	r24, r1
    37b8:	d0 c1       	rjmp	.+928    	; 0x3b5a <create_chain+0x7e4>
    37ba:	09 85       	ldd	r16, Y+9	; 0x09
    37bc:	1a 85       	ldd	r17, Y+10	; 0x0a
    37be:	2b 85       	ldd	r18, Y+11	; 0x0b
    37c0:	3c 85       	ldd	r19, Y+12	; 0x0c
    37c2:	01 15       	cp	r16, r1
    37c4:	11 05       	cpc	r17, r1
    37c6:	21 05       	cpc	r18, r1
    37c8:	31 05       	cpc	r19, r1
    37ca:	e1 f0       	breq	.+56     	; 0x3804 <create_chain+0x48e>
    37cc:	02 30       	cpi	r16, 0x02	; 2
    37ce:	11 05       	cpc	r17, r1
    37d0:	21 05       	cpc	r18, r1
    37d2:	31 05       	cpc	r19, r1
    37d4:	08 f4       	brcc	.+2      	; 0x37d8 <create_chain+0x462>
    37d6:	c1 ce       	rjmp	.-638    	; 0x355a <create_chain+0x1e4>
    37d8:	f7 01       	movw	r30, r14
    37da:	82 89       	ldd	r24, Z+18	; 0x12
    37dc:	93 89       	ldd	r25, Z+19	; 0x13
    37de:	a4 89       	ldd	r26, Z+20	; 0x14
    37e0:	b5 89       	ldd	r27, Z+21	; 0x15
    37e2:	08 17       	cp	r16, r24
    37e4:	19 07       	cpc	r17, r25
    37e6:	2a 07       	cpc	r18, r26
    37e8:	3b 07       	cpc	r19, r27
    37ea:	08 f0       	brcs	.+2      	; 0x37ee <create_chain+0x478>
    37ec:	b6 ce       	rjmp	.-660    	; 0x355a <create_chain+0x1e4>
    37ee:	93 01       	movw	r18, r6
    37f0:	82 01       	movw	r16, r4
    37f2:	49 85       	ldd	r20, Y+9	; 0x09
    37f4:	5a 85       	ldd	r21, Y+10	; 0x0a
    37f6:	6b 85       	ldd	r22, Y+11	; 0x0b
    37f8:	7c 85       	ldd	r23, Y+12	; 0x0c
    37fa:	c7 01       	movw	r24, r14
    37fc:	0e 94 c5 12 	call	0x258a	; 0x258a <put_fat.part.5>
    3800:	81 11       	cpse	r24, r1
    3802:	ab c1       	rjmp	.+854    	; 0x3b5a <create_chain+0x7e4>
    3804:	d7 01       	movw	r26, r14
    3806:	1a 96       	adiw	r26, 0x0a	; 10
    3808:	4d 92       	st	X+, r4
    380a:	5d 92       	st	X+, r5
    380c:	6d 92       	st	X+, r6
    380e:	7c 92       	st	X, r7
    3810:	1d 97       	sbiw	r26, 0x0d	; 13
    3812:	1e 96       	adiw	r26, 0x0e	; 14
    3814:	8d 91       	ld	r24, X+
    3816:	9d 91       	ld	r25, X+
    3818:	0d 90       	ld	r0, X+
    381a:	bc 91       	ld	r27, X
    381c:	a0 2d       	mov	r26, r0
    381e:	8f 3f       	cpi	r24, 0xFF	; 255
    3820:	ef ef       	ldi	r30, 0xFF	; 255
    3822:	9e 07       	cpc	r25, r30
    3824:	ae 07       	cpc	r26, r30
    3826:	be 07       	cpc	r27, r30
    3828:	59 f0       	breq	.+22     	; 0x3840 <create_chain+0x4ca>
    382a:	01 97       	sbiw	r24, 0x01	; 1
    382c:	a1 09       	sbc	r26, r1
    382e:	b1 09       	sbc	r27, r1
    3830:	f7 01       	movw	r30, r14
    3832:	86 87       	std	Z+14, r24	; 0x0e
    3834:	97 87       	std	Z+15, r25	; 0x0f
    3836:	a0 8b       	std	Z+16, r26	; 0x10
    3838:	b1 8b       	std	Z+17, r27	; 0x11
    383a:	85 81       	ldd	r24, Z+5	; 0x05
    383c:	81 60       	ori	r24, 0x01	; 1
    383e:	85 83       	std	Z+5, r24	; 0x05
    3840:	34 2d       	mov	r19, r4
    3842:	25 2d       	mov	r18, r5
    3844:	c3 01       	movw	r24, r6
    3846:	8d ce       	rjmp	.-742    	; 0x3562 <create_chain+0x1ec>
    3848:	ed 88       	ldd	r14, Y+21	; 0x15
    384a:	fe 88       	ldd	r15, Y+22	; 0x16
    384c:	8f ef       	ldi	r24, 0xFF	; 255
    384e:	9f ef       	ldi	r25, 0xFF	; 255
    3850:	dc 01       	movw	r26, r24
    3852:	f7 01       	movw	r30, r14
    3854:	82 a7       	std	Z+42, r24	; 0x2a
    3856:	93 a7       	std	Z+43, r25	; 0x2b
    3858:	a4 a7       	std	Z+44, r26	; 0x2c
    385a:	b5 a7       	std	Z+45, r27	; 0x2d
    385c:	4f ef       	ldi	r20, 0xFF	; 255
    385e:	5f ef       	ldi	r21, 0xFF	; 255
    3860:	ba 01       	movw	r22, r20
    3862:	34 2f       	mov	r19, r20
    3864:	25 2f       	mov	r18, r21
    3866:	cb 01       	movw	r24, r22
    3868:	7c ce       	rjmp	.-776    	; 0x3562 <create_chain+0x1ec>
    386a:	01 e0       	ldi	r16, 0x01	; 1
    386c:	10 e0       	ldi	r17, 0x00	; 0
    386e:	a7 01       	movw	r20, r14
    3870:	96 01       	movw	r18, r12
    3872:	b1 01       	movw	r22, r2
    3874:	11 96       	adiw	r26, 0x01	; 1
    3876:	8c 91       	ld	r24, X
    3878:	0e 94 74 34 	call	0x68e8	; 0x68e8 <disk_write>
    387c:	81 11       	cpse	r24, r1
    387e:	ee cf       	rjmp	.-36     	; 0x385c <create_chain+0x4e6>
    3880:	ad 89       	ldd	r26, Y+21	; 0x15
    3882:	be 89       	ldd	r27, Y+22	; 0x16
    3884:	14 96       	adiw	r26, 0x04	; 4
    3886:	1c 92       	st	X, r1
    3888:	14 97       	sbiw	r26, 0x04	; 4
    388a:	fd 01       	movw	r30, r26
    388c:	86 89       	ldd	r24, Z+22	; 0x16
    388e:	97 89       	ldd	r25, Z+23	; 0x17
    3890:	a0 8d       	ldd	r26, Z+24	; 0x18
    3892:	b1 8d       	ldd	r27, Z+25	; 0x19
    3894:	46 8d       	ldd	r20, Z+30	; 0x1e
    3896:	57 8d       	ldd	r21, Z+31	; 0x1f
    3898:	60 a1       	ldd	r22, Z+32	; 0x20
    389a:	71 a1       	ldd	r23, Z+33	; 0x21
    389c:	97 01       	movw	r18, r14
    389e:	86 01       	movw	r16, r12
    38a0:	04 1b       	sub	r16, r20
    38a2:	15 0b       	sbc	r17, r21
    38a4:	26 0b       	sbc	r18, r22
    38a6:	37 0b       	sbc	r19, r23
    38a8:	08 17       	cp	r16, r24
    38aa:	19 07       	cpc	r17, r25
    38ac:	2a 07       	cpc	r18, r26
    38ae:	3b 07       	cpc	r19, r27
    38b0:	08 f0       	brcs	.+2      	; 0x38b4 <create_chain+0x53e>
    38b2:	ae ce       	rjmp	.-676    	; 0x3610 <create_chain+0x29a>
    38b4:	23 81       	ldd	r18, Z+3	; 0x03
    38b6:	02 2f       	mov	r16, r18
    38b8:	10 e0       	ldi	r17, 0x00	; 0
    38ba:	02 30       	cpi	r16, 0x02	; 2
    38bc:	11 05       	cpc	r17, r1
    38be:	08 f4       	brcc	.+2      	; 0x38c2 <create_chain+0x54c>
    38c0:	a7 ce       	rjmp	.-690    	; 0x3610 <create_chain+0x29a>
    38c2:	4d 86       	std	Y+13, r4	; 0x0d
    38c4:	5e 86       	std	Y+14, r5	; 0x0e
    38c6:	6f 86       	std	Y+15, r6	; 0x0f
    38c8:	78 8a       	std	Y+16, r7	; 0x10
    38ca:	26 01       	movw	r4, r12
    38cc:	37 01       	movw	r6, r14
    38ce:	78 01       	movw	r14, r16
    38d0:	6f 01       	movw	r12, r30
    38d2:	05 c0       	rjmp	.+10     	; 0x38de <create_chain+0x568>
    38d4:	f6 01       	movw	r30, r12
    38d6:	86 89       	ldd	r24, Z+22	; 0x16
    38d8:	97 89       	ldd	r25, Z+23	; 0x17
    38da:	a0 8d       	ldd	r26, Z+24	; 0x18
    38dc:	b1 8d       	ldd	r27, Z+25	; 0x19
    38de:	48 0e       	add	r4, r24
    38e0:	59 1e       	adc	r5, r25
    38e2:	6a 1e       	adc	r6, r26
    38e4:	7b 1e       	adc	r7, r27
    38e6:	01 e0       	ldi	r16, 0x01	; 1
    38e8:	10 e0       	ldi	r17, 0x00	; 0
    38ea:	a3 01       	movw	r20, r6
    38ec:	92 01       	movw	r18, r4
    38ee:	b1 01       	movw	r22, r2
    38f0:	d6 01       	movw	r26, r12
    38f2:	11 96       	adiw	r26, 0x01	; 1
    38f4:	8c 91       	ld	r24, X
    38f6:	0e 94 74 34 	call	0x68e8	; 0x68e8 <disk_write>
    38fa:	b1 e0       	ldi	r27, 0x01	; 1
    38fc:	eb 1a       	sub	r14, r27
    38fe:	f1 08       	sbc	r15, r1
    3900:	e1 e0       	ldi	r30, 0x01	; 1
    3902:	ee 16       	cp	r14, r30
    3904:	f1 04       	cpc	r15, r1
    3906:	31 f7       	brne	.-52     	; 0x38d4 <create_chain+0x55e>
    3908:	4d 84       	ldd	r4, Y+13	; 0x0d
    390a:	5e 84       	ldd	r5, Y+14	; 0x0e
    390c:	6f 84       	ldd	r6, Y+15	; 0x0f
    390e:	78 88       	ldd	r7, Y+16	; 0x10
    3910:	de 8a       	std	Y+22, r13	; 0x16
    3912:	cd 8a       	std	Y+21, r12	; 0x15
    3914:	7d ce       	rjmp	.-774    	; 0x3610 <create_chain+0x29a>
    3916:	01 e0       	ldi	r16, 0x01	; 1
    3918:	10 e0       	ldi	r17, 0x00	; 0
    391a:	a5 01       	movw	r20, r10
    391c:	94 01       	movw	r18, r8
    391e:	b1 01       	movw	r22, r2
    3920:	81 81       	ldd	r24, Z+1	; 0x01
    3922:	0e 94 74 34 	call	0x68e8	; 0x68e8 <disk_write>
    3926:	81 11       	cpse	r24, r1
    3928:	99 cf       	rjmp	.-206    	; 0x385c <create_chain+0x4e6>
    392a:	ad 89       	ldd	r26, Y+21	; 0x15
    392c:	be 89       	ldd	r27, Y+22	; 0x16
    392e:	14 96       	adiw	r26, 0x04	; 4
    3930:	1c 92       	st	X, r1
    3932:	14 97       	sbiw	r26, 0x04	; 4
    3934:	fd 01       	movw	r30, r26
    3936:	86 89       	ldd	r24, Z+22	; 0x16
    3938:	97 89       	ldd	r25, Z+23	; 0x17
    393a:	a0 8d       	ldd	r26, Z+24	; 0x18
    393c:	b1 8d       	ldd	r27, Z+25	; 0x19
    393e:	46 8d       	ldd	r20, Z+30	; 0x1e
    3940:	57 8d       	ldd	r21, Z+31	; 0x1f
    3942:	60 a1       	ldd	r22, Z+32	; 0x20
    3944:	71 a1       	ldd	r23, Z+33	; 0x21
    3946:	95 01       	movw	r18, r10
    3948:	84 01       	movw	r16, r8
    394a:	04 1b       	sub	r16, r20
    394c:	15 0b       	sbc	r17, r21
    394e:	26 0b       	sbc	r18, r22
    3950:	37 0b       	sbc	r19, r23
    3952:	08 17       	cp	r16, r24
    3954:	19 07       	cpc	r17, r25
    3956:	2a 07       	cpc	r18, r26
    3958:	3b 07       	cpc	r19, r27
    395a:	08 f0       	brcs	.+2      	; 0x395e <create_chain+0x5e8>
    395c:	e6 ce       	rjmp	.-564    	; 0x372a <create_chain+0x3b4>
    395e:	23 81       	ldd	r18, Z+3	; 0x03
    3960:	02 2f       	mov	r16, r18
    3962:	10 e0       	ldi	r17, 0x00	; 0
    3964:	02 30       	cpi	r16, 0x02	; 2
    3966:	11 05       	cpc	r17, r1
    3968:	08 f4       	brcc	.+2      	; 0x396c <create_chain+0x5f6>
    396a:	df ce       	rjmp	.-578    	; 0x372a <create_chain+0x3b4>
    396c:	cd 82       	std	Y+5, r12	; 0x05
    396e:	de 82       	std	Y+6, r13	; 0x06
    3970:	ef 82       	std	Y+7, r14	; 0x07
    3972:	f8 86       	std	Y+8, r15	; 0x08
    3974:	78 01       	movw	r14, r16
    3976:	06 c0       	rjmp	.+12     	; 0x3984 <create_chain+0x60e>
    3978:	ed 89       	ldd	r30, Y+21	; 0x15
    397a:	fe 89       	ldd	r31, Y+22	; 0x16
    397c:	86 89       	ldd	r24, Z+22	; 0x16
    397e:	97 89       	ldd	r25, Z+23	; 0x17
    3980:	a0 8d       	ldd	r26, Z+24	; 0x18
    3982:	b1 8d       	ldd	r27, Z+25	; 0x19
    3984:	88 0e       	add	r8, r24
    3986:	99 1e       	adc	r9, r25
    3988:	aa 1e       	adc	r10, r26
    398a:	bb 1e       	adc	r11, r27
    398c:	01 e0       	ldi	r16, 0x01	; 1
    398e:	10 e0       	ldi	r17, 0x00	; 0
    3990:	a5 01       	movw	r20, r10
    3992:	94 01       	movw	r18, r8
    3994:	b1 01       	movw	r22, r2
    3996:	ad 89       	ldd	r26, Y+21	; 0x15
    3998:	be 89       	ldd	r27, Y+22	; 0x16
    399a:	11 96       	adiw	r26, 0x01	; 1
    399c:	8c 91       	ld	r24, X
    399e:	0e 94 74 34 	call	0x68e8	; 0x68e8 <disk_write>
    39a2:	b1 e0       	ldi	r27, 0x01	; 1
    39a4:	eb 1a       	sub	r14, r27
    39a6:	f1 08       	sbc	r15, r1
    39a8:	e1 e0       	ldi	r30, 0x01	; 1
    39aa:	ee 16       	cp	r14, r30
    39ac:	f1 04       	cpc	r15, r1
    39ae:	21 f7       	brne	.-56     	; 0x3978 <create_chain+0x602>
    39b0:	cd 80       	ldd	r12, Y+5	; 0x05
    39b2:	de 80       	ldd	r13, Y+6	; 0x06
    39b4:	ef 80       	ldd	r14, Y+7	; 0x07
    39b6:	f8 84       	ldd	r15, Y+8	; 0x08
    39b8:	b8 ce       	rjmp	.-656    	; 0x372a <create_chain+0x3b4>
    39ba:	01 e0       	ldi	r16, 0x01	; 1
    39bc:	10 e0       	ldi	r17, 0x00	; 0
    39be:	a5 01       	movw	r20, r10
    39c0:	94 01       	movw	r18, r8
    39c2:	b1 01       	movw	r22, r2
    39c4:	81 81       	ldd	r24, Z+1	; 0x01
    39c6:	0e 94 74 34 	call	0x68e8	; 0x68e8 <disk_write>
    39ca:	81 11       	cpse	r24, r1
    39cc:	47 cf       	rjmp	.-370    	; 0x385c <create_chain+0x4e6>
    39ce:	ad 89       	ldd	r26, Y+21	; 0x15
    39d0:	be 89       	ldd	r27, Y+22	; 0x16
    39d2:	14 96       	adiw	r26, 0x04	; 4
    39d4:	1c 92       	st	X, r1
    39d6:	14 97       	sbiw	r26, 0x04	; 4
    39d8:	fd 01       	movw	r30, r26
    39da:	86 89       	ldd	r24, Z+22	; 0x16
    39dc:	97 89       	ldd	r25, Z+23	; 0x17
    39de:	a0 8d       	ldd	r26, Z+24	; 0x18
    39e0:	b1 8d       	ldd	r27, Z+25	; 0x19
    39e2:	46 8d       	ldd	r20, Z+30	; 0x1e
    39e4:	57 8d       	ldd	r21, Z+31	; 0x1f
    39e6:	60 a1       	ldd	r22, Z+32	; 0x20
    39e8:	71 a1       	ldd	r23, Z+33	; 0x21
    39ea:	95 01       	movw	r18, r10
    39ec:	84 01       	movw	r16, r8
    39ee:	04 1b       	sub	r16, r20
    39f0:	15 0b       	sbc	r17, r21
    39f2:	26 0b       	sbc	r18, r22
    39f4:	37 0b       	sbc	r19, r23
    39f6:	08 17       	cp	r16, r24
    39f8:	19 07       	cpc	r17, r25
    39fa:	2a 07       	cpc	r18, r26
    39fc:	3b 07       	cpc	r19, r27
    39fe:	08 f0       	brcs	.+2      	; 0x3a02 <create_chain+0x68c>
    3a00:	6f cd       	rjmp	.-1314   	; 0x34e0 <create_chain+0x16a>
    3a02:	23 81       	ldd	r18, Z+3	; 0x03
    3a04:	02 2f       	mov	r16, r18
    3a06:	10 e0       	ldi	r17, 0x00	; 0
    3a08:	02 30       	cpi	r16, 0x02	; 2
    3a0a:	11 05       	cpc	r17, r1
    3a0c:	08 f4       	brcc	.+2      	; 0x3a10 <create_chain+0x69a>
    3a0e:	68 cd       	rjmp	.-1328   	; 0x34e0 <create_chain+0x16a>
    3a10:	cd 82       	std	Y+5, r12	; 0x05
    3a12:	de 82       	std	Y+6, r13	; 0x06
    3a14:	ef 82       	std	Y+7, r14	; 0x07
    3a16:	f8 86       	std	Y+8, r15	; 0x08
    3a18:	78 01       	movw	r14, r16
    3a1a:	06 c0       	rjmp	.+12     	; 0x3a28 <create_chain+0x6b2>
    3a1c:	ed 89       	ldd	r30, Y+21	; 0x15
    3a1e:	fe 89       	ldd	r31, Y+22	; 0x16
    3a20:	86 89       	ldd	r24, Z+22	; 0x16
    3a22:	97 89       	ldd	r25, Z+23	; 0x17
    3a24:	a0 8d       	ldd	r26, Z+24	; 0x18
    3a26:	b1 8d       	ldd	r27, Z+25	; 0x19
    3a28:	88 0e       	add	r8, r24
    3a2a:	99 1e       	adc	r9, r25
    3a2c:	aa 1e       	adc	r10, r26
    3a2e:	bb 1e       	adc	r11, r27
    3a30:	01 e0       	ldi	r16, 0x01	; 1
    3a32:	10 e0       	ldi	r17, 0x00	; 0
    3a34:	a5 01       	movw	r20, r10
    3a36:	94 01       	movw	r18, r8
    3a38:	b1 01       	movw	r22, r2
    3a3a:	ad 89       	ldd	r26, Y+21	; 0x15
    3a3c:	be 89       	ldd	r27, Y+22	; 0x16
    3a3e:	11 96       	adiw	r26, 0x01	; 1
    3a40:	8c 91       	ld	r24, X
    3a42:	0e 94 74 34 	call	0x68e8	; 0x68e8 <disk_write>
    3a46:	b1 e0       	ldi	r27, 0x01	; 1
    3a48:	eb 1a       	sub	r14, r27
    3a4a:	f1 08       	sbc	r15, r1
    3a4c:	e1 e0       	ldi	r30, 0x01	; 1
    3a4e:	ee 16       	cp	r14, r30
    3a50:	f1 04       	cpc	r15, r1
    3a52:	21 f7       	brne	.-56     	; 0x3a1c <create_chain+0x6a6>
    3a54:	cd 80       	ldd	r12, Y+5	; 0x05
    3a56:	de 80       	ldd	r13, Y+6	; 0x06
    3a58:	ef 80       	ldd	r14, Y+7	; 0x07
    3a5a:	f8 84       	ldd	r15, Y+8	; 0x08
    3a5c:	41 cd       	rjmp	.-1406   	; 0x34e0 <create_chain+0x16a>
    3a5e:	30 e0       	ldi	r19, 0x00	; 0
    3a60:	20 e0       	ldi	r18, 0x00	; 0
    3a62:	80 e0       	ldi	r24, 0x00	; 0
    3a64:	90 e0       	ldi	r25, 0x00	; 0
    3a66:	7d cd       	rjmp	.-1286   	; 0x3562 <create_chain+0x1ec>
    3a68:	01 e0       	ldi	r16, 0x01	; 1
    3a6a:	10 e0       	ldi	r17, 0x00	; 0
    3a6c:	a5 01       	movw	r20, r10
    3a6e:	94 01       	movw	r18, r8
    3a70:	b1 01       	movw	r22, r2
    3a72:	11 96       	adiw	r26, 0x01	; 1
    3a74:	8c 91       	ld	r24, X
    3a76:	0e 94 74 34 	call	0x68e8	; 0x68e8 <disk_write>
    3a7a:	81 11       	cpse	r24, r1
    3a7c:	ef ce       	rjmp	.-546    	; 0x385c <create_chain+0x4e6>
    3a7e:	ed 89       	ldd	r30, Y+21	; 0x15
    3a80:	fe 89       	ldd	r31, Y+22	; 0x16
    3a82:	14 82       	std	Z+4, r1	; 0x04
    3a84:	46 89       	ldd	r20, Z+22	; 0x16
    3a86:	57 89       	ldd	r21, Z+23	; 0x17
    3a88:	60 8d       	ldd	r22, Z+24	; 0x18
    3a8a:	71 8d       	ldd	r23, Z+25	; 0x19
    3a8c:	86 8d       	ldd	r24, Z+30	; 0x1e
    3a8e:	97 8d       	ldd	r25, Z+31	; 0x1f
    3a90:	a0 a1       	ldd	r26, Z+32	; 0x20
    3a92:	b1 a1       	ldd	r27, Z+33	; 0x21
    3a94:	95 01       	movw	r18, r10
    3a96:	84 01       	movw	r16, r8
    3a98:	08 1b       	sub	r16, r24
    3a9a:	19 0b       	sbc	r17, r25
    3a9c:	2a 0b       	sbc	r18, r26
    3a9e:	3b 0b       	sbc	r19, r27
    3aa0:	04 17       	cp	r16, r20
    3aa2:	15 07       	cpc	r17, r21
    3aa4:	26 07       	cpc	r18, r22
    3aa6:	37 07       	cpc	r19, r23
    3aa8:	08 f0       	brcs	.+2      	; 0x3aac <create_chain+0x736>
    3aaa:	f1 cd       	rjmp	.-1054   	; 0x368e <create_chain+0x318>
    3aac:	83 81       	ldd	r24, Z+3	; 0x03
    3aae:	08 2f       	mov	r16, r24
    3ab0:	10 e0       	ldi	r17, 0x00	; 0
    3ab2:	02 30       	cpi	r16, 0x02	; 2
    3ab4:	11 05       	cpc	r17, r1
    3ab6:	08 f4       	brcc	.+2      	; 0x3aba <create_chain+0x744>
    3ab8:	ea cd       	rjmp	.-1068   	; 0x368e <create_chain+0x318>
    3aba:	c9 8a       	std	Y+17, r12	; 0x11
    3abc:	da 8a       	std	Y+18, r13	; 0x12
    3abe:	eb 8a       	std	Y+19, r14	; 0x13
    3ac0:	fc 8a       	std	Y+20, r15	; 0x14
    3ac2:	78 01       	movw	r14, r16
    3ac4:	ad 89       	ldd	r26, Y+21	; 0x15
    3ac6:	be 89       	ldd	r27, Y+22	; 0x16
    3ac8:	08 c0       	rjmp	.+16     	; 0x3ada <create_chain+0x764>
    3aca:	ad 89       	ldd	r26, Y+21	; 0x15
    3acc:	be 89       	ldd	r27, Y+22	; 0x16
    3ace:	56 96       	adiw	r26, 0x16	; 22
    3ad0:	4d 91       	ld	r20, X+
    3ad2:	5d 91       	ld	r21, X+
    3ad4:	6d 91       	ld	r22, X+
    3ad6:	7c 91       	ld	r23, X
    3ad8:	59 97       	sbiw	r26, 0x19	; 25
    3ada:	84 0e       	add	r8, r20
    3adc:	95 1e       	adc	r9, r21
    3ade:	a6 1e       	adc	r10, r22
    3ae0:	b7 1e       	adc	r11, r23
    3ae2:	01 e0       	ldi	r16, 0x01	; 1
    3ae4:	10 e0       	ldi	r17, 0x00	; 0
    3ae6:	a5 01       	movw	r20, r10
    3ae8:	94 01       	movw	r18, r8
    3aea:	b1 01       	movw	r22, r2
    3aec:	11 96       	adiw	r26, 0x01	; 1
    3aee:	8c 91       	ld	r24, X
    3af0:	0e 94 74 34 	call	0x68e8	; 0x68e8 <disk_write>
    3af4:	b1 e0       	ldi	r27, 0x01	; 1
    3af6:	eb 1a       	sub	r14, r27
    3af8:	f1 08       	sbc	r15, r1
    3afa:	e1 e0       	ldi	r30, 0x01	; 1
    3afc:	ee 16       	cp	r14, r30
    3afe:	f1 04       	cpc	r15, r1
    3b00:	21 f7       	brne	.-56     	; 0x3aca <create_chain+0x754>
    3b02:	c9 88       	ldd	r12, Y+17	; 0x11
    3b04:	da 88       	ldd	r13, Y+18	; 0x12
    3b06:	eb 88       	ldd	r14, Y+19	; 0x13
    3b08:	fc 88       	ldd	r15, Y+20	; 0x14
    3b0a:	c1 cd       	rjmp	.-1150   	; 0x368e <create_chain+0x318>
    3b0c:	b9 01       	movw	r22, r18
    3b0e:	a8 01       	movw	r20, r16
    3b10:	c7 01       	movw	r24, r14
    3b12:	0e 94 23 16 	call	0x2c46	; 0x2c46 <get_fat.part.4>
    3b16:	ab 01       	movw	r20, r22
    3b18:	bc 01       	movw	r22, r24
    3b1a:	42 30       	cpi	r20, 0x02	; 2
    3b1c:	51 05       	cpc	r21, r1
    3b1e:	61 05       	cpc	r22, r1
    3b20:	71 05       	cpc	r23, r1
    3b22:	08 f4       	brcc	.+2      	; 0x3b26 <create_chain+0x7b0>
    3b24:	1a cd       	rjmp	.-1484   	; 0x355a <create_chain+0x1e4>
    3b26:	4f 3f       	cpi	r20, 0xFF	; 255
    3b28:	1f ef       	ldi	r17, 0xFF	; 255
    3b2a:	51 07       	cpc	r21, r17
    3b2c:	61 07       	cpc	r22, r17
    3b2e:	71 07       	cpc	r23, r17
    3b30:	b9 f0       	breq	.+46     	; 0x3b60 <create_chain+0x7ea>
    3b32:	f7 01       	movw	r30, r14
    3b34:	82 89       	ldd	r24, Z+18	; 0x12
    3b36:	93 89       	ldd	r25, Z+19	; 0x13
    3b38:	a4 89       	ldd	r26, Z+20	; 0x14
    3b3a:	b5 89       	ldd	r27, Z+21	; 0x15
    3b3c:	48 17       	cp	r20, r24
    3b3e:	59 07       	cpc	r21, r25
    3b40:	6a 07       	cpc	r22, r26
    3b42:	7b 07       	cpc	r23, r27
    3b44:	08 f4       	brcc	.+2      	; 0x3b48 <create_chain+0x7d2>
    3b46:	8d ce       	rjmp	.-742    	; 0x3862 <create_chain+0x4ec>
    3b48:	09 85       	ldd	r16, Y+9	; 0x09
    3b4a:	1a 85       	ldd	r17, Y+10	; 0x0a
    3b4c:	2b 85       	ldd	r18, Y+11	; 0x0b
    3b4e:	3c 85       	ldd	r19, Y+12	; 0x0c
    3b50:	09 83       	std	Y+1, r16	; 0x01
    3b52:	1a 83       	std	Y+2, r17	; 0x02
    3b54:	2b 83       	std	Y+3, r18	; 0x03
    3b56:	3c 83       	std	Y+4, r19	; 0x04
    3b58:	51 cc       	rjmp	.-1886   	; 0x33fc <create_chain+0x86>
    3b5a:	81 30       	cpi	r24, 0x01	; 1
    3b5c:	09 f0       	breq	.+2      	; 0x3b60 <create_chain+0x7ea>
    3b5e:	fd cc       	rjmp	.-1542   	; 0x355a <create_chain+0x1e4>
    3b60:	3f ef       	ldi	r19, 0xFF	; 255
    3b62:	2f ef       	ldi	r18, 0xFF	; 255
    3b64:	8f ef       	ldi	r24, 0xFF	; 255
    3b66:	9f ef       	ldi	r25, 0xFF	; 255
    3b68:	fc cc       	rjmp	.-1544   	; 0x3562 <create_chain+0x1ec>
    3b6a:	5f 70       	andi	r21, 0x0F	; 15
    3b6c:	60 e0       	ldi	r22, 0x00	; 0
    3b6e:	70 e0       	ldi	r23, 0x00	; 0
    3b70:	06 ce       	rjmp	.-1012   	; 0x377e <create_chain+0x408>

00003b72 <find_volume>:
    3b72:	2f 92       	push	r2
    3b74:	3f 92       	push	r3
    3b76:	4f 92       	push	r4
    3b78:	5f 92       	push	r5
    3b7a:	6f 92       	push	r6
    3b7c:	7f 92       	push	r7
    3b7e:	8f 92       	push	r8
    3b80:	9f 92       	push	r9
    3b82:	af 92       	push	r10
    3b84:	bf 92       	push	r11
    3b86:	cf 92       	push	r12
    3b88:	df 92       	push	r13
    3b8a:	ef 92       	push	r14
    3b8c:	ff 92       	push	r15
    3b8e:	0f 93       	push	r16
    3b90:	1f 93       	push	r17
    3b92:	cf 93       	push	r28
    3b94:	df 93       	push	r29
    3b96:	cd b7       	in	r28, 0x3d	; 61
    3b98:	de b7       	in	r29, 0x3e	; 62
    3b9a:	a0 97       	sbiw	r28, 0x20	; 32
    3b9c:	0f b6       	in	r0, 0x3f	; 63
    3b9e:	f8 94       	cli
    3ba0:	de bf       	out	0x3e, r29	; 62
    3ba2:	0f be       	out	0x3f, r0	; 63
    3ba4:	cd bf       	out	0x3d, r28	; 61
    3ba6:	6c 01       	movw	r12, r24
    3ba8:	dc 01       	movw	r26, r24
    3baa:	1d 92       	st	X+, r1
    3bac:	1c 92       	st	X, r1
    3bae:	db 01       	movw	r26, r22
    3bb0:	ed 91       	ld	r30, X+
    3bb2:	fc 91       	ld	r31, X
    3bb4:	30 97       	sbiw	r30, 0x00	; 0
    3bb6:	09 f4       	brne	.+2      	; 0x3bba <find_volume+0x48>
    3bb8:	4a c0       	rjmp	.+148    	; 0x3c4e <find_volume+0xdc>
    3bba:	80 81       	ld	r24, Z
    3bbc:	81 32       	cpi	r24, 0x21	; 33
    3bbe:	68 f0       	brcs	.+26     	; 0x3bda <find_volume+0x68>
    3bc0:	8a 33       	cpi	r24, 0x3A	; 58
    3bc2:	09 f4       	brne	.+2      	; 0x3bc6 <find_volume+0x54>
    3bc4:	44 c0       	rjmp	.+136    	; 0x3c4e <find_volume+0xdc>
    3bc6:	df 01       	movw	r26, r30
    3bc8:	11 96       	adiw	r26, 0x01	; 1
    3bca:	fd 01       	movw	r30, r26
    3bcc:	02 c0       	rjmp	.+4      	; 0x3bd2 <find_volume+0x60>
    3bce:	9a 33       	cpi	r25, 0x3A	; 58
    3bd0:	d9 f1       	breq	.+118    	; 0x3c48 <find_volume+0xd6>
    3bd2:	9f 01       	movw	r18, r30
    3bd4:	91 91       	ld	r25, Z+
    3bd6:	91 32       	cpi	r25, 0x21	; 33
    3bd8:	d0 f7       	brcc	.-12     	; 0x3bce <find_volume+0x5c>
    3bda:	e0 90 c6 01 	lds	r14, 0x01C6	; 0x8001c6 <FatFs>
    3bde:	f0 90 c7 01 	lds	r15, 0x01C7	; 0x8001c7 <FatFs+0x1>
    3be2:	e1 14       	cp	r14, r1
    3be4:	f1 04       	cpc	r15, r1
    3be6:	a9 f1       	breq	.+106    	; 0x3c52 <find_volume+0xe0>
    3be8:	b4 2e       	mov	r11, r20
    3bea:	f6 01       	movw	r30, r12
    3bec:	f1 82       	std	Z+1, r15	; 0x01
    3bee:	e0 82       	st	Z, r14
    3bf0:	f7 01       	movw	r30, r14
    3bf2:	80 81       	ld	r24, Z
    3bf4:	88 23       	and	r24, r24
    3bf6:	29 f0       	breq	.+10     	; 0x3c02 <find_volume+0x90>
    3bf8:	81 81       	ldd	r24, Z+1	; 0x01
    3bfa:	0e 94 06 33 	call	0x660c	; 0x660c <disk_status>
    3bfe:	80 ff       	sbrs	r24, 0
    3c00:	2a c0       	rjmp	.+84     	; 0x3c56 <find_volume+0xe4>
    3c02:	d7 01       	movw	r26, r14
    3c04:	1c 92       	st	X, r1
    3c06:	11 96       	adiw	r26, 0x01	; 1
    3c08:	1c 92       	st	X, r1
    3c0a:	80 e0       	ldi	r24, 0x00	; 0
    3c0c:	0e 94 0d 33 	call	0x661a	; 0x661a <disk_initialize>
    3c10:	80 ff       	sbrs	r24, 0
    3c12:	29 c0       	rjmp	.+82     	; 0x3c66 <find_volume+0xf4>
    3c14:	83 e0       	ldi	r24, 0x03	; 3
    3c16:	a0 96       	adiw	r28, 0x20	; 32
    3c18:	0f b6       	in	r0, 0x3f	; 63
    3c1a:	f8 94       	cli
    3c1c:	de bf       	out	0x3e, r29	; 62
    3c1e:	0f be       	out	0x3f, r0	; 63
    3c20:	cd bf       	out	0x3d, r28	; 61
    3c22:	df 91       	pop	r29
    3c24:	cf 91       	pop	r28
    3c26:	1f 91       	pop	r17
    3c28:	0f 91       	pop	r16
    3c2a:	ff 90       	pop	r15
    3c2c:	ef 90       	pop	r14
    3c2e:	df 90       	pop	r13
    3c30:	cf 90       	pop	r12
    3c32:	bf 90       	pop	r11
    3c34:	af 90       	pop	r10
    3c36:	9f 90       	pop	r9
    3c38:	8f 90       	pop	r8
    3c3a:	7f 90       	pop	r7
    3c3c:	6f 90       	pop	r6
    3c3e:	5f 90       	pop	r5
    3c40:	4f 90       	pop	r4
    3c42:	3f 90       	pop	r3
    3c44:	2f 90       	pop	r2
    3c46:	08 95       	ret
    3c48:	2a 17       	cp	r18, r26
    3c4a:	3b 07       	cpc	r19, r27
    3c4c:	81 f1       	breq	.+96     	; 0x3cae <find_volume+0x13c>
    3c4e:	8b e0       	ldi	r24, 0x0B	; 11
    3c50:	e2 cf       	rjmp	.-60     	; 0x3c16 <find_volume+0xa4>
    3c52:	8c e0       	ldi	r24, 0x0C	; 12
    3c54:	e0 cf       	rjmp	.-64     	; 0x3c16 <find_volume+0xa4>
    3c56:	bb 20       	and	r11, r11
    3c58:	21 f0       	breq	.+8      	; 0x3c62 <find_volume+0xf0>
    3c5a:	82 ff       	sbrs	r24, 2
    3c5c:	02 c0       	rjmp	.+4      	; 0x3c62 <find_volume+0xf0>
    3c5e:	8a e0       	ldi	r24, 0x0A	; 10
    3c60:	da cf       	rjmp	.-76     	; 0x3c16 <find_volume+0xa4>
    3c62:	80 e0       	ldi	r24, 0x00	; 0
    3c64:	d8 cf       	rjmp	.-80     	; 0x3c16 <find_volume+0xa4>
    3c66:	bb 20       	and	r11, r11
    3c68:	11 f0       	breq	.+4      	; 0x3c6e <find_volume+0xfc>
    3c6a:	82 fd       	sbrc	r24, 2
    3c6c:	f8 cf       	rjmp	.-16     	; 0x3c5e <find_volume+0xec>
    3c6e:	f7 01       	movw	r30, r14
    3c70:	14 82       	std	Z+4, r1	; 0x04
    3c72:	88 24       	eor	r8, r8
    3c74:	8a 94       	dec	r8
    3c76:	98 2c       	mov	r9, r8
    3c78:	54 01       	movw	r10, r8
    3c7a:	82 a6       	std	Z+42, r8	; 0x2a
    3c7c:	93 a6       	std	Z+43, r9	; 0x2b
    3c7e:	a4 a6       	std	Z+44, r10	; 0x2c
    3c80:	b5 a6       	std	Z+45, r11	; 0x2d
    3c82:	67 01       	movw	r12, r14
    3c84:	be e2       	ldi	r27, 0x2E	; 46
    3c86:	cb 0e       	add	r12, r27
    3c88:	d1 1c       	adc	r13, r1
    3c8a:	01 e0       	ldi	r16, 0x01	; 1
    3c8c:	10 e0       	ldi	r17, 0x00	; 0
    3c8e:	20 e0       	ldi	r18, 0x00	; 0
    3c90:	30 e0       	ldi	r19, 0x00	; 0
    3c92:	a9 01       	movw	r20, r18
    3c94:	b6 01       	movw	r22, r12
    3c96:	81 81       	ldd	r24, Z+1	; 0x01
    3c98:	0e 94 ef 33 	call	0x67de	; 0x67de <disk_read>
    3c9c:	88 23       	and	r24, r24
    3c9e:	79 f0       	breq	.+30     	; 0x3cbe <find_volume+0x14c>
    3ca0:	f7 01       	movw	r30, r14
    3ca2:	82 a6       	std	Z+42, r8	; 0x2a
    3ca4:	93 a6       	std	Z+43, r9	; 0x2b
    3ca6:	a4 a6       	std	Z+44, r10	; 0x2c
    3ca8:	b5 a6       	std	Z+45, r11	; 0x2d
    3caa:	81 e0       	ldi	r24, 0x01	; 1
    3cac:	b4 cf       	rjmp	.-152    	; 0x3c16 <find_volume+0xa4>
    3cae:	80 33       	cpi	r24, 0x30	; 48
    3cb0:	71 f6       	brne	.-100    	; 0x3c4e <find_volume+0xdc>
    3cb2:	fd 01       	movw	r30, r26
    3cb4:	31 96       	adiw	r30, 0x01	; 1
    3cb6:	db 01       	movw	r26, r22
    3cb8:	ed 93       	st	X+, r30
    3cba:	fc 93       	st	X, r31
    3cbc:	8e cf       	rjmp	.-228    	; 0x3bda <find_volume+0x68>
    3cbe:	d7 01       	movw	r26, r14
    3cc0:	9a 96       	adiw	r26, 0x2a	; 42
    3cc2:	1d 92       	st	X+, r1
    3cc4:	1d 92       	st	X+, r1
    3cc6:	1d 92       	st	X+, r1
    3cc8:	1c 92       	st	X, r1
    3cca:	9d 97       	sbiw	r26, 0x2d	; 45
    3ccc:	17 01       	movw	r2, r14
    3cce:	b4 ed       	ldi	r27, 0xD4	; 212
    3cd0:	2b 1a       	sub	r2, r27
    3cd2:	bd ef       	ldi	r27, 0xFD	; 253
    3cd4:	3b 0a       	sbc	r3, r27
    3cd6:	f1 01       	movw	r30, r2
    3cd8:	80 81       	ld	r24, Z
    3cda:	91 81       	ldd	r25, Z+1	; 0x01
    3cdc:	85 35       	cpi	r24, 0x55	; 85
    3cde:	9a 4a       	sbci	r25, 0xAA	; 170
    3ce0:	11 f0       	breq	.+4      	; 0x3ce6 <find_volume+0x174>
    3ce2:	8d e0       	ldi	r24, 0x0D	; 13
    3ce4:	98 cf       	rjmp	.-208    	; 0x3c16 <find_volume+0xa4>
    3ce6:	97 01       	movw	r18, r14
    3ce8:	2c 59       	subi	r18, 0x9C	; 156
    3cea:	3f 4f       	sbci	r19, 0xFF	; 255
    3cec:	3a 8b       	std	Y+18, r19	; 0x12
    3cee:	29 8b       	std	Y+17, r18	; 0x11
    3cf0:	f9 01       	movw	r30, r18
    3cf2:	80 81       	ld	r24, Z
    3cf4:	91 81       	ldd	r25, Z+1	; 0x01
    3cf6:	a2 81       	ldd	r26, Z+2	; 0x02
    3cf8:	b3 81       	ldd	r27, Z+3	; 0x03
    3cfa:	bb 27       	eor	r27, r27
    3cfc:	86 34       	cpi	r24, 0x46	; 70
    3cfe:	91 44       	sbci	r25, 0x41	; 65
    3d00:	a4 45       	sbci	r26, 0x54	; 84
    3d02:	b1 05       	cpc	r27, r1
    3d04:	09 f4       	brne	.+2      	; 0x3d08 <find_volume+0x196>
    3d06:	c4 c0       	rjmp	.+392    	; 0x3e90 <find_volume+0x31e>
    3d08:	24 5e       	subi	r18, 0xE4	; 228
    3d0a:	3f 4f       	sbci	r19, 0xFF	; 255
    3d0c:	3e 8b       	std	Y+22, r19	; 0x16
    3d0e:	2d 8b       	std	Y+21, r18	; 0x15
    3d10:	f9 01       	movw	r30, r18
    3d12:	80 81       	ld	r24, Z
    3d14:	91 81       	ldd	r25, Z+1	; 0x01
    3d16:	a2 81       	ldd	r26, Z+2	; 0x02
    3d18:	b3 81       	ldd	r27, Z+3	; 0x03
    3d1a:	bb 27       	eor	r27, r27
    3d1c:	86 34       	cpi	r24, 0x46	; 70
    3d1e:	91 44       	sbci	r25, 0x41	; 65
    3d20:	a4 45       	sbci	r26, 0x54	; 84
    3d22:	b1 05       	cpc	r27, r1
    3d24:	09 f4       	brne	.+2      	; 0x3d28 <find_volume+0x1b6>
    3d26:	b4 c0       	rjmp	.+360    	; 0x3e90 <find_volume+0x31e>
    3d28:	f7 01       	movw	r30, r14
    3d2a:	e0 51       	subi	r30, 0x10	; 16
    3d2c:	fe 4f       	sbci	r31, 0xFE	; 254
    3d2e:	80 81       	ld	r24, Z
    3d30:	88 23       	and	r24, r24
    3d32:	09 f4       	brne	.+2      	; 0x3d36 <find_volume+0x1c4>
    3d34:	2f c2       	rjmp	.+1118   	; 0x4194 <find_volume+0x622>
    3d36:	34 96       	adiw	r30, 0x04	; 4
    3d38:	80 81       	ld	r24, Z
    3d3a:	91 81       	ldd	r25, Z+1	; 0x01
    3d3c:	a2 81       	ldd	r26, Z+2	; 0x02
    3d3e:	b3 81       	ldd	r27, Z+3	; 0x03
    3d40:	89 83       	std	Y+1, r24	; 0x01
    3d42:	9a 83       	std	Y+2, r25	; 0x02
    3d44:	ab 83       	std	Y+3, r26	; 0x03
    3d46:	bc 83       	std	Y+4, r27	; 0x04
    3d48:	f7 01       	movw	r30, r14
    3d4a:	fe 5f       	subi	r31, 0xFE	; 254
    3d4c:	80 81       	ld	r24, Z
    3d4e:	88 23       	and	r24, r24
    3d50:	09 f4       	brne	.+2      	; 0x3d54 <find_volume+0x1e2>
    3d52:	77 c2       	rjmp	.+1262   	; 0x4242 <find_volume+0x6d0>
    3d54:	34 96       	adiw	r30, 0x04	; 4
    3d56:	80 81       	ld	r24, Z
    3d58:	91 81       	ldd	r25, Z+1	; 0x01
    3d5a:	a2 81       	ldd	r26, Z+2	; 0x02
    3d5c:	b3 81       	ldd	r27, Z+3	; 0x03
    3d5e:	8d 83       	std	Y+5, r24	; 0x05
    3d60:	9e 83       	std	Y+6, r25	; 0x06
    3d62:	af 83       	std	Y+7, r26	; 0x07
    3d64:	b8 87       	std	Y+8, r27	; 0x08
    3d66:	f7 01       	movw	r30, r14
    3d68:	e0 5f       	subi	r30, 0xF0	; 240
    3d6a:	fd 4f       	sbci	r31, 0xFD	; 253
    3d6c:	80 81       	ld	r24, Z
    3d6e:	88 23       	and	r24, r24
    3d70:	09 f4       	brne	.+2      	; 0x3d74 <find_volume+0x202>
    3d72:	63 c2       	rjmp	.+1222   	; 0x423a <find_volume+0x6c8>
    3d74:	34 96       	adiw	r30, 0x04	; 4
    3d76:	80 81       	ld	r24, Z
    3d78:	91 81       	ldd	r25, Z+1	; 0x01
    3d7a:	a2 81       	ldd	r26, Z+2	; 0x02
    3d7c:	b3 81       	ldd	r27, Z+3	; 0x03
    3d7e:	89 87       	std	Y+9, r24	; 0x09
    3d80:	9a 87       	std	Y+10, r25	; 0x0a
    3d82:	ab 87       	std	Y+11, r26	; 0x0b
    3d84:	bc 87       	std	Y+12, r27	; 0x0c
    3d86:	f7 01       	movw	r30, r14
    3d88:	e0 5e       	subi	r30, 0xE0	; 224
    3d8a:	fd 4f       	sbci	r31, 0xFD	; 253
    3d8c:	80 81       	ld	r24, Z
    3d8e:	88 23       	and	r24, r24
    3d90:	09 f4       	brne	.+2      	; 0x3d94 <find_volume+0x222>
    3d92:	fc c1       	rjmp	.+1016   	; 0x418c <find_volume+0x61a>
    3d94:	34 96       	adiw	r30, 0x04	; 4
    3d96:	80 81       	ld	r24, Z
    3d98:	91 81       	ldd	r25, Z+1	; 0x01
    3d9a:	a2 81       	ldd	r26, Z+2	; 0x02
    3d9c:	b3 81       	ldd	r27, Z+3	; 0x03
    3d9e:	8d 87       	std	Y+13, r24	; 0x0d
    3da0:	9e 87       	std	Y+14, r25	; 0x0e
    3da2:	af 87       	std	Y+15, r26	; 0x0f
    3da4:	b8 8b       	std	Y+16, r27	; 0x10
    3da6:	89 80       	ldd	r8, Y+1	; 0x01
    3da8:	9a 80       	ldd	r9, Y+2	; 0x02
    3daa:	ab 80       	ldd	r10, Y+3	; 0x03
    3dac:	bc 80       	ldd	r11, Y+4	; 0x04
    3dae:	81 14       	cp	r8, r1
    3db0:	91 04       	cpc	r9, r1
    3db2:	a1 04       	cpc	r10, r1
    3db4:	b1 04       	cpc	r11, r1
    3db6:	09 f0       	breq	.+2      	; 0x3dba <find_volume+0x248>
    3db8:	43 c0       	rjmp	.+134    	; 0x3e40 <find_volume+0x2ce>
    3dba:	8d 80       	ldd	r8, Y+5	; 0x05
    3dbc:	9e 80       	ldd	r9, Y+6	; 0x06
    3dbe:	af 80       	ldd	r10, Y+7	; 0x07
    3dc0:	b8 84       	ldd	r11, Y+8	; 0x08
    3dc2:	81 14       	cp	r8, r1
    3dc4:	91 04       	cpc	r9, r1
    3dc6:	a1 04       	cpc	r10, r1
    3dc8:	b1 04       	cpc	r11, r1
    3dca:	09 f0       	breq	.+2      	; 0x3dce <find_volume+0x25c>
    3dcc:	bc c1       	rjmp	.+888    	; 0x4146 <find_volume+0x5d4>
    3dce:	89 84       	ldd	r8, Y+9	; 0x09
    3dd0:	9a 84       	ldd	r9, Y+10	; 0x0a
    3dd2:	ab 84       	ldd	r10, Y+11	; 0x0b
    3dd4:	bc 84       	ldd	r11, Y+12	; 0x0c
    3dd6:	81 14       	cp	r8, r1
    3dd8:	91 04       	cpc	r9, r1
    3dda:	a1 04       	cpc	r10, r1
    3ddc:	b1 04       	cpc	r11, r1
    3dde:	09 f0       	breq	.+2      	; 0x3de2 <find_volume+0x270>
    3de0:	8e c1       	rjmp	.+796    	; 0x40fe <find_volume+0x58c>
    3de2:	8d 84       	ldd	r8, Y+13	; 0x0d
    3de4:	9e 84       	ldd	r9, Y+14	; 0x0e
    3de6:	af 84       	ldd	r10, Y+15	; 0x0f
    3de8:	b8 88       	ldd	r11, Y+16	; 0x10
    3dea:	81 14       	cp	r8, r1
    3dec:	91 04       	cpc	r9, r1
    3dee:	a1 04       	cpc	r10, r1
    3df0:	b1 04       	cpc	r11, r1
    3df2:	09 f4       	brne	.+2      	; 0x3df6 <find_volume+0x284>
    3df4:	76 cf       	rjmp	.-276    	; 0x3ce2 <find_volume+0x170>
    3df6:	f7 01       	movw	r30, r14
    3df8:	14 82       	std	Z+4, r1	; 0x04
    3dfa:	44 24       	eor	r4, r4
    3dfc:	4a 94       	dec	r4
    3dfe:	54 2c       	mov	r5, r4
    3e00:	32 01       	movw	r6, r4
    3e02:	42 a6       	std	Z+42, r4	; 0x2a
    3e04:	53 a6       	std	Z+43, r5	; 0x2b
    3e06:	64 a6       	std	Z+44, r6	; 0x2c
    3e08:	75 a6       	std	Z+45, r7	; 0x2d
    3e0a:	bf ef       	ldi	r27, 0xFF	; 255
    3e0c:	8b 16       	cp	r8, r27
    3e0e:	9b 06       	cpc	r9, r27
    3e10:	ab 06       	cpc	r10, r27
    3e12:	bb 06       	cpc	r11, r27
    3e14:	09 f4       	brne	.+2      	; 0x3e18 <find_volume+0x2a6>
    3e16:	c7 c1       	rjmp	.+910    	; 0x41a6 <find_volume+0x634>
    3e18:	01 e0       	ldi	r16, 0x01	; 1
    3e1a:	10 e0       	ldi	r17, 0x00	; 0
    3e1c:	a5 01       	movw	r20, r10
    3e1e:	94 01       	movw	r18, r8
    3e20:	b6 01       	movw	r22, r12
    3e22:	81 81       	ldd	r24, Z+1	; 0x01
    3e24:	0e 94 ef 33 	call	0x67de	; 0x67de <disk_read>
    3e28:	88 23       	and	r24, r24
    3e2a:	09 f4       	brne	.+2      	; 0x3e2e <find_volume+0x2bc>
    3e2c:	b7 c1       	rjmp	.+878    	; 0x419c <find_volume+0x62a>
    3e2e:	d7 01       	movw	r26, r14
    3e30:	9a 96       	adiw	r26, 0x2a	; 42
    3e32:	4d 92       	st	X+, r4
    3e34:	5d 92       	st	X+, r5
    3e36:	6d 92       	st	X+, r6
    3e38:	7c 92       	st	X, r7
    3e3a:	9d 97       	sbiw	r26, 0x2d	; 45
    3e3c:	81 e0       	ldi	r24, 0x01	; 1
    3e3e:	eb ce       	rjmp	.-554    	; 0x3c16 <find_volume+0xa4>
    3e40:	d7 01       	movw	r26, r14
    3e42:	14 96       	adiw	r26, 0x04	; 4
    3e44:	1c 92       	st	X, r1
    3e46:	44 24       	eor	r4, r4
    3e48:	4a 94       	dec	r4
    3e4a:	54 2c       	mov	r5, r4
    3e4c:	32 01       	movw	r6, r4
    3e4e:	f7 01       	movw	r30, r14
    3e50:	42 a6       	std	Z+42, r4	; 0x2a
    3e52:	53 a6       	std	Z+43, r5	; 0x2b
    3e54:	64 a6       	std	Z+44, r6	; 0x2c
    3e56:	75 a6       	std	Z+45, r7	; 0x2d
    3e58:	ff ef       	ldi	r31, 0xFF	; 255
    3e5a:	8f 16       	cp	r8, r31
    3e5c:	9f 06       	cpc	r9, r31
    3e5e:	af 06       	cpc	r10, r31
    3e60:	bf 06       	cpc	r11, r31
    3e62:	09 f4       	brne	.+2      	; 0x3e66 <find_volume+0x2f4>
    3e64:	f7 c1       	rjmp	.+1006   	; 0x4254 <find_volume+0x6e2>
    3e66:	01 e0       	ldi	r16, 0x01	; 1
    3e68:	10 e0       	ldi	r17, 0x00	; 0
    3e6a:	a5 01       	movw	r20, r10
    3e6c:	94 01       	movw	r18, r8
    3e6e:	b6 01       	movw	r22, r12
    3e70:	d7 01       	movw	r26, r14
    3e72:	11 96       	adiw	r26, 0x01	; 1
    3e74:	8c 91       	ld	r24, X
    3e76:	0e 94 ef 33 	call	0x67de	; 0x67de <disk_read>
    3e7a:	88 23       	and	r24, r24
    3e7c:	09 f4       	brne	.+2      	; 0x3e80 <find_volume+0x30e>
    3e7e:	e5 c1       	rjmp	.+970    	; 0x424a <find_volume+0x6d8>
    3e80:	d7 01       	movw	r26, r14
    3e82:	9a 96       	adiw	r26, 0x2a	; 42
    3e84:	4d 92       	st	X+, r4
    3e86:	5d 92       	st	X+, r5
    3e88:	6d 92       	st	X+, r6
    3e8a:	7c 92       	st	X, r7
    3e8c:	9d 97       	sbiw	r26, 0x2d	; 45
    3e8e:	95 cf       	rjmp	.-214    	; 0x3dba <find_volume+0x248>
    3e90:	81 2c       	mov	r8, r1
    3e92:	91 2c       	mov	r9, r1
    3e94:	54 01       	movw	r10, r8
    3e96:	d7 01       	movw	r26, r14
    3e98:	d9 96       	adiw	r26, 0x39	; 57
    3e9a:	8d 91       	ld	r24, X+
    3e9c:	9c 91       	ld	r25, X
    3e9e:	da 97       	sbiw	r26, 0x3a	; 58
    3ea0:	81 15       	cp	r24, r1
    3ea2:	92 40       	sbci	r25, 0x02	; 2
    3ea4:	09 f0       	breq	.+2      	; 0x3ea8 <find_volume+0x336>
    3ea6:	1d cf       	rjmp	.-454    	; 0x3ce2 <find_volume+0x170>
    3ea8:	f7 01       	movw	r30, r14
    3eaa:	ec 5b       	subi	r30, 0xBC	; 188
    3eac:	ff 4f       	sbci	r31, 0xFF	; 255
    3eae:	80 81       	ld	r24, Z
    3eb0:	91 81       	ldd	r25, Z+1	; 0x01
    3eb2:	2c 01       	movw	r4, r24
    3eb4:	61 2c       	mov	r6, r1
    3eb6:	71 2c       	mov	r7, r1
    3eb8:	49 8a       	std	Y+17, r4	; 0x11
    3eba:	5a 8a       	std	Y+18, r5	; 0x12
    3ebc:	6b 8a       	std	Y+19, r6	; 0x13
    3ebe:	7c 8a       	std	Y+20, r7	; 0x14
    3ec0:	41 14       	cp	r4, r1
    3ec2:	51 04       	cpc	r5, r1
    3ec4:	61 04       	cpc	r6, r1
    3ec6:	71 04       	cpc	r7, r1
    3ec8:	49 f4       	brne	.+18     	; 0x3edc <find_volume+0x36a>
    3eca:	3e 96       	adiw	r30, 0x0e	; 14
    3ecc:	40 80       	ld	r4, Z
    3ece:	51 80       	ldd	r5, Z+1	; 0x01
    3ed0:	62 80       	ldd	r6, Z+2	; 0x02
    3ed2:	73 80       	ldd	r7, Z+3	; 0x03
    3ed4:	49 8a       	std	Y+17, r4	; 0x11
    3ed6:	5a 8a       	std	Y+18, r5	; 0x12
    3ed8:	6b 8a       	std	Y+19, r6	; 0x13
    3eda:	7c 8a       	std	Y+20, r7	; 0x14
    3edc:	d7 01       	movw	r26, r14
    3ede:	56 96       	adiw	r26, 0x16	; 22
    3ee0:	4d 92       	st	X+, r4
    3ee2:	5d 92       	st	X+, r5
    3ee4:	6d 92       	st	X+, r6
    3ee6:	7c 92       	st	X, r7
    3ee8:	59 97       	sbiw	r26, 0x19	; 25
    3eea:	de 96       	adiw	r26, 0x3e	; 62
    3eec:	ac 91       	ld	r26, X
    3eee:	f7 01       	movw	r30, r14
    3ef0:	a3 83       	std	Z+3, r26	; 0x03
    3ef2:	8f ef       	ldi	r24, 0xFF	; 255
    3ef4:	8a 0f       	add	r24, r26
    3ef6:	82 30       	cpi	r24, 0x02	; 2
    3ef8:	08 f0       	brcs	.+2      	; 0x3efc <find_volume+0x38a>
    3efa:	f3 ce       	rjmp	.-538    	; 0x3ce2 <find_volume+0x170>
    3efc:	b0 e0       	ldi	r27, 0x00	; 0
    3efe:	a3 01       	movw	r20, r6
    3f00:	92 01       	movw	r18, r4
    3f02:	0e 94 68 3c 	call	0x78d0	; 0x78d0 <__muluhisi3>
    3f06:	69 8f       	std	Y+25, r22	; 0x19
    3f08:	7a 8f       	std	Y+26, r23	; 0x1a
    3f0a:	8b 8f       	std	Y+27, r24	; 0x1b
    3f0c:	9c 8f       	std	Y+28, r25	; 0x1c
    3f0e:	13 ad       	ldd	r17, Z+59	; 0x3b
    3f10:	12 83       	std	Z+2, r17	; 0x02
    3f12:	11 23       	and	r17, r17
    3f14:	09 f4       	brne	.+2      	; 0x3f18 <find_volume+0x3a6>
    3f16:	e5 ce       	rjmp	.-566    	; 0x3ce2 <find_volume+0x170>
    3f18:	81 2f       	mov	r24, r17
    3f1a:	90 e0       	ldi	r25, 0x00	; 0
    3f1c:	ac 01       	movw	r20, r24
    3f1e:	41 50       	subi	r20, 0x01	; 1
    3f20:	51 09       	sbc	r21, r1
    3f22:	84 23       	and	r24, r20
    3f24:	95 23       	and	r25, r21
    3f26:	89 2b       	or	r24, r25
    3f28:	09 f0       	breq	.+2      	; 0x3f2c <find_volume+0x3ba>
    3f2a:	db ce       	rjmp	.-586    	; 0x3ce2 <find_volume+0x170>
    3f2c:	ff 96       	adiw	r30, 0x3f	; 63
    3f2e:	c0 80       	ld	r12, Z
    3f30:	d1 80       	ldd	r13, Z+1	; 0x01
    3f32:	d7 01       	movw	r26, r14
    3f34:	19 96       	adiw	r26, 0x09	; 9
    3f36:	dc 92       	st	X, r13
    3f38:	ce 92       	st	-X, r12
    3f3a:	18 97       	sbiw	r26, 0x08	; 8
    3f3c:	c6 01       	movw	r24, r12
    3f3e:	8f 70       	andi	r24, 0x0F	; 15
    3f40:	99 27       	eor	r25, r25
    3f42:	89 2b       	or	r24, r25
    3f44:	09 f0       	breq	.+2      	; 0x3f48 <find_volume+0x3d6>
    3f46:	cd ce       	rjmp	.-614    	; 0x3ce2 <find_volume+0x170>
    3f48:	32 96       	adiw	r30, 0x02	; 2
    3f4a:	60 81       	ld	r22, Z
    3f4c:	71 81       	ldd	r23, Z+1	; 0x01
    3f4e:	cb 01       	movw	r24, r22
    3f50:	a0 e0       	ldi	r26, 0x00	; 0
    3f52:	b0 e0       	ldi	r27, 0x00	; 0
    3f54:	00 97       	sbiw	r24, 0x00	; 0
    3f56:	a1 05       	cpc	r26, r1
    3f58:	b1 05       	cpc	r27, r1
    3f5a:	29 f4       	brne	.+10     	; 0x3f66 <find_volume+0x3f4>
    3f5c:	3d 96       	adiw	r30, 0x0d	; 13
    3f5e:	80 81       	ld	r24, Z
    3f60:	91 81       	ldd	r25, Z+1	; 0x01
    3f62:	a2 81       	ldd	r26, Z+2	; 0x02
    3f64:	b3 81       	ldd	r27, Z+3	; 0x03
    3f66:	f7 01       	movw	r30, r14
    3f68:	44 ad       	ldd	r20, Z+60	; 0x3c
    3f6a:	55 ad       	ldd	r21, Z+61	; 0x3d
    3f6c:	41 15       	cp	r20, r1
    3f6e:	51 05       	cpc	r21, r1
    3f70:	09 f4       	brne	.+2      	; 0x3f74 <find_volume+0x402>
    3f72:	b7 ce       	rjmp	.-658    	; 0x3ce2 <find_volume+0x170>
    3f74:	2a 01       	movw	r4, r20
    3f76:	61 2c       	mov	r6, r1
    3f78:	71 2c       	mov	r7, r1
    3f7a:	4d 8e       	std	Y+29, r4	; 0x1d
    3f7c:	5e 8e       	std	Y+30, r5	; 0x1e
    3f7e:	6f 8e       	std	Y+31, r6	; 0x1f
    3f80:	78 a2       	std	Y+32, r7	; 0x20
    3f82:	96 01       	movw	r18, r12
    3f84:	32 95       	swap	r19
    3f86:	22 95       	swap	r18
    3f88:	2f 70       	andi	r18, 0x0F	; 15
    3f8a:	23 27       	eor	r18, r19
    3f8c:	3f 70       	andi	r19, 0x0F	; 15
    3f8e:	23 27       	eor	r18, r19
    3f90:	42 0e       	add	r4, r18
    3f92:	53 1e       	adc	r5, r19
    3f94:	61 1c       	adc	r6, r1
    3f96:	71 1c       	adc	r7, r1
    3f98:	29 8d       	ldd	r18, Y+25	; 0x19
    3f9a:	3a 8d       	ldd	r19, Y+26	; 0x1a
    3f9c:	4b 8d       	ldd	r20, Y+27	; 0x1b
    3f9e:	5c 8d       	ldd	r21, Y+28	; 0x1c
    3fa0:	24 0d       	add	r18, r4
    3fa2:	35 1d       	adc	r19, r5
    3fa4:	46 1d       	adc	r20, r6
    3fa6:	57 1d       	adc	r21, r7
    3fa8:	2d 8b       	std	Y+21, r18	; 0x15
    3faa:	3e 8b       	std	Y+22, r19	; 0x16
    3fac:	4f 8b       	std	Y+23, r20	; 0x17
    3fae:	58 8f       	std	Y+24, r21	; 0x18
    3fb0:	82 17       	cp	r24, r18
    3fb2:	93 07       	cpc	r25, r19
    3fb4:	a4 07       	cpc	r26, r20
    3fb6:	b5 07       	cpc	r27, r21
    3fb8:	08 f4       	brcc	.+2      	; 0x3fbc <find_volume+0x44a>
    3fba:	93 ce       	rjmp	.-730    	; 0x3ce2 <find_volume+0x170>
    3fbc:	bc 01       	movw	r22, r24
    3fbe:	cd 01       	movw	r24, r26
    3fc0:	62 1b       	sub	r22, r18
    3fc2:	73 0b       	sbc	r23, r19
    3fc4:	84 0b       	sbc	r24, r20
    3fc6:	95 0b       	sbc	r25, r21
    3fc8:	21 2f       	mov	r18, r17
    3fca:	30 e0       	ldi	r19, 0x00	; 0
    3fcc:	40 e0       	ldi	r20, 0x00	; 0
    3fce:	50 e0       	ldi	r21, 0x00	; 0
    3fd0:	0e 94 37 3c 	call	0x786e	; 0x786e <__udivmodsi4>
    3fd4:	21 15       	cp	r18, r1
    3fd6:	31 05       	cpc	r19, r1
    3fd8:	41 05       	cpc	r20, r1
    3fda:	51 05       	cpc	r21, r1
    3fdc:	09 f4       	brne	.+2      	; 0x3fe0 <find_volume+0x46e>
    3fde:	81 ce       	rjmp	.-766    	; 0x3ce2 <find_volume+0x170>
    3fe0:	26 3f       	cpi	r18, 0xF6	; 246
    3fe2:	6f e0       	ldi	r22, 0x0F	; 15
    3fe4:	36 07       	cpc	r19, r22
    3fe6:	41 05       	cpc	r20, r1
    3fe8:	51 05       	cpc	r21, r1
    3fea:	08 f4       	brcc	.+2      	; 0x3fee <find_volume+0x47c>
    3fec:	28 c2       	rjmp	.+1104   	; 0x443e <find_volume+0x8cc>
    3fee:	26 3f       	cpi	r18, 0xF6	; 246
    3ff0:	7f ef       	ldi	r23, 0xFF	; 255
    3ff2:	37 07       	cpc	r19, r23
    3ff4:	41 05       	cpc	r20, r1
    3ff6:	51 05       	cpc	r21, r1
    3ff8:	08 f4       	brcc	.+2      	; 0x3ffc <find_volume+0x48a>
    3ffa:	ba c1       	rjmp	.+884    	; 0x4370 <find_volume+0x7fe>
    3ffc:	ba 01       	movw	r22, r20
    3ffe:	a9 01       	movw	r20, r18
    4000:	4e 5f       	subi	r20, 0xFE	; 254
    4002:	5f 4f       	sbci	r21, 0xFF	; 255
    4004:	6f 4f       	sbci	r22, 0xFF	; 255
    4006:	7f 4f       	sbci	r23, 0xFF	; 255
    4008:	d7 01       	movw	r26, r14
    400a:	52 96       	adiw	r26, 0x12	; 18
    400c:	4d 93       	st	X+, r20
    400e:	5d 93       	st	X+, r21
    4010:	6d 93       	st	X+, r22
    4012:	7c 93       	st	X, r23
    4014:	55 97       	sbiw	r26, 0x15	; 21
    4016:	f7 01       	movw	r30, r14
    4018:	82 8e       	std	Z+26, r8	; 0x1a
    401a:	93 8e       	std	Z+27, r9	; 0x1b
    401c:	a4 8e       	std	Z+28, r10	; 0x1c
    401e:	b5 8e       	std	Z+29, r11	; 0x1d
    4020:	4d 8c       	ldd	r4, Y+29	; 0x1d
    4022:	5e 8c       	ldd	r5, Y+30	; 0x1e
    4024:	6f 8c       	ldd	r6, Y+31	; 0x1f
    4026:	78 a0       	ldd	r7, Y+32	; 0x20
    4028:	48 0c       	add	r4, r8
    402a:	59 1c       	adc	r5, r9
    402c:	6a 1c       	adc	r6, r10
    402e:	7b 1c       	adc	r7, r11
    4030:	5e 96       	adiw	r26, 0x1e	; 30
    4032:	4d 92       	st	X+, r4
    4034:	5d 92       	st	X+, r5
    4036:	6d 92       	st	X+, r6
    4038:	7c 92       	st	X, r7
    403a:	91 97       	sbiw	r26, 0x21	; 33
    403c:	8d 89       	ldd	r24, Y+21	; 0x15
    403e:	9e 89       	ldd	r25, Y+22	; 0x16
    4040:	af 89       	ldd	r26, Y+23	; 0x17
    4042:	b8 8d       	ldd	r27, Y+24	; 0x18
    4044:	88 0d       	add	r24, r8
    4046:	99 1d       	adc	r25, r9
    4048:	aa 1d       	adc	r26, r10
    404a:	bb 1d       	adc	r27, r11
    404c:	86 a3       	std	Z+38, r24	; 0x26
    404e:	97 a3       	std	Z+39, r25	; 0x27
    4050:	a0 a7       	std	Z+40, r26	; 0x28
    4052:	b1 a7       	std	Z+41, r27	; 0x29
    4054:	cd 28       	or	r12, r13
    4056:	09 f0       	breq	.+2      	; 0x405a <find_volume+0x4e8>
    4058:	44 ce       	rjmp	.-888    	; 0x3ce2 <find_volume+0x170>
    405a:	f7 01       	movw	r30, r14
    405c:	e6 5a       	subi	r30, 0xA6	; 166
    405e:	ff 4f       	sbci	r31, 0xFF	; 255
    4060:	80 81       	ld	r24, Z
    4062:	91 81       	ldd	r25, Z+1	; 0x01
    4064:	a2 81       	ldd	r26, Z+2	; 0x02
    4066:	b3 81       	ldd	r27, Z+3	; 0x03
    4068:	f7 01       	movw	r30, r14
    406a:	82 a3       	std	Z+34, r24	; 0x22
    406c:	93 a3       	std	Z+35, r25	; 0x23
    406e:	a4 a3       	std	Z+36, r26	; 0x24
    4070:	b5 a3       	std	Z+37, r27	; 0x25
    4072:	db 01       	movw	r26, r22
    4074:	ca 01       	movw	r24, r20
    4076:	88 0f       	add	r24, r24
    4078:	99 1f       	adc	r25, r25
    407a:	aa 1f       	adc	r26, r26
    407c:	bb 1f       	adc	r27, r27
    407e:	88 0f       	add	r24, r24
    4080:	99 1f       	adc	r25, r25
    4082:	aa 1f       	adc	r26, r26
    4084:	bb 1f       	adc	r27, r27
    4086:	81 50       	subi	r24, 0x01	; 1
    4088:	9e 4f       	sbci	r25, 0xFE	; 254
    408a:	af 4f       	sbci	r26, 0xFF	; 255
    408c:	bf 4f       	sbci	r27, 0xFF	; 255
    408e:	79 e0       	ldi	r23, 0x09	; 9
    4090:	b6 95       	lsr	r27
    4092:	a7 95       	ror	r26
    4094:	97 95       	ror	r25
    4096:	87 95       	ror	r24
    4098:	7a 95       	dec	r23
    409a:	d1 f7       	brne	.-12     	; 0x4090 <find_volume+0x51e>
    409c:	49 88       	ldd	r4, Y+17	; 0x11
    409e:	5a 88       	ldd	r5, Y+18	; 0x12
    40a0:	6b 88       	ldd	r6, Y+19	; 0x13
    40a2:	7c 88       	ldd	r7, Y+20	; 0x14
    40a4:	48 16       	cp	r4, r24
    40a6:	59 06       	cpc	r5, r25
    40a8:	6a 06       	cpc	r6, r26
    40aa:	7b 06       	cpc	r7, r27
    40ac:	08 f4       	brcc	.+2      	; 0x40b0 <find_volume+0x53e>
    40ae:	19 ce       	rjmp	.-974    	; 0x3ce2 <find_volume+0x170>
    40b0:	8f ef       	ldi	r24, 0xFF	; 255
    40b2:	9f ef       	ldi	r25, 0xFF	; 255
    40b4:	dc 01       	movw	r26, r24
    40b6:	f7 01       	movw	r30, r14
    40b8:	86 87       	std	Z+14, r24	; 0x0e
    40ba:	97 87       	std	Z+15, r25	; 0x0f
    40bc:	a0 8b       	std	Z+16, r26	; 0x10
    40be:	b1 8b       	std	Z+17, r27	; 0x11
    40c0:	82 87       	std	Z+10, r24	; 0x0a
    40c2:	93 87       	std	Z+11, r25	; 0x0b
    40c4:	a4 87       	std	Z+12, r26	; 0x0c
    40c6:	b5 87       	std	Z+13, r27	; 0x0d
    40c8:	80 e8       	ldi	r24, 0x80	; 128
    40ca:	85 83       	std	Z+5, r24	; 0x05
    40cc:	e2 5a       	subi	r30, 0xA2	; 162
    40ce:	ff 4f       	sbci	r31, 0xFF	; 255
    40d0:	80 81       	ld	r24, Z
    40d2:	91 81       	ldd	r25, Z+1	; 0x01
    40d4:	01 97       	sbiw	r24, 0x01	; 1
    40d6:	09 f4       	brne	.+2      	; 0x40da <find_volume+0x568>
    40d8:	06 c1       	rjmp	.+524    	; 0x42e6 <find_volume+0x774>
    40da:	83 e0       	ldi	r24, 0x03	; 3
    40dc:	d7 01       	movw	r26, r14
    40de:	8c 93       	st	X, r24
    40e0:	80 91 c4 01 	lds	r24, 0x01C4	; 0x8001c4 <__data_end>
    40e4:	90 91 c5 01 	lds	r25, 0x01C5	; 0x8001c5 <__data_end+0x1>
    40e8:	01 96       	adiw	r24, 0x01	; 1
    40ea:	90 93 c5 01 	sts	0x01C5, r25	; 0x8001c5 <__data_end+0x1>
    40ee:	80 93 c4 01 	sts	0x01C4, r24	; 0x8001c4 <__data_end>
    40f2:	17 96       	adiw	r26, 0x07	; 7
    40f4:	9c 93       	st	X, r25
    40f6:	8e 93       	st	-X, r24
    40f8:	16 97       	sbiw	r26, 0x06	; 6
    40fa:	80 e0       	ldi	r24, 0x00	; 0
    40fc:	8c cd       	rjmp	.-1256   	; 0x3c16 <find_volume+0xa4>
    40fe:	f7 01       	movw	r30, r14
    4100:	14 82       	std	Z+4, r1	; 0x04
    4102:	44 24       	eor	r4, r4
    4104:	4a 94       	dec	r4
    4106:	54 2c       	mov	r5, r4
    4108:	32 01       	movw	r6, r4
    410a:	42 a6       	std	Z+42, r4	; 0x2a
    410c:	53 a6       	std	Z+43, r5	; 0x2b
    410e:	64 a6       	std	Z+44, r6	; 0x2c
    4110:	75 a6       	std	Z+45, r7	; 0x2d
    4112:	bf ef       	ldi	r27, 0xFF	; 255
    4114:	8b 16       	cp	r8, r27
    4116:	9b 06       	cpc	r9, r27
    4118:	ab 06       	cpc	r10, r27
    411a:	bb 06       	cpc	r11, r27
    411c:	09 f4       	brne	.+2      	; 0x4120 <find_volume+0x5ae>
    411e:	c1 c0       	rjmp	.+386    	; 0x42a2 <find_volume+0x730>
    4120:	01 e0       	ldi	r16, 0x01	; 1
    4122:	10 e0       	ldi	r17, 0x00	; 0
    4124:	a5 01       	movw	r20, r10
    4126:	94 01       	movw	r18, r8
    4128:	b6 01       	movw	r22, r12
    412a:	81 81       	ldd	r24, Z+1	; 0x01
    412c:	0e 94 ef 33 	call	0x67de	; 0x67de <disk_read>
    4130:	88 23       	and	r24, r24
    4132:	09 f4       	brne	.+2      	; 0x4136 <find_volume+0x5c4>
    4134:	b1 c0       	rjmp	.+354    	; 0x4298 <find_volume+0x726>
    4136:	d7 01       	movw	r26, r14
    4138:	9a 96       	adiw	r26, 0x2a	; 42
    413a:	4d 92       	st	X+, r4
    413c:	5d 92       	st	X+, r5
    413e:	6d 92       	st	X+, r6
    4140:	7c 92       	st	X, r7
    4142:	9d 97       	sbiw	r26, 0x2d	; 45
    4144:	4e ce       	rjmp	.-868    	; 0x3de2 <find_volume+0x270>
    4146:	f7 01       	movw	r30, r14
    4148:	14 82       	std	Z+4, r1	; 0x04
    414a:	44 24       	eor	r4, r4
    414c:	4a 94       	dec	r4
    414e:	54 2c       	mov	r5, r4
    4150:	32 01       	movw	r6, r4
    4152:	42 a6       	std	Z+42, r4	; 0x2a
    4154:	53 a6       	std	Z+43, r5	; 0x2b
    4156:	64 a6       	std	Z+44, r6	; 0x2c
    4158:	75 a6       	std	Z+45, r7	; 0x2d
    415a:	bf ef       	ldi	r27, 0xFF	; 255
    415c:	8b 16       	cp	r8, r27
    415e:	9b 06       	cpc	r9, r27
    4160:	ab 06       	cpc	r10, r27
    4162:	bb 06       	cpc	r11, r27
    4164:	09 f4       	brne	.+2      	; 0x4168 <find_volume+0x5f6>
    4166:	47 c0       	rjmp	.+142    	; 0x41f6 <find_volume+0x684>
    4168:	01 e0       	ldi	r16, 0x01	; 1
    416a:	10 e0       	ldi	r17, 0x00	; 0
    416c:	a5 01       	movw	r20, r10
    416e:	94 01       	movw	r18, r8
    4170:	b6 01       	movw	r22, r12
    4172:	81 81       	ldd	r24, Z+1	; 0x01
    4174:	0e 94 ef 33 	call	0x67de	; 0x67de <disk_read>
    4178:	88 23       	and	r24, r24
    417a:	c1 f1       	breq	.+112    	; 0x41ec <find_volume+0x67a>
    417c:	d7 01       	movw	r26, r14
    417e:	9a 96       	adiw	r26, 0x2a	; 42
    4180:	4d 92       	st	X+, r4
    4182:	5d 92       	st	X+, r5
    4184:	6d 92       	st	X+, r6
    4186:	7c 92       	st	X, r7
    4188:	9d 97       	sbiw	r26, 0x2d	; 45
    418a:	21 ce       	rjmp	.-958    	; 0x3dce <find_volume+0x25c>
    418c:	80 e0       	ldi	r24, 0x00	; 0
    418e:	90 e0       	ldi	r25, 0x00	; 0
    4190:	dc 01       	movw	r26, r24
    4192:	05 ce       	rjmp	.-1014   	; 0x3d9e <find_volume+0x22c>
    4194:	80 e0       	ldi	r24, 0x00	; 0
    4196:	90 e0       	ldi	r25, 0x00	; 0
    4198:	dc 01       	movw	r26, r24
    419a:	d2 cd       	rjmp	.-1116   	; 0x3d40 <find_volume+0x1ce>
    419c:	f7 01       	movw	r30, r14
    419e:	82 a6       	std	Z+42, r8	; 0x2a
    41a0:	93 a6       	std	Z+43, r9	; 0x2b
    41a2:	a4 a6       	std	Z+44, r10	; 0x2c
    41a4:	b5 a6       	std	Z+45, r11	; 0x2d
    41a6:	d1 01       	movw	r26, r2
    41a8:	8d 91       	ld	r24, X+
    41aa:	9c 91       	ld	r25, X
    41ac:	85 35       	cpi	r24, 0x55	; 85
    41ae:	9a 4a       	sbci	r25, 0xAA	; 170
    41b0:	09 f0       	breq	.+2      	; 0x41b4 <find_volume+0x642>
    41b2:	97 cd       	rjmp	.-1234   	; 0x3ce2 <find_volume+0x170>
    41b4:	e9 89       	ldd	r30, Y+17	; 0x11
    41b6:	fa 89       	ldd	r31, Y+18	; 0x12
    41b8:	80 81       	ld	r24, Z
    41ba:	91 81       	ldd	r25, Z+1	; 0x01
    41bc:	a2 81       	ldd	r26, Z+2	; 0x02
    41be:	b3 81       	ldd	r27, Z+3	; 0x03
    41c0:	bb 27       	eor	r27, r27
    41c2:	86 34       	cpi	r24, 0x46	; 70
    41c4:	91 44       	sbci	r25, 0x41	; 65
    41c6:	a4 45       	sbci	r26, 0x54	; 84
    41c8:	b1 05       	cpc	r27, r1
    41ca:	09 f4       	brne	.+2      	; 0x41ce <find_volume+0x65c>
    41cc:	64 ce       	rjmp	.-824    	; 0x3e96 <find_volume+0x324>
    41ce:	ed 89       	ldd	r30, Y+21	; 0x15
    41d0:	fe 89       	ldd	r31, Y+22	; 0x16
    41d2:	80 81       	ld	r24, Z
    41d4:	91 81       	ldd	r25, Z+1	; 0x01
    41d6:	a2 81       	ldd	r26, Z+2	; 0x02
    41d8:	b3 81       	ldd	r27, Z+3	; 0x03
    41da:	bb 27       	eor	r27, r27
    41dc:	86 34       	cpi	r24, 0x46	; 70
    41de:	91 44       	sbci	r25, 0x41	; 65
    41e0:	a4 45       	sbci	r26, 0x54	; 84
    41e2:	b1 05       	cpc	r27, r1
    41e4:	09 f4       	brne	.+2      	; 0x41e8 <find_volume+0x676>
    41e6:	57 ce       	rjmp	.-850    	; 0x3e96 <find_volume+0x324>
    41e8:	8d e0       	ldi	r24, 0x0D	; 13
    41ea:	15 cd       	rjmp	.-1494   	; 0x3c16 <find_volume+0xa4>
    41ec:	f7 01       	movw	r30, r14
    41ee:	82 a6       	std	Z+42, r8	; 0x2a
    41f0:	93 a6       	std	Z+43, r9	; 0x2b
    41f2:	a4 a6       	std	Z+44, r10	; 0x2c
    41f4:	b5 a6       	std	Z+45, r11	; 0x2d
    41f6:	f1 01       	movw	r30, r2
    41f8:	80 81       	ld	r24, Z
    41fa:	91 81       	ldd	r25, Z+1	; 0x01
    41fc:	85 35       	cpi	r24, 0x55	; 85
    41fe:	9a 4a       	sbci	r25, 0xAA	; 170
    4200:	09 f0       	breq	.+2      	; 0x4204 <find_volume+0x692>
    4202:	e5 cd       	rjmp	.-1078   	; 0x3dce <find_volume+0x25c>
    4204:	e9 89       	ldd	r30, Y+17	; 0x11
    4206:	fa 89       	ldd	r31, Y+18	; 0x12
    4208:	80 81       	ld	r24, Z
    420a:	91 81       	ldd	r25, Z+1	; 0x01
    420c:	a2 81       	ldd	r26, Z+2	; 0x02
    420e:	b3 81       	ldd	r27, Z+3	; 0x03
    4210:	bb 27       	eor	r27, r27
    4212:	86 34       	cpi	r24, 0x46	; 70
    4214:	91 44       	sbci	r25, 0x41	; 65
    4216:	a4 45       	sbci	r26, 0x54	; 84
    4218:	b1 05       	cpc	r27, r1
    421a:	09 f4       	brne	.+2      	; 0x421e <find_volume+0x6ac>
    421c:	3c ce       	rjmp	.-904    	; 0x3e96 <find_volume+0x324>
    421e:	ed 89       	ldd	r30, Y+21	; 0x15
    4220:	fe 89       	ldd	r31, Y+22	; 0x16
    4222:	80 81       	ld	r24, Z
    4224:	91 81       	ldd	r25, Z+1	; 0x01
    4226:	a2 81       	ldd	r26, Z+2	; 0x02
    4228:	b3 81       	ldd	r27, Z+3	; 0x03
    422a:	bb 27       	eor	r27, r27
    422c:	86 34       	cpi	r24, 0x46	; 70
    422e:	91 44       	sbci	r25, 0x41	; 65
    4230:	a4 45       	sbci	r26, 0x54	; 84
    4232:	b1 05       	cpc	r27, r1
    4234:	09 f0       	breq	.+2      	; 0x4238 <find_volume+0x6c6>
    4236:	cb cd       	rjmp	.-1130   	; 0x3dce <find_volume+0x25c>
    4238:	2e ce       	rjmp	.-932    	; 0x3e96 <find_volume+0x324>
    423a:	80 e0       	ldi	r24, 0x00	; 0
    423c:	90 e0       	ldi	r25, 0x00	; 0
    423e:	dc 01       	movw	r26, r24
    4240:	9e cd       	rjmp	.-1220   	; 0x3d7e <find_volume+0x20c>
    4242:	80 e0       	ldi	r24, 0x00	; 0
    4244:	90 e0       	ldi	r25, 0x00	; 0
    4246:	dc 01       	movw	r26, r24
    4248:	8a cd       	rjmp	.-1260   	; 0x3d5e <find_volume+0x1ec>
    424a:	f7 01       	movw	r30, r14
    424c:	82 a6       	std	Z+42, r8	; 0x2a
    424e:	93 a6       	std	Z+43, r9	; 0x2b
    4250:	a4 a6       	std	Z+44, r10	; 0x2c
    4252:	b5 a6       	std	Z+45, r11	; 0x2d
    4254:	d1 01       	movw	r26, r2
    4256:	8d 91       	ld	r24, X+
    4258:	9c 91       	ld	r25, X
    425a:	85 35       	cpi	r24, 0x55	; 85
    425c:	9a 4a       	sbci	r25, 0xAA	; 170
    425e:	09 f0       	breq	.+2      	; 0x4262 <find_volume+0x6f0>
    4260:	ac cd       	rjmp	.-1192   	; 0x3dba <find_volume+0x248>
    4262:	e9 89       	ldd	r30, Y+17	; 0x11
    4264:	fa 89       	ldd	r31, Y+18	; 0x12
    4266:	80 81       	ld	r24, Z
    4268:	91 81       	ldd	r25, Z+1	; 0x01
    426a:	a2 81       	ldd	r26, Z+2	; 0x02
    426c:	b3 81       	ldd	r27, Z+3	; 0x03
    426e:	bb 27       	eor	r27, r27
    4270:	86 34       	cpi	r24, 0x46	; 70
    4272:	91 44       	sbci	r25, 0x41	; 65
    4274:	a4 45       	sbci	r26, 0x54	; 84
    4276:	b1 05       	cpc	r27, r1
    4278:	09 f4       	brne	.+2      	; 0x427c <find_volume+0x70a>
    427a:	0d ce       	rjmp	.-998    	; 0x3e96 <find_volume+0x324>
    427c:	ed 89       	ldd	r30, Y+21	; 0x15
    427e:	fe 89       	ldd	r31, Y+22	; 0x16
    4280:	80 81       	ld	r24, Z
    4282:	91 81       	ldd	r25, Z+1	; 0x01
    4284:	a2 81       	ldd	r26, Z+2	; 0x02
    4286:	b3 81       	ldd	r27, Z+3	; 0x03
    4288:	bb 27       	eor	r27, r27
    428a:	86 34       	cpi	r24, 0x46	; 70
    428c:	91 44       	sbci	r25, 0x41	; 65
    428e:	a4 45       	sbci	r26, 0x54	; 84
    4290:	b1 05       	cpc	r27, r1
    4292:	09 f0       	breq	.+2      	; 0x4296 <find_volume+0x724>
    4294:	92 cd       	rjmp	.-1244   	; 0x3dba <find_volume+0x248>
    4296:	ff cd       	rjmp	.-1026   	; 0x3e96 <find_volume+0x324>
    4298:	f7 01       	movw	r30, r14
    429a:	82 a6       	std	Z+42, r8	; 0x2a
    429c:	93 a6       	std	Z+43, r9	; 0x2b
    429e:	a4 a6       	std	Z+44, r10	; 0x2c
    42a0:	b5 a6       	std	Z+45, r11	; 0x2d
    42a2:	f1 01       	movw	r30, r2
    42a4:	80 81       	ld	r24, Z
    42a6:	91 81       	ldd	r25, Z+1	; 0x01
    42a8:	85 35       	cpi	r24, 0x55	; 85
    42aa:	9a 4a       	sbci	r25, 0xAA	; 170
    42ac:	09 f0       	breq	.+2      	; 0x42b0 <find_volume+0x73e>
    42ae:	99 cd       	rjmp	.-1230   	; 0x3de2 <find_volume+0x270>
    42b0:	e9 89       	ldd	r30, Y+17	; 0x11
    42b2:	fa 89       	ldd	r31, Y+18	; 0x12
    42b4:	80 81       	ld	r24, Z
    42b6:	91 81       	ldd	r25, Z+1	; 0x01
    42b8:	a2 81       	ldd	r26, Z+2	; 0x02
    42ba:	b3 81       	ldd	r27, Z+3	; 0x03
    42bc:	bb 27       	eor	r27, r27
    42be:	86 34       	cpi	r24, 0x46	; 70
    42c0:	91 44       	sbci	r25, 0x41	; 65
    42c2:	a4 45       	sbci	r26, 0x54	; 84
    42c4:	b1 05       	cpc	r27, r1
    42c6:	09 f4       	brne	.+2      	; 0x42ca <find_volume+0x758>
    42c8:	e6 cd       	rjmp	.-1076   	; 0x3e96 <find_volume+0x324>
    42ca:	ed 89       	ldd	r30, Y+21	; 0x15
    42cc:	fe 89       	ldd	r31, Y+22	; 0x16
    42ce:	80 81       	ld	r24, Z
    42d0:	91 81       	ldd	r25, Z+1	; 0x01
    42d2:	a2 81       	ldd	r26, Z+2	; 0x02
    42d4:	b3 81       	ldd	r27, Z+3	; 0x03
    42d6:	bb 27       	eor	r27, r27
    42d8:	86 34       	cpi	r24, 0x46	; 70
    42da:	91 44       	sbci	r25, 0x41	; 65
    42dc:	a4 45       	sbci	r26, 0x54	; 84
    42de:	b1 05       	cpc	r27, r1
    42e0:	09 f0       	breq	.+2      	; 0x42e4 <find_volume+0x772>
    42e2:	7f cd       	rjmp	.-1282   	; 0x3de2 <find_volume+0x270>
    42e4:	d8 cd       	rjmp	.-1104   	; 0x3e96 <find_volume+0x324>
    42e6:	b5 01       	movw	r22, r10
    42e8:	a4 01       	movw	r20, r8
    42ea:	4f 5f       	subi	r20, 0xFF	; 255
    42ec:	5f 4f       	sbci	r21, 0xFF	; 255
    42ee:	6f 4f       	sbci	r22, 0xFF	; 255
    42f0:	7f 4f       	sbci	r23, 0xFF	; 255
    42f2:	c7 01       	movw	r24, r14
    42f4:	0e 94 37 12 	call	0x246e	; 0x246e <move_window>
    42f8:	81 11       	cpse	r24, r1
    42fa:	ef ce       	rjmp	.-546    	; 0x40da <find_volume+0x568>
    42fc:	d7 01       	movw	r26, r14
    42fe:	15 96       	adiw	r26, 0x05	; 5
    4300:	1c 92       	st	X, r1
    4302:	15 97       	sbiw	r26, 0x05	; 5
    4304:	f1 01       	movw	r30, r2
    4306:	80 81       	ld	r24, Z
    4308:	91 81       	ldd	r25, Z+1	; 0x01
    430a:	85 35       	cpi	r24, 0x55	; 85
    430c:	9a 4a       	sbci	r25, 0xAA	; 170
    430e:	09 f0       	breq	.+2      	; 0x4312 <find_volume+0x7a0>
    4310:	e4 ce       	rjmp	.-568    	; 0x40da <find_volume+0x568>
    4312:	9e 96       	adiw	r26, 0x2e	; 46
    4314:	8d 91       	ld	r24, X+
    4316:	9d 91       	ld	r25, X+
    4318:	0d 90       	ld	r0, X+
    431a:	bc 91       	ld	r27, X
    431c:	a0 2d       	mov	r26, r0
    431e:	82 35       	cpi	r24, 0x52	; 82
    4320:	92 45       	sbci	r25, 0x52	; 82
    4322:	a1 46       	sbci	r26, 0x61	; 97
    4324:	b1 44       	sbci	r27, 0x41	; 65
    4326:	09 f0       	breq	.+2      	; 0x432a <find_volume+0x7b8>
    4328:	d8 ce       	rjmp	.-592    	; 0x40da <find_volume+0x568>
    432a:	f7 01       	movw	r30, r14
    432c:	ee 5e       	subi	r30, 0xEE	; 238
    432e:	fd 4f       	sbci	r31, 0xFD	; 253
    4330:	80 81       	ld	r24, Z
    4332:	91 81       	ldd	r25, Z+1	; 0x01
    4334:	a2 81       	ldd	r26, Z+2	; 0x02
    4336:	b3 81       	ldd	r27, Z+3	; 0x03
    4338:	82 37       	cpi	r24, 0x72	; 114
    433a:	92 47       	sbci	r25, 0x72	; 114
    433c:	a1 44       	sbci	r26, 0x41	; 65
    433e:	b1 46       	sbci	r27, 0x61	; 97
    4340:	09 f0       	breq	.+2      	; 0x4344 <find_volume+0x7d2>
    4342:	cb ce       	rjmp	.-618    	; 0x40da <find_volume+0x568>
    4344:	34 96       	adiw	r30, 0x04	; 4
    4346:	80 81       	ld	r24, Z
    4348:	91 81       	ldd	r25, Z+1	; 0x01
    434a:	a2 81       	ldd	r26, Z+2	; 0x02
    434c:	b3 81       	ldd	r27, Z+3	; 0x03
    434e:	f7 01       	movw	r30, r14
    4350:	86 87       	std	Z+14, r24	; 0x0e
    4352:	97 87       	std	Z+15, r25	; 0x0f
    4354:	a0 8b       	std	Z+16, r26	; 0x10
    4356:	b1 8b       	std	Z+17, r27	; 0x11
    4358:	e6 5e       	subi	r30, 0xE6	; 230
    435a:	fd 4f       	sbci	r31, 0xFD	; 253
    435c:	80 81       	ld	r24, Z
    435e:	91 81       	ldd	r25, Z+1	; 0x01
    4360:	a2 81       	ldd	r26, Z+2	; 0x02
    4362:	b3 81       	ldd	r27, Z+3	; 0x03
    4364:	f7 01       	movw	r30, r14
    4366:	82 87       	std	Z+10, r24	; 0x0a
    4368:	93 87       	std	Z+11, r25	; 0x0b
    436a:	a4 87       	std	Z+12, r26	; 0x0c
    436c:	b5 87       	std	Z+13, r27	; 0x0d
    436e:	b5 ce       	rjmp	.-662    	; 0x40da <find_volume+0x568>
    4370:	ba 01       	movw	r22, r20
    4372:	a9 01       	movw	r20, r18
    4374:	4e 5f       	subi	r20, 0xFE	; 254
    4376:	5f 4f       	sbci	r21, 0xFF	; 255
    4378:	6f 4f       	sbci	r22, 0xFF	; 255
    437a:	7f 4f       	sbci	r23, 0xFF	; 255
    437c:	d7 01       	movw	r26, r14
    437e:	52 96       	adiw	r26, 0x12	; 18
    4380:	4d 93       	st	X+, r20
    4382:	5d 93       	st	X+, r21
    4384:	6d 93       	st	X+, r22
    4386:	7c 93       	st	X, r23
    4388:	55 97       	sbiw	r26, 0x15	; 21
    438a:	f7 01       	movw	r30, r14
    438c:	82 8e       	std	Z+26, r8	; 0x1a
    438e:	93 8e       	std	Z+27, r9	; 0x1b
    4390:	a4 8e       	std	Z+28, r10	; 0x1c
    4392:	b5 8e       	std	Z+29, r11	; 0x1d
    4394:	8d 8d       	ldd	r24, Y+29	; 0x1d
    4396:	9e 8d       	ldd	r25, Y+30	; 0x1e
    4398:	af 8d       	ldd	r26, Y+31	; 0x1f
    439a:	b8 a1       	ldd	r27, Y+32	; 0x20
    439c:	88 0d       	add	r24, r8
    439e:	99 1d       	adc	r25, r9
    43a0:	aa 1d       	adc	r26, r10
    43a2:	bb 1d       	adc	r27, r11
    43a4:	86 8f       	std	Z+30, r24	; 0x1e
    43a6:	97 8f       	std	Z+31, r25	; 0x1f
    43a8:	a0 a3       	std	Z+32, r26	; 0x20
    43aa:	b1 a3       	std	Z+33, r27	; 0x21
    43ac:	0d 89       	ldd	r16, Y+21	; 0x15
    43ae:	1e 89       	ldd	r17, Y+22	; 0x16
    43b0:	2f 89       	ldd	r18, Y+23	; 0x17
    43b2:	38 8d       	ldd	r19, Y+24	; 0x18
    43b4:	08 0d       	add	r16, r8
    43b6:	19 1d       	adc	r17, r9
    43b8:	2a 1d       	adc	r18, r10
    43ba:	3b 1d       	adc	r19, r11
    43bc:	06 a3       	std	Z+38, r16	; 0x26
    43be:	17 a3       	std	Z+39, r17	; 0x27
    43c0:	20 a7       	std	Z+40, r18	; 0x28
    43c2:	31 a7       	std	Z+41, r19	; 0x29
    43c4:	cd 28       	or	r12, r13
    43c6:	09 f4       	brne	.+2      	; 0x43ca <find_volume+0x858>
    43c8:	8c cc       	rjmp	.-1768   	; 0x3ce2 <find_volume+0x170>
    43ca:	49 8c       	ldd	r4, Y+25	; 0x19
    43cc:	5a 8c       	ldd	r5, Y+26	; 0x1a
    43ce:	6b 8c       	ldd	r6, Y+27	; 0x1b
    43d0:	7c 8c       	ldd	r7, Y+28	; 0x1c
    43d2:	48 0e       	add	r4, r24
    43d4:	59 1e       	adc	r5, r25
    43d6:	6a 1e       	adc	r6, r26
    43d8:	7b 1e       	adc	r7, r27
    43da:	d7 01       	movw	r26, r14
    43dc:	92 96       	adiw	r26, 0x22	; 34
    43de:	4d 92       	st	X+, r4
    43e0:	5d 92       	st	X+, r5
    43e2:	6d 92       	st	X+, r6
    43e4:	7c 92       	st	X, r7
    43e6:	95 97       	sbiw	r26, 0x25	; 37
    43e8:	db 01       	movw	r26, r22
    43ea:	ca 01       	movw	r24, r20
    43ec:	88 0f       	add	r24, r24
    43ee:	99 1f       	adc	r25, r25
    43f0:	aa 1f       	adc	r26, r26
    43f2:	bb 1f       	adc	r27, r27
    43f4:	81 50       	subi	r24, 0x01	; 1
    43f6:	9e 4f       	sbci	r25, 0xFE	; 254
    43f8:	af 4f       	sbci	r26, 0xFF	; 255
    43fa:	bf 4f       	sbci	r27, 0xFF	; 255
    43fc:	59 e0       	ldi	r21, 0x09	; 9
    43fe:	b6 95       	lsr	r27
    4400:	a7 95       	ror	r26
    4402:	97 95       	ror	r25
    4404:	87 95       	ror	r24
    4406:	5a 95       	dec	r21
    4408:	d1 f7       	brne	.-12     	; 0x43fe <find_volume+0x88c>
    440a:	49 88       	ldd	r4, Y+17	; 0x11
    440c:	5a 88       	ldd	r5, Y+18	; 0x12
    440e:	6b 88       	ldd	r6, Y+19	; 0x13
    4410:	7c 88       	ldd	r7, Y+20	; 0x14
    4412:	48 16       	cp	r4, r24
    4414:	59 06       	cpc	r5, r25
    4416:	6a 06       	cpc	r6, r26
    4418:	7b 06       	cpc	r7, r27
    441a:	08 f4       	brcc	.+2      	; 0x441e <find_volume+0x8ac>
    441c:	62 cc       	rjmp	.-1852   	; 0x3ce2 <find_volume+0x170>
    441e:	8f ef       	ldi	r24, 0xFF	; 255
    4420:	9f ef       	ldi	r25, 0xFF	; 255
    4422:	dc 01       	movw	r26, r24
    4424:	f7 01       	movw	r30, r14
    4426:	86 87       	std	Z+14, r24	; 0x0e
    4428:	97 87       	std	Z+15, r25	; 0x0f
    442a:	a0 8b       	std	Z+16, r26	; 0x10
    442c:	b1 8b       	std	Z+17, r27	; 0x11
    442e:	82 87       	std	Z+10, r24	; 0x0a
    4430:	93 87       	std	Z+11, r25	; 0x0b
    4432:	a4 87       	std	Z+12, r26	; 0x0c
    4434:	b5 87       	std	Z+13, r27	; 0x0d
    4436:	80 e8       	ldi	r24, 0x80	; 128
    4438:	85 83       	std	Z+5, r24	; 0x05
    443a:	82 e0       	ldi	r24, 0x02	; 2
    443c:	4f ce       	rjmp	.-866    	; 0x40dc <find_volume+0x56a>
    443e:	2e 5f       	subi	r18, 0xFE	; 254
    4440:	3f 4f       	sbci	r19, 0xFF	; 255
    4442:	4f 4f       	sbci	r20, 0xFF	; 255
    4444:	5f 4f       	sbci	r21, 0xFF	; 255
    4446:	d7 01       	movw	r26, r14
    4448:	52 96       	adiw	r26, 0x12	; 18
    444a:	2d 93       	st	X+, r18
    444c:	3d 93       	st	X+, r19
    444e:	4d 93       	st	X+, r20
    4450:	5c 93       	st	X, r21
    4452:	55 97       	sbiw	r26, 0x15	; 21
    4454:	f7 01       	movw	r30, r14
    4456:	82 8e       	std	Z+26, r8	; 0x1a
    4458:	93 8e       	std	Z+27, r9	; 0x1b
    445a:	a4 8e       	std	Z+28, r10	; 0x1c
    445c:	b5 8e       	std	Z+29, r11	; 0x1d
    445e:	8d 8d       	ldd	r24, Y+29	; 0x1d
    4460:	9e 8d       	ldd	r25, Y+30	; 0x1e
    4462:	af 8d       	ldd	r26, Y+31	; 0x1f
    4464:	b8 a1       	ldd	r27, Y+32	; 0x20
    4466:	88 0d       	add	r24, r8
    4468:	99 1d       	adc	r25, r9
    446a:	aa 1d       	adc	r26, r10
    446c:	bb 1d       	adc	r27, r11
    446e:	86 8f       	std	Z+30, r24	; 0x1e
    4470:	97 8f       	std	Z+31, r25	; 0x1f
    4472:	a0 a3       	std	Z+32, r26	; 0x20
    4474:	b1 a3       	std	Z+33, r27	; 0x21
    4476:	4d 88       	ldd	r4, Y+21	; 0x15
    4478:	5e 88       	ldd	r5, Y+22	; 0x16
    447a:	6f 88       	ldd	r6, Y+23	; 0x17
    447c:	78 8c       	ldd	r7, Y+24	; 0x18
    447e:	84 0c       	add	r8, r4
    4480:	95 1c       	adc	r9, r5
    4482:	a6 1c       	adc	r10, r6
    4484:	b7 1c       	adc	r11, r7
    4486:	86 a2       	std	Z+38, r8	; 0x26
    4488:	97 a2       	std	Z+39, r9	; 0x27
    448a:	a0 a6       	std	Z+40, r10	; 0x28
    448c:	b1 a6       	std	Z+41, r11	; 0x29
    448e:	cd 28       	or	r12, r13
    4490:	09 f4       	brne	.+2      	; 0x4494 <find_volume+0x922>
    4492:	27 cc       	rjmp	.-1970   	; 0x3ce2 <find_volume+0x170>
    4494:	49 8c       	ldd	r4, Y+25	; 0x19
    4496:	5a 8c       	ldd	r5, Y+26	; 0x1a
    4498:	6b 8c       	ldd	r6, Y+27	; 0x1b
    449a:	7c 8c       	ldd	r7, Y+28	; 0x1c
    449c:	48 0e       	add	r4, r24
    449e:	59 1e       	adc	r5, r25
    44a0:	6a 1e       	adc	r6, r26
    44a2:	7b 1e       	adc	r7, r27
    44a4:	d7 01       	movw	r26, r14
    44a6:	92 96       	adiw	r26, 0x22	; 34
    44a8:	4d 92       	st	X+, r4
    44aa:	5d 92       	st	X+, r5
    44ac:	6d 92       	st	X+, r6
    44ae:	7c 92       	st	X, r7
    44b0:	95 97       	sbiw	r26, 0x25	; 37
    44b2:	da 01       	movw	r26, r20
    44b4:	c9 01       	movw	r24, r18
    44b6:	81 70       	andi	r24, 0x01	; 1
    44b8:	99 27       	eor	r25, r25
    44ba:	aa 27       	eor	r26, r26
    44bc:	bb 27       	eor	r27, r27
    44be:	2c 01       	movw	r4, r24
    44c0:	3d 01       	movw	r6, r26
    44c2:	ef ef       	ldi	r30, 0xFF	; 255
    44c4:	4e 0e       	add	r4, r30
    44c6:	e1 e0       	ldi	r30, 0x01	; 1
    44c8:	5e 1e       	adc	r5, r30
    44ca:	61 1c       	adc	r6, r1
    44cc:	71 1c       	adc	r7, r1
    44ce:	a3 e0       	ldi	r26, 0x03	; 3
    44d0:	b0 e0       	ldi	r27, 0x00	; 0
    44d2:	0e 94 68 3c 	call	0x78d0	; 0x78d0 <__muluhisi3>
    44d6:	dc 01       	movw	r26, r24
    44d8:	cb 01       	movw	r24, r22
    44da:	b6 95       	lsr	r27
    44dc:	a7 95       	ror	r26
    44de:	97 95       	ror	r25
    44e0:	87 95       	ror	r24
    44e2:	84 0d       	add	r24, r4
    44e4:	95 1d       	adc	r25, r5
    44e6:	a6 1d       	adc	r26, r6
    44e8:	b7 1d       	adc	r27, r7
    44ea:	39 e0       	ldi	r19, 0x09	; 9
    44ec:	b6 95       	lsr	r27
    44ee:	a7 95       	ror	r26
    44f0:	97 95       	ror	r25
    44f2:	87 95       	ror	r24
    44f4:	3a 95       	dec	r19
    44f6:	d1 f7       	brne	.-12     	; 0x44ec <find_volume+0x97a>
    44f8:	49 88       	ldd	r4, Y+17	; 0x11
    44fa:	5a 88       	ldd	r5, Y+18	; 0x12
    44fc:	6b 88       	ldd	r6, Y+19	; 0x13
    44fe:	7c 88       	ldd	r7, Y+20	; 0x14
    4500:	48 16       	cp	r4, r24
    4502:	59 06       	cpc	r5, r25
    4504:	6a 06       	cpc	r6, r26
    4506:	7b 06       	cpc	r7, r27
    4508:	08 f4       	brcc	.+2      	; 0x450c <find_volume+0x99a>
    450a:	eb cb       	rjmp	.-2090   	; 0x3ce2 <find_volume+0x170>
    450c:	8f ef       	ldi	r24, 0xFF	; 255
    450e:	9f ef       	ldi	r25, 0xFF	; 255
    4510:	dc 01       	movw	r26, r24
    4512:	f7 01       	movw	r30, r14
    4514:	86 87       	std	Z+14, r24	; 0x0e
    4516:	97 87       	std	Z+15, r25	; 0x0f
    4518:	a0 8b       	std	Z+16, r26	; 0x10
    451a:	b1 8b       	std	Z+17, r27	; 0x11
    451c:	82 87       	std	Z+10, r24	; 0x0a
    451e:	93 87       	std	Z+11, r25	; 0x0b
    4520:	a4 87       	std	Z+12, r26	; 0x0c
    4522:	b5 87       	std	Z+13, r27	; 0x0d
    4524:	80 e8       	ldi	r24, 0x80	; 128
    4526:	85 83       	std	Z+5, r24	; 0x05
    4528:	81 e0       	ldi	r24, 0x01	; 1
    452a:	d8 cd       	rjmp	.-1104   	; 0x40dc <find_volume+0x56a>

0000452c <f_mount>:
    452c:	cf 93       	push	r28
    452e:	df 93       	push	r29
    4530:	00 d0       	rcall	.+0      	; 0x4532 <f_mount+0x6>
    4532:	00 d0       	rcall	.+0      	; 0x4534 <f_mount+0x8>
    4534:	cd b7       	in	r28, 0x3d	; 61
    4536:	de b7       	in	r29, 0x3e	; 62
    4538:	9a 83       	std	Y+2, r25	; 0x02
    453a:	89 83       	std	Y+1, r24	; 0x01
    453c:	7c 83       	std	Y+4, r23	; 0x04
    453e:	6b 83       	std	Y+3, r22	; 0x03
    4540:	e6 2f       	mov	r30, r22
    4542:	f7 2f       	mov	r31, r23
    4544:	30 97       	sbiw	r30, 0x00	; 0
    4546:	69 f1       	breq	.+90     	; 0x45a2 <f_mount+0x76>
    4548:	90 81       	ld	r25, Z
    454a:	91 32       	cpi	r25, 0x21	; 33
    454c:	68 f0       	brcs	.+26     	; 0x4568 <f_mount+0x3c>
    454e:	9a 33       	cpi	r25, 0x3A	; 58
    4550:	41 f1       	breq	.+80     	; 0x45a2 <f_mount+0x76>
    4552:	bf 01       	movw	r22, r30
    4554:	6f 5f       	subi	r22, 0xFF	; 255
    4556:	7f 4f       	sbci	r23, 0xFF	; 255
    4558:	fb 01       	movw	r30, r22
    455a:	02 c0       	rjmp	.+4      	; 0x4560 <f_mount+0x34>
    455c:	8a 33       	cpi	r24, 0x3A	; 58
    455e:	f1 f0       	breq	.+60     	; 0x459c <f_mount+0x70>
    4560:	9f 01       	movw	r18, r30
    4562:	81 91       	ld	r24, Z+
    4564:	81 32       	cpi	r24, 0x21	; 33
    4566:	d0 f7       	brcc	.-12     	; 0x455c <f_mount+0x30>
    4568:	e0 91 c6 01 	lds	r30, 0x01C6	; 0x8001c6 <FatFs>
    456c:	f0 91 c7 01 	lds	r31, 0x01C7	; 0x8001c7 <FatFs+0x1>
    4570:	30 97       	sbiw	r30, 0x00	; 0
    4572:	09 f0       	breq	.+2      	; 0x4576 <f_mount+0x4a>
    4574:	10 82       	st	Z, r1
    4576:	e9 81       	ldd	r30, Y+1	; 0x01
    4578:	fa 81       	ldd	r31, Y+2	; 0x02
    457a:	30 97       	sbiw	r30, 0x00	; 0
    457c:	49 f1       	breq	.+82     	; 0x45d0 <f_mount+0xa4>
    457e:	10 82       	st	Z, r1
    4580:	f0 93 c7 01 	sts	0x01C7, r31	; 0x8001c7 <FatFs+0x1>
    4584:	e0 93 c6 01 	sts	0x01C6, r30	; 0x8001c6 <FatFs>
    4588:	41 30       	cpi	r20, 0x01	; 1
    458a:	99 f0       	breq	.+38     	; 0x45b2 <f_mount+0x86>
    458c:	80 e0       	ldi	r24, 0x00	; 0
    458e:	0f 90       	pop	r0
    4590:	0f 90       	pop	r0
    4592:	0f 90       	pop	r0
    4594:	0f 90       	pop	r0
    4596:	df 91       	pop	r29
    4598:	cf 91       	pop	r28
    459a:	08 95       	ret
    459c:	26 17       	cp	r18, r22
    459e:	37 07       	cpc	r19, r23
    45a0:	e1 f0       	breq	.+56     	; 0x45da <f_mount+0xae>
    45a2:	8b e0       	ldi	r24, 0x0B	; 11
    45a4:	0f 90       	pop	r0
    45a6:	0f 90       	pop	r0
    45a8:	0f 90       	pop	r0
    45aa:	0f 90       	pop	r0
    45ac:	df 91       	pop	r29
    45ae:	cf 91       	pop	r28
    45b0:	08 95       	ret
    45b2:	40 e0       	ldi	r20, 0x00	; 0
    45b4:	be 01       	movw	r22, r28
    45b6:	6d 5f       	subi	r22, 0xFD	; 253
    45b8:	7f 4f       	sbci	r23, 0xFF	; 255
    45ba:	ce 01       	movw	r24, r28
    45bc:	01 96       	adiw	r24, 0x01	; 1
    45be:	0e 94 b9 1d 	call	0x3b72	; 0x3b72 <find_volume>
    45c2:	0f 90       	pop	r0
    45c4:	0f 90       	pop	r0
    45c6:	0f 90       	pop	r0
    45c8:	0f 90       	pop	r0
    45ca:	df 91       	pop	r29
    45cc:	cf 91       	pop	r28
    45ce:	08 95       	ret
    45d0:	10 92 c7 01 	sts	0x01C7, r1	; 0x8001c7 <FatFs+0x1>
    45d4:	10 92 c6 01 	sts	0x01C6, r1	; 0x8001c6 <FatFs>
    45d8:	d9 cf       	rjmp	.-78     	; 0x458c <f_mount+0x60>
    45da:	90 33       	cpi	r25, 0x30	; 48
    45dc:	29 f2       	breq	.-118    	; 0x4568 <f_mount+0x3c>
    45de:	e1 cf       	rjmp	.-62     	; 0x45a2 <f_mount+0x76>

000045e0 <f_open>:
    45e0:	2f 92       	push	r2
    45e2:	3f 92       	push	r3
    45e4:	4f 92       	push	r4
    45e6:	5f 92       	push	r5
    45e8:	6f 92       	push	r6
    45ea:	7f 92       	push	r7
    45ec:	8f 92       	push	r8
    45ee:	9f 92       	push	r9
    45f0:	af 92       	push	r10
    45f2:	bf 92       	push	r11
    45f4:	cf 92       	push	r12
    45f6:	df 92       	push	r13
    45f8:	ef 92       	push	r14
    45fa:	ff 92       	push	r15
    45fc:	0f 93       	push	r16
    45fe:	1f 93       	push	r17
    4600:	cf 93       	push	r28
    4602:	df 93       	push	r29
    4604:	cd b7       	in	r28, 0x3d	; 61
    4606:	de b7       	in	r29, 0x3e	; 62
    4608:	ef 97       	sbiw	r28, 0x3f	; 63
    460a:	0f b6       	in	r0, 0x3f	; 63
    460c:	f8 94       	cli
    460e:	de bf       	out	0x3e, r29	; 62
    4610:	0f be       	out	0x3f, r0	; 63
    4612:	cd bf       	out	0x3d, r28	; 61
    4614:	7c a3       	std	Y+36, r23	; 0x24
    4616:	6b a3       	std	Y+35, r22	; 0x23
    4618:	00 97       	sbiw	r24, 0x00	; 0
    461a:	49 f1       	breq	.+82     	; 0x466e <f_open+0x8e>
    461c:	4d a3       	std	Y+37, r20	; 0x25
    461e:	9e a7       	std	Y+46, r25	; 0x2e
    4620:	8d a7       	std	Y+45, r24	; 0x2d
    4622:	dc 01       	movw	r26, r24
    4624:	1d 92       	st	X+, r1
    4626:	1c 92       	st	X, r1
    4628:	4e 71       	andi	r20, 0x1E	; 30
    462a:	be 01       	movw	r22, r28
    462c:	6d 5d       	subi	r22, 0xDD	; 221
    462e:	7f 4f       	sbci	r23, 0xFF	; 255
    4630:	ce 01       	movw	r24, r28
    4632:	01 96       	adiw	r24, 0x01	; 1
    4634:	0e 94 b9 1d 	call	0x3b72	; 0x3b72 <find_volume>
    4638:	88 23       	and	r24, r24
    463a:	d9 f0       	breq	.+54     	; 0x4672 <f_open+0x92>
    463c:	ef 96       	adiw	r28, 0x3f	; 63
    463e:	0f b6       	in	r0, 0x3f	; 63
    4640:	f8 94       	cli
    4642:	de bf       	out	0x3e, r29	; 62
    4644:	0f be       	out	0x3f, r0	; 63
    4646:	cd bf       	out	0x3d, r28	; 61
    4648:	df 91       	pop	r29
    464a:	cf 91       	pop	r28
    464c:	1f 91       	pop	r17
    464e:	0f 91       	pop	r16
    4650:	ff 90       	pop	r15
    4652:	ef 90       	pop	r14
    4654:	df 90       	pop	r13
    4656:	cf 90       	pop	r12
    4658:	bf 90       	pop	r11
    465a:	af 90       	pop	r10
    465c:	9f 90       	pop	r9
    465e:	8f 90       	pop	r8
    4660:	7f 90       	pop	r7
    4662:	6f 90       	pop	r6
    4664:	5f 90       	pop	r5
    4666:	4f 90       	pop	r4
    4668:	3f 90       	pop	r3
    466a:	2f 90       	pop	r2
    466c:	08 95       	ret
    466e:	89 e0       	ldi	r24, 0x09	; 9
    4670:	e5 cf       	rjmp	.-54     	; 0x463c <f_open+0x5c>
    4672:	fe 01       	movw	r30, r28
    4674:	77 96       	adiw	r30, 0x17	; 23
    4676:	fe 8b       	std	Y+22, r31	; 0x16
    4678:	ed 8b       	std	Y+21, r30	; 0x15
    467a:	0b a1       	ldd	r16, Y+35	; 0x23
    467c:	1c a1       	ldd	r17, Y+36	; 0x24
    467e:	1a a7       	std	Y+42, r17	; 0x2a
    4680:	09 a7       	std	Y+41, r16	; 0x29
    4682:	d8 01       	movw	r26, r16
    4684:	8c 91       	ld	r24, X
    4686:	8f 32       	cpi	r24, 0x2F	; 47
    4688:	09 f4       	brne	.+2      	; 0x468c <f_open+0xac>
    468a:	7d c1       	rjmp	.+762    	; 0x4986 <f_open+0x3a6>
    468c:	8c 35       	cpi	r24, 0x5C	; 92
    468e:	09 f4       	brne	.+2      	; 0x4692 <f_open+0xb2>
    4690:	7a c1       	rjmp	.+756    	; 0x4986 <f_open+0x3a6>
    4692:	1d a1       	ldd	r17, Y+37	; 0x25
    4694:	1f 71       	andi	r17, 0x1F	; 31
    4696:	1f a7       	std	Y+47, r17	; 0x2f
    4698:	1f 82       	std	Y+7, r1	; 0x07
    469a:	18 86       	std	Y+8, r1	; 0x08
    469c:	19 86       	std	Y+9, r1	; 0x09
    469e:	1a 86       	std	Y+10, r1	; 0x0a
    46a0:	a9 a5       	ldd	r26, Y+41	; 0x29
    46a2:	ba a5       	ldd	r27, Y+42	; 0x2a
    46a4:	8c 91       	ld	r24, X
    46a6:	80 32       	cpi	r24, 0x20	; 32
    46a8:	08 f4       	brcc	.+2      	; 0x46ac <f_open+0xcc>
    46aa:	e4 c2       	rjmp	.+1480   	; 0x4c74 <f_open+0x694>
    46ac:	89 a4       	ldd	r8, Y+41	; 0x29
    46ae:	9a a4       	ldd	r9, Y+42	; 0x2a
    46b0:	d4 01       	movw	r26, r8
    46b2:	8c 91       	ld	r24, X
    46b4:	0f ef       	ldi	r16, 0xFF	; 255
    46b6:	80 1a       	sub	r8, r16
    46b8:	90 0a       	sbc	r9, r16
    46ba:	8f 32       	cpi	r24, 0x2F	; 47
    46bc:	c9 f3       	breq	.-14     	; 0x46b0 <f_open+0xd0>
    46be:	8c 35       	cpi	r24, 0x5C	; 92
    46c0:	b9 f3       	breq	.-18     	; 0x46b0 <f_open+0xd0>
    46c2:	10 e2       	ldi	r17, 0x20	; 32
    46c4:	10 83       	st	Z, r17
    46c6:	11 83       	std	Z+1, r17	; 0x01
    46c8:	12 83       	std	Z+2, r17	; 0x02
    46ca:	13 83       	std	Z+3, r17	; 0x03
    46cc:	14 83       	std	Z+4, r17	; 0x04
    46ce:	15 83       	std	Z+5, r17	; 0x05
    46d0:	16 83       	std	Z+6, r17	; 0x06
    46d2:	17 83       	std	Z+7, r17	; 0x07
    46d4:	10 87       	std	Z+8, r17	; 0x08
    46d6:	11 87       	std	Z+9, r17	; 0x09
    46d8:	12 87       	std	Z+10, r17	; 0x0a
    46da:	7d 01       	movw	r14, r26
    46dc:	60 e0       	ldi	r22, 0x00	; 0
    46de:	70 e0       	ldi	r23, 0x00	; 0
    46e0:	81 2c       	mov	r8, r1
    46e2:	91 2c       	mov	r9, r1
    46e4:	98 e0       	ldi	r25, 0x08	; 8
    46e6:	a9 2e       	mov	r10, r25
    46e8:	b1 2c       	mov	r11, r1
    46ea:	c1 2c       	mov	r12, r1
    46ec:	0c 2d       	mov	r16, r12
    46ee:	af 01       	movw	r20, r30
    46f0:	2f ef       	ldi	r18, 0xFF	; 255
    46f2:	82 1a       	sub	r8, r18
    46f4:	92 0a       	sbc	r9, r18
    46f6:	f7 01       	movw	r30, r14
    46f8:	11 91       	ld	r17, Z+
    46fa:	7f 01       	movw	r14, r30
    46fc:	11 32       	cpi	r17, 0x21	; 33
    46fe:	08 f4       	brcc	.+2      	; 0x4702 <f_open+0x122>
    4700:	49 c1       	rjmp	.+658    	; 0x4994 <f_open+0x3b4>
    4702:	1f 32       	cpi	r17, 0x2F	; 47
    4704:	09 f4       	brne	.+2      	; 0x4708 <f_open+0x128>
    4706:	ce c0       	rjmp	.+412    	; 0x48a4 <f_open+0x2c4>
    4708:	1c 35       	cpi	r17, 0x5C	; 92
    470a:	09 f4       	brne	.+2      	; 0x470e <f_open+0x12e>
    470c:	cb c0       	rjmp	.+406    	; 0x48a4 <f_open+0x2c4>
    470e:	1e 32       	cpi	r17, 0x2E	; 46
    4710:	09 f4       	brne	.+2      	; 0x4714 <f_open+0x134>
    4712:	b3 c0       	rjmp	.+358    	; 0x487a <f_open+0x29a>
    4714:	6a 15       	cp	r22, r10
    4716:	7b 05       	cpc	r23, r11
    4718:	e8 f4       	brcc	.+58     	; 0x4754 <f_open+0x174>
    471a:	17 fd       	sbrc	r17, 7
    471c:	1b c0       	rjmp	.+54     	; 0x4754 <f_open+0x174>
    471e:	21 2f       	mov	r18, r17
    4720:	30 e0       	ldi	r19, 0x00	; 0
    4722:	12 32       	cpi	r17, 0x22	; 34
    4724:	b9 f0       	breq	.+46     	; 0x4754 <f_open+0x174>
    4726:	ed e8       	ldi	r30, 0x8D	; 141
    4728:	f1 e0       	ldi	r31, 0x01	; 1
    472a:	04 c0       	rjmp	.+8      	; 0x4734 <f_open+0x154>
    472c:	90 e0       	ldi	r25, 0x00	; 0
    472e:	28 17       	cp	r18, r24
    4730:	39 07       	cpc	r19, r25
    4732:	81 f0       	breq	.+32     	; 0x4754 <f_open+0x174>
    4734:	81 91       	ld	r24, Z+
    4736:	81 11       	cpse	r24, r1
    4738:	f9 cf       	rjmp	.-14     	; 0x472c <f_open+0x14c>
    473a:	8f eb       	ldi	r24, 0xBF	; 191
    473c:	81 0f       	add	r24, r17
    473e:	8a 31       	cpi	r24, 0x1A	; 26
    4740:	08 f0       	brcs	.+2      	; 0x4744 <f_open+0x164>
    4742:	a8 c0       	rjmp	.+336    	; 0x4894 <f_open+0x2b4>
    4744:	02 60       	ori	r16, 0x02	; 2
    4746:	fa 01       	movw	r30, r20
    4748:	e6 0f       	add	r30, r22
    474a:	f7 1f       	adc	r31, r23
    474c:	10 83       	st	Z, r17
    474e:	6f 5f       	subi	r22, 0xFF	; 255
    4750:	7f 4f       	sbci	r23, 0xFF	; 255
    4752:	ce cf       	rjmp	.-100    	; 0x46f0 <f_open+0x110>
    4754:	2b 88       	ldd	r2, Y+19	; 0x13
    4756:	3c 88       	ldd	r3, Y+20	; 0x14
    4758:	86 e0       	ldi	r24, 0x06	; 6
    475a:	9d a1       	ldd	r25, Y+37	; 0x25
    475c:	9c 71       	andi	r25, 0x1C	; 28
    475e:	09 f4       	brne	.+2      	; 0x4762 <f_open+0x182>
    4760:	01 c1       	rjmp	.+514    	; 0x4964 <f_open+0x384>
    4762:	0f a5       	ldd	r16, Y+47	; 0x2f
    4764:	08 60       	ori	r16, 0x08	; 8
    4766:	0f a7       	std	Y+47, r16	; 0x2f
    4768:	81 11       	cpse	r24, r1
    476a:	68 cf       	rjmp	.-304    	; 0x463c <f_open+0x5c>
    476c:	a9 80       	ldd	r10, Y+1	; 0x01
    476e:	ba 80       	ldd	r11, Y+2	; 0x02
    4770:	2f a5       	ldd	r18, Y+47	; 0x2f
    4772:	23 ff       	sbrs	r18, 3
    4774:	42 c0       	rjmp	.+132    	; 0x47fa <f_open+0x21a>
    4776:	80 e0       	ldi	r24, 0x00	; 0
    4778:	90 e0       	ldi	r25, 0x00	; 0
    477a:	a1 e2       	ldi	r26, 0x21	; 33
    477c:	b6 e4       	ldi	r27, 0x46	; 70
    477e:	f1 01       	movw	r30, r2
    4780:	86 87       	std	Z+14, r24	; 0x0e
    4782:	97 87       	std	Z+15, r25	; 0x0f
    4784:	a0 8b       	std	Z+16, r26	; 0x10
    4786:	b1 8b       	std	Z+17, r27	; 0x11
    4788:	86 8b       	std	Z+22, r24	; 0x16
    478a:	97 8b       	std	Z+23, r25	; 0x17
    478c:	a0 8f       	std	Z+24, r26	; 0x18
    478e:	b1 8f       	std	Z+25, r27	; 0x19
    4790:	13 86       	std	Z+11, r1	; 0x0b
    4792:	14 8e       	std	Z+28, r1	; 0x1c
    4794:	15 8e       	std	Z+29, r1	; 0x1d
    4796:	16 8e       	std	Z+30, r1	; 0x1e
    4798:	17 8e       	std	Z+31, r1	; 0x1f
    479a:	82 8d       	ldd	r24, Z+26	; 0x1a
    479c:	93 8d       	ldd	r25, Z+27	; 0x1b
    479e:	8c 01       	movw	r16, r24
    47a0:	20 e0       	ldi	r18, 0x00	; 0
    47a2:	30 e0       	ldi	r19, 0x00	; 0
    47a4:	0d a3       	std	Y+37, r16	; 0x25
    47a6:	1e a3       	std	Y+38, r17	; 0x26
    47a8:	2f a3       	std	Y+39, r18	; 0x27
    47aa:	38 a7       	std	Y+40, r19	; 0x28
    47ac:	d5 01       	movw	r26, r10
    47ae:	8c 91       	ld	r24, X
    47b0:	83 30       	cpi	r24, 0x03	; 3
    47b2:	79 f4       	brne	.+30     	; 0x47d2 <f_open+0x1f2>
    47b4:	84 89       	ldd	r24, Z+20	; 0x14
    47b6:	95 89       	ldd	r25, Z+21	; 0x15
    47b8:	a0 e0       	ldi	r26, 0x00	; 0
    47ba:	b0 e0       	ldi	r27, 0x00	; 0
    47bc:	dc 01       	movw	r26, r24
    47be:	99 27       	eor	r25, r25
    47c0:	88 27       	eor	r24, r24
    47c2:	08 2b       	or	r16, r24
    47c4:	19 2b       	or	r17, r25
    47c6:	2a 2b       	or	r18, r26
    47c8:	3b 2b       	or	r19, r27
    47ca:	0d a3       	std	Y+37, r16	; 0x25
    47cc:	1e a3       	std	Y+38, r17	; 0x26
    47ce:	2f a3       	std	Y+39, r18	; 0x27
    47d0:	38 a7       	std	Y+40, r19	; 0x28
    47d2:	d1 01       	movw	r26, r2
    47d4:	5b 96       	adiw	r26, 0x1b	; 27
    47d6:	1c 92       	st	X, r1
    47d8:	1e 92       	st	-X, r1
    47da:	5a 97       	sbiw	r26, 0x1a	; 26
    47dc:	55 96       	adiw	r26, 0x15	; 21
    47de:	1c 92       	st	X, r1
    47e0:	1e 92       	st	-X, r1
    47e2:	54 97       	sbiw	r26, 0x14	; 20
    47e4:	81 e0       	ldi	r24, 0x01	; 1
    47e6:	f5 01       	movw	r30, r10
    47e8:	84 83       	std	Z+4, r24	; 0x04
    47ea:	01 2b       	or	r16, r17
    47ec:	02 2b       	or	r16, r18
    47ee:	03 2b       	or	r16, r19
    47f0:	09 f0       	breq	.+2      	; 0x47f4 <f_open+0x214>
    47f2:	b5 c2       	rjmp	.+1386   	; 0x4d5e <f_open+0x77e>
    47f4:	ef a5       	ldd	r30, Y+47	; 0x2f
    47f6:	e0 62       	ori	r30, 0x20	; 32
    47f8:	ef a7       	std	Y+47, r30	; 0x2f
    47fa:	f5 01       	movw	r30, r10
    47fc:	82 a5       	ldd	r24, Z+42	; 0x2a
    47fe:	93 a5       	ldd	r25, Z+43	; 0x2b
    4800:	a4 a5       	ldd	r26, Z+44	; 0x2c
    4802:	b5 a5       	ldd	r27, Z+45	; 0x2d
    4804:	ed a5       	ldd	r30, Y+45	; 0x2d
    4806:	fe a5       	ldd	r31, Y+46	; 0x2e
    4808:	82 8f       	std	Z+26, r24	; 0x1a
    480a:	93 8f       	std	Z+27, r25	; 0x1b
    480c:	a4 8f       	std	Z+28, r26	; 0x1c
    480e:	b5 8f       	std	Z+29, r27	; 0x1d
    4810:	37 8e       	std	Z+31, r3	; 0x1f
    4812:	26 8e       	std	Z+30, r2	; 0x1e
    4814:	0f a5       	ldd	r16, Y+47	; 0x2f
    4816:	04 83       	std	Z+4, r16	; 0x04
    4818:	15 82       	std	Z+5, r1	; 0x05
    481a:	d1 01       	movw	r26, r2
    481c:	5a 96       	adiw	r26, 0x1a	; 26
    481e:	8d 91       	ld	r24, X+
    4820:	9c 91       	ld	r25, X
    4822:	5b 97       	sbiw	r26, 0x1b	; 27
    4824:	a0 e0       	ldi	r26, 0x00	; 0
    4826:	b0 e0       	ldi	r27, 0x00	; 0
    4828:	f5 01       	movw	r30, r10
    482a:	20 81       	ld	r18, Z
    482c:	23 30       	cpi	r18, 0x03	; 3
    482e:	09 f4       	brne	.+2      	; 0x4832 <f_open+0x252>
    4830:	7a c2       	rjmp	.+1268   	; 0x4d26 <f_open+0x746>
    4832:	ed a5       	ldd	r30, Y+45	; 0x2d
    4834:	fe a5       	ldd	r31, Y+46	; 0x2e
    4836:	86 87       	std	Z+14, r24	; 0x0e
    4838:	97 87       	std	Z+15, r25	; 0x0f
    483a:	a0 8b       	std	Z+16, r26	; 0x10
    483c:	b1 8b       	std	Z+17, r27	; 0x11
    483e:	f1 01       	movw	r30, r2
    4840:	84 8d       	ldd	r24, Z+28	; 0x1c
    4842:	95 8d       	ldd	r25, Z+29	; 0x1d
    4844:	a6 8d       	ldd	r26, Z+30	; 0x1e
    4846:	b7 8d       	ldd	r27, Z+31	; 0x1f
    4848:	ed a5       	ldd	r30, Y+45	; 0x2d
    484a:	fe a5       	ldd	r31, Y+46	; 0x2e
    484c:	82 87       	std	Z+10, r24	; 0x0a
    484e:	93 87       	std	Z+11, r25	; 0x0b
    4850:	a4 87       	std	Z+12, r26	; 0x0c
    4852:	b5 87       	std	Z+13, r27	; 0x0d
    4854:	16 82       	std	Z+6, r1	; 0x06
    4856:	17 82       	std	Z+7, r1	; 0x07
    4858:	10 86       	std	Z+8, r1	; 0x08
    485a:	11 86       	std	Z+9, r1	; 0x09
    485c:	16 8a       	std	Z+22, r1	; 0x16
    485e:	17 8a       	std	Z+23, r1	; 0x17
    4860:	10 8e       	std	Z+24, r1	; 0x18
    4862:	11 8e       	std	Z+25, r1	; 0x19
    4864:	b1 82       	std	Z+1, r11	; 0x01
    4866:	a0 82       	st	Z, r10
    4868:	d5 01       	movw	r26, r10
    486a:	16 96       	adiw	r26, 0x06	; 6
    486c:	8d 91       	ld	r24, X+
    486e:	9c 91       	ld	r25, X
    4870:	17 97       	sbiw	r26, 0x07	; 7
    4872:	93 83       	std	Z+3, r25	; 0x03
    4874:	82 83       	std	Z+2, r24	; 0x02
    4876:	80 e0       	ldi	r24, 0x00	; 0
    4878:	e1 ce       	rjmp	.-574    	; 0x463c <f_open+0x5c>
    487a:	f8 e0       	ldi	r31, 0x08	; 8
    487c:	af 16       	cp	r10, r31
    487e:	b1 04       	cpc	r11, r1
    4880:	09 f0       	breq	.+2      	; 0x4884 <f_open+0x2a4>
    4882:	68 cf       	rjmp	.-304    	; 0x4754 <f_open+0x174>
    4884:	00 0f       	add	r16, r16
    4886:	00 0f       	add	r16, r16
    4888:	68 e0       	ldi	r22, 0x08	; 8
    488a:	70 e0       	ldi	r23, 0x00	; 0
    488c:	8b e0       	ldi	r24, 0x0B	; 11
    488e:	a8 2e       	mov	r10, r24
    4890:	b1 2c       	mov	r11, r1
    4892:	2e cf       	rjmp	.-420    	; 0x46f0 <f_open+0x110>
    4894:	8f e9       	ldi	r24, 0x9F	; 159
    4896:	81 0f       	add	r24, r17
    4898:	8a 31       	cpi	r24, 0x1A	; 26
    489a:	08 f0       	brcs	.+2      	; 0x489e <f_open+0x2be>
    489c:	54 cf       	rjmp	.-344    	; 0x4746 <f_open+0x166>
    489e:	01 60       	ori	r16, 0x01	; 1
    48a0:	10 52       	subi	r17, 0x20	; 32
    48a2:	51 cf       	rjmp	.-350    	; 0x4746 <f_open+0x166>
    48a4:	c0 2e       	mov	r12, r16
    48a6:	fa 01       	movw	r30, r20
    48a8:	9d 01       	movw	r18, r26
    48aa:	28 0d       	add	r18, r8
    48ac:	39 1d       	adc	r19, r9
    48ae:	3a a7       	std	Y+42, r19	; 0x2a
    48b0:	29 a7       	std	Y+41, r18	; 0x29
    48b2:	80 e0       	ldi	r24, 0x00	; 0
    48b4:	67 2b       	or	r22, r23
    48b6:	09 f4       	brne	.+2      	; 0x48ba <f_open+0x2da>
    48b8:	4d cf       	rjmp	.-358    	; 0x4754 <f_open+0x174>
    48ba:	90 81       	ld	r25, Z
    48bc:	95 3e       	cpi	r25, 0xE5	; 229
    48be:	09 f4       	brne	.+2      	; 0x48c2 <f_open+0x2e2>
    48c0:	87 c0       	rjmp	.+270    	; 0x49d0 <f_open+0x3f0>
    48c2:	18 e0       	ldi	r17, 0x08	; 8
    48c4:	a1 16       	cp	r10, r17
    48c6:	b1 04       	cpc	r11, r1
    48c8:	09 f4       	brne	.+2      	; 0x48cc <f_open+0x2ec>
    48ca:	7f c0       	rjmp	.+254    	; 0x49ca <f_open+0x3ea>
    48cc:	9c 2d       	mov	r25, r12
    48ce:	93 70       	andi	r25, 0x03	; 3
    48d0:	91 30       	cpi	r25, 0x01	; 1
    48d2:	09 f4       	brne	.+2      	; 0x48d6 <f_open+0x2f6>
    48d4:	78 c0       	rjmp	.+240    	; 0x49c6 <f_open+0x3e6>
    48d6:	9c 2d       	mov	r25, r12
    48d8:	9c 70       	andi	r25, 0x0C	; 12
    48da:	94 30       	cpi	r25, 0x04	; 4
    48dc:	09 f4       	brne	.+2      	; 0x48e0 <f_open+0x300>
    48de:	71 c0       	rjmp	.+226    	; 0x49c2 <f_open+0x3e2>
    48e0:	83 87       	std	Z+11, r24	; 0x0b
    48e2:	ce 01       	movw	r24, r28
    48e4:	01 96       	adiw	r24, 0x01	; 1
    48e6:	0e 94 0e 19 	call	0x321c	; 0x321c <dir_sdi.constprop.7>
    48ea:	81 11       	cpse	r24, r1
    48ec:	5c c0       	rjmp	.+184    	; 0x49a6 <f_open+0x3c6>
    48ee:	e9 80       	ldd	r14, Y+1	; 0x01
    48f0:	fa 80       	ldd	r15, Y+2	; 0x02
    48f2:	8f 84       	ldd	r8, Y+15	; 0x0f
    48f4:	98 88       	ldd	r9, Y+16	; 0x10
    48f6:	a9 88       	ldd	r10, Y+17	; 0x11
    48f8:	ba 88       	ldd	r11, Y+18	; 0x12
    48fa:	24 01       	movw	r4, r8
    48fc:	35 01       	movw	r6, r10
    48fe:	d7 01       	movw	r26, r14
    4900:	9a 96       	adiw	r26, 0x2a	; 42
    4902:	8d 90       	ld	r8, X+
    4904:	9d 90       	ld	r9, X+
    4906:	ad 90       	ld	r10, X+
    4908:	bc 90       	ld	r11, X
    490a:	9d 97       	sbiw	r26, 0x2d	; 45
    490c:	84 14       	cp	r8, r4
    490e:	95 04       	cpc	r9, r5
    4910:	a6 04       	cpc	r10, r6
    4912:	b7 04       	cpc	r11, r7
    4914:	09 f4       	brne	.+2      	; 0x4918 <f_open+0x338>
    4916:	77 c0       	rjmp	.+238    	; 0x4a06 <f_open+0x426>
    4918:	14 96       	adiw	r26, 0x04	; 4
    491a:	8c 91       	ld	r24, X
    491c:	17 01       	movw	r2, r14
    491e:	81 11       	cpse	r24, r1
    4920:	0b c1       	rjmp	.+534    	; 0x4b38 <f_open+0x558>
    4922:	3e e2       	ldi	r19, 0x2E	; 46
    4924:	23 0e       	add	r2, r19
    4926:	31 1c       	adc	r3, r1
    4928:	01 e0       	ldi	r16, 0x01	; 1
    492a:	10 e0       	ldi	r17, 0x00	; 0
    492c:	a3 01       	movw	r20, r6
    492e:	92 01       	movw	r18, r4
    4930:	b1 01       	movw	r22, r2
    4932:	d7 01       	movw	r26, r14
    4934:	11 96       	adiw	r26, 0x01	; 1
    4936:	8c 91       	ld	r24, X
    4938:	0e 94 ef 33 	call	0x67de	; 0x67de <disk_read>
    493c:	88 23       	and	r24, r24
    493e:	09 f4       	brne	.+2      	; 0x4942 <f_open+0x362>
    4940:	5b c0       	rjmp	.+182    	; 0x49f8 <f_open+0x418>
    4942:	8f ef       	ldi	r24, 0xFF	; 255
    4944:	9f ef       	ldi	r25, 0xFF	; 255
    4946:	dc 01       	movw	r26, r24
    4948:	f7 01       	movw	r30, r14
    494a:	82 a7       	std	Z+42, r24	; 0x2a
    494c:	93 a7       	std	Z+43, r25	; 0x2b
    494e:	a4 a7       	std	Z+44, r26	; 0x2c
    4950:	b5 a7       	std	Z+45, r27	; 0x2d
    4952:	2b 89       	ldd	r18, Y+19	; 0x13
    4954:	9c 89       	ldd	r25, Y+20	; 0x14
    4956:	81 e0       	ldi	r24, 0x01	; 1
    4958:	22 2e       	mov	r2, r18
    495a:	39 2e       	mov	r3, r25
    495c:	9d a1       	ldd	r25, Y+37	; 0x25
    495e:	9c 71       	andi	r25, 0x1C	; 28
    4960:	09 f0       	breq	.+2      	; 0x4964 <f_open+0x384>
    4962:	ff ce       	rjmp	.-514    	; 0x4762 <f_open+0x182>
    4964:	81 11       	cpse	r24, r1
    4966:	6a ce       	rjmp	.-812    	; 0x463c <f_open+0x5c>
    4968:	d1 01       	movw	r26, r2
    496a:	1b 96       	adiw	r26, 0x0b	; 11
    496c:	4c 91       	ld	r20, X
    496e:	44 fd       	sbrc	r20, 4
    4970:	d8 c1       	rjmp	.+944    	; 0x4d22 <f_open+0x742>
    4972:	bd a1       	ldd	r27, Y+37	; 0x25
    4974:	b1 fd       	sbrc	r27, 1
    4976:	ec c1       	rjmp	.+984    	; 0x4d50 <f_open+0x770>
    4978:	4b 2f       	mov	r20, r27
    497a:	48 70       	andi	r20, 0x08	; 8
    497c:	a9 80       	ldd	r10, Y+1	; 0x01
    497e:	ba 80       	ldd	r11, Y+2	; 0x02
    4980:	41 11       	cpse	r20, r1
    4982:	38 cf       	rjmp	.-400    	; 0x47f4 <f_open+0x214>
    4984:	3a cf       	rjmp	.-396    	; 0x47fa <f_open+0x21a>
    4986:	09 a5       	ldd	r16, Y+41	; 0x29
    4988:	1a a5       	ldd	r17, Y+42	; 0x2a
    498a:	0f 5f       	subi	r16, 0xFF	; 255
    498c:	1f 4f       	sbci	r17, 0xFF	; 255
    498e:	1a a7       	std	Y+42, r17	; 0x2a
    4990:	09 a7       	std	Y+41, r16	; 0x29
    4992:	7f ce       	rjmp	.-770    	; 0x4692 <f_open+0xb2>
    4994:	c0 2e       	mov	r12, r16
    4996:	fa 01       	movw	r30, r20
    4998:	8d 01       	movw	r16, r26
    499a:	08 0d       	add	r16, r8
    499c:	19 1d       	adc	r17, r9
    499e:	1a a7       	std	Y+42, r17	; 0x2a
    49a0:	09 a7       	std	Y+41, r16	; 0x29
    49a2:	84 e0       	ldi	r24, 0x04	; 4
    49a4:	87 cf       	rjmp	.-242    	; 0x48b4 <f_open+0x2d4>
    49a6:	2b 89       	ldd	r18, Y+19	; 0x13
    49a8:	9c 89       	ldd	r25, Y+20	; 0x14
    49aa:	ed 89       	ldd	r30, Y+21	; 0x15
    49ac:	fe 89       	ldd	r31, Y+22	; 0x16
    49ae:	33 85       	ldd	r19, Z+11	; 0x0b
    49b0:	22 2e       	mov	r2, r18
    49b2:	39 2e       	mov	r3, r25
    49b4:	84 30       	cpi	r24, 0x04	; 4
    49b6:	09 f0       	breq	.+2      	; 0x49ba <f_open+0x3da>
    49b8:	d0 ce       	rjmp	.-608    	; 0x475a <f_open+0x17a>
    49ba:	32 fd       	sbrc	r19, 2
    49bc:	0c c0       	rjmp	.+24     	; 0x49d6 <f_open+0x3f6>
    49be:	85 e0       	ldi	r24, 0x05	; 5
    49c0:	cc ce       	rjmp	.-616    	; 0x475a <f_open+0x17a>
    49c2:	88 60       	ori	r24, 0x08	; 8
    49c4:	8d cf       	rjmp	.-230    	; 0x48e0 <f_open+0x300>
    49c6:	80 61       	ori	r24, 0x10	; 16
    49c8:	86 cf       	rjmp	.-244    	; 0x48d6 <f_open+0x2f6>
    49ca:	cc 0c       	add	r12, r12
    49cc:	cc 0c       	add	r12, r12
    49ce:	7e cf       	rjmp	.-260    	; 0x48cc <f_open+0x2ec>
    49d0:	05 e0       	ldi	r16, 0x05	; 5
    49d2:	00 83       	st	Z, r16
    49d4:	76 cf       	rjmp	.-276    	; 0x48c2 <f_open+0x2e2>
    49d6:	84 e0       	ldi	r24, 0x04	; 4
    49d8:	9d a1       	ldd	r25, Y+37	; 0x25
    49da:	9c 71       	andi	r25, 0x1C	; 28
    49dc:	09 f4       	brne	.+2      	; 0x49e0 <f_open+0x400>
    49de:	2e ce       	rjmp	.-932    	; 0x463c <f_open+0x5c>
    49e0:	ce 01       	movw	r24, r28
    49e2:	01 96       	adiw	r24, 0x01	; 1
    49e4:	0e 94 0e 19 	call	0x321c	; 0x321c <dir_sdi.constprop.7>
    49e8:	88 23       	and	r24, r24
    49ea:	09 f4       	brne	.+2      	; 0x49ee <f_open+0x40e>
    49ec:	d5 c1       	rjmp	.+938    	; 0x4d98 <f_open+0x7b8>
    49ee:	84 30       	cpi	r24, 0x04	; 4
    49f0:	09 f0       	breq	.+2      	; 0x49f4 <f_open+0x414>
    49f2:	24 ce       	rjmp	.-952    	; 0x463c <f_open+0x5c>
    49f4:	87 e0       	ldi	r24, 0x07	; 7
    49f6:	22 ce       	rjmp	.-956    	; 0x463c <f_open+0x5c>
    49f8:	d7 01       	movw	r26, r14
    49fa:	9a 96       	adiw	r26, 0x2a	; 42
    49fc:	4d 92       	st	X+, r4
    49fe:	5d 92       	st	X+, r5
    4a00:	6d 92       	st	X+, r6
    4a02:	7c 92       	st	X, r7
    4a04:	9d 97       	sbiw	r26, 0x2d	; 45
    4a06:	ab 89       	ldd	r26, Y+19	; 0x13
    4a08:	bc 89       	ldd	r27, Y+20	; 0x14
    4a0a:	8c 91       	ld	r24, X
    4a0c:	88 23       	and	r24, r24
    4a0e:	09 f4       	brne	.+2      	; 0x4a12 <f_open+0x432>
    4a10:	2c c1       	rjmp	.+600    	; 0x4c6a <f_open+0x68a>
    4a12:	1b 96       	adiw	r26, 0x0b	; 11
    4a14:	4c 91       	ld	r20, X
    4a16:	1b 97       	sbiw	r26, 0x0b	; 11
    4a18:	43 fd       	sbrc	r20, 3
    4a1a:	5e c0       	rjmp	.+188    	; 0x4ad8 <f_open+0x4f8>
    4a1c:	ed 89       	ldd	r30, Y+21	; 0x15
    4a1e:	fe 89       	ldd	r31, Y+22	; 0x16
    4a20:	20 81       	ld	r18, Z
    4a22:	30 e0       	ldi	r19, 0x00	; 0
    4a24:	90 e0       	ldi	r25, 0x00	; 0
    4a26:	28 17       	cp	r18, r24
    4a28:	39 07       	cpc	r19, r25
    4a2a:	09 f0       	breq	.+2      	; 0x4a2e <f_open+0x44e>
    4a2c:	55 c0       	rjmp	.+170    	; 0x4ad8 <f_open+0x4f8>
    4a2e:	91 81       	ldd	r25, Z+1	; 0x01
    4a30:	11 96       	adiw	r26, 0x01	; 1
    4a32:	8c 91       	ld	r24, X
    4a34:	11 97       	sbiw	r26, 0x01	; 1
    4a36:	98 13       	cpse	r25, r24
    4a38:	4f c0       	rjmp	.+158    	; 0x4ad8 <f_open+0x4f8>
    4a3a:	12 96       	adiw	r26, 0x02	; 2
    4a3c:	9c 91       	ld	r25, X
    4a3e:	12 97       	sbiw	r26, 0x02	; 2
    4a40:	82 81       	ldd	r24, Z+2	; 0x02
    4a42:	98 13       	cpse	r25, r24
    4a44:	49 c0       	rjmp	.+146    	; 0x4ad8 <f_open+0x4f8>
    4a46:	13 96       	adiw	r26, 0x03	; 3
    4a48:	9c 91       	ld	r25, X
    4a4a:	13 97       	sbiw	r26, 0x03	; 3
    4a4c:	83 81       	ldd	r24, Z+3	; 0x03
    4a4e:	98 13       	cpse	r25, r24
    4a50:	43 c0       	rjmp	.+134    	; 0x4ad8 <f_open+0x4f8>
    4a52:	14 96       	adiw	r26, 0x04	; 4
    4a54:	9c 91       	ld	r25, X
    4a56:	14 97       	sbiw	r26, 0x04	; 4
    4a58:	84 81       	ldd	r24, Z+4	; 0x04
    4a5a:	98 13       	cpse	r25, r24
    4a5c:	3d c0       	rjmp	.+122    	; 0x4ad8 <f_open+0x4f8>
    4a5e:	15 96       	adiw	r26, 0x05	; 5
    4a60:	9c 91       	ld	r25, X
    4a62:	15 97       	sbiw	r26, 0x05	; 5
    4a64:	85 81       	ldd	r24, Z+5	; 0x05
    4a66:	98 13       	cpse	r25, r24
    4a68:	37 c0       	rjmp	.+110    	; 0x4ad8 <f_open+0x4f8>
    4a6a:	16 96       	adiw	r26, 0x06	; 6
    4a6c:	9c 91       	ld	r25, X
    4a6e:	16 97       	sbiw	r26, 0x06	; 6
    4a70:	86 81       	ldd	r24, Z+6	; 0x06
    4a72:	98 13       	cpse	r25, r24
    4a74:	31 c0       	rjmp	.+98     	; 0x4ad8 <f_open+0x4f8>
    4a76:	17 96       	adiw	r26, 0x07	; 7
    4a78:	9c 91       	ld	r25, X
    4a7a:	17 97       	sbiw	r26, 0x07	; 7
    4a7c:	87 81       	ldd	r24, Z+7	; 0x07
    4a7e:	98 13       	cpse	r25, r24
    4a80:	2b c0       	rjmp	.+86     	; 0x4ad8 <f_open+0x4f8>
    4a82:	18 96       	adiw	r26, 0x08	; 8
    4a84:	9c 91       	ld	r25, X
    4a86:	18 97       	sbiw	r26, 0x08	; 8
    4a88:	80 85       	ldd	r24, Z+8	; 0x08
    4a8a:	98 13       	cpse	r25, r24
    4a8c:	25 c0       	rjmp	.+74     	; 0x4ad8 <f_open+0x4f8>
    4a8e:	19 96       	adiw	r26, 0x09	; 9
    4a90:	9c 91       	ld	r25, X
    4a92:	19 97       	sbiw	r26, 0x09	; 9
    4a94:	81 85       	ldd	r24, Z+9	; 0x09
    4a96:	98 13       	cpse	r25, r24
    4a98:	1f c0       	rjmp	.+62     	; 0x4ad8 <f_open+0x4f8>
    4a9a:	1a 96       	adiw	r26, 0x0a	; 10
    4a9c:	9c 91       	ld	r25, X
    4a9e:	1a 97       	sbiw	r26, 0x0a	; 10
    4aa0:	82 85       	ldd	r24, Z+10	; 0x0a
    4aa2:	98 13       	cpse	r25, r24
    4aa4:	19 c0       	rjmp	.+50     	; 0x4ad8 <f_open+0x4f8>
    4aa6:	9f 01       	movw	r18, r30
    4aa8:	83 85       	ldd	r24, Z+11	; 0x0b
    4aaa:	82 fd       	sbrc	r24, 2
    4aac:	71 c2       	rjmp	.+1250   	; 0x4f90 <f_open+0x9b0>
    4aae:	44 ff       	sbrs	r20, 4
    4ab0:	35 c1       	rjmp	.+618    	; 0x4d1c <f_open+0x73c>
    4ab2:	5a 96       	adiw	r26, 0x1a	; 26
    4ab4:	4d 91       	ld	r20, X+
    4ab6:	5c 91       	ld	r21, X
    4ab8:	5b 97       	sbiw	r26, 0x1b	; 27
    4aba:	60 e0       	ldi	r22, 0x00	; 0
    4abc:	70 e0       	ldi	r23, 0x00	; 0
    4abe:	89 81       	ldd	r24, Y+1	; 0x01
    4ac0:	9a 81       	ldd	r25, Y+2	; 0x02
    4ac2:	fc 01       	movw	r30, r24
    4ac4:	80 81       	ld	r24, Z
    4ac6:	83 30       	cpi	r24, 0x03	; 3
    4ac8:	09 f4       	brne	.+2      	; 0x4acc <f_open+0x4ec>
    4aca:	9d c0       	rjmp	.+314    	; 0x4c06 <f_open+0x626>
    4acc:	4f 83       	std	Y+7, r20	; 0x07
    4ace:	58 87       	std	Y+8, r21	; 0x08
    4ad0:	69 87       	std	Y+9, r22	; 0x09
    4ad2:	7a 87       	std	Y+10, r23	; 0x0a
    4ad4:	f9 01       	movw	r30, r18
    4ad6:	ea cd       	rjmp	.-1068   	; 0x46ac <f_open+0xcc>
    4ad8:	0d 81       	ldd	r16, Y+5	; 0x05
    4ada:	1e 81       	ldd	r17, Y+6	; 0x06
    4adc:	0f 5f       	subi	r16, 0xFF	; 255
    4ade:	1f 4f       	sbci	r17, 0xFF	; 255
    4ae0:	29 f4       	brne	.+10     	; 0x4aec <f_open+0x50c>
    4ae2:	1d 01       	movw	r2, r26
    4ae4:	2a 2f       	mov	r18, r26
    4ae6:	93 2d       	mov	r25, r3
    4ae8:	84 e0       	ldi	r24, 0x04	; 4
    4aea:	5f cf       	rjmp	.-322    	; 0x49aa <f_open+0x3ca>
    4aec:	4f 84       	ldd	r4, Y+15	; 0x0f
    4aee:	58 88       	ldd	r5, Y+16	; 0x10
    4af0:	69 88       	ldd	r6, Y+17	; 0x11
    4af2:	7a 88       	ldd	r7, Y+18	; 0x12
    4af4:	41 14       	cp	r4, r1
    4af6:	51 04       	cpc	r5, r1
    4af8:	61 04       	cpc	r6, r1
    4afa:	71 04       	cpc	r7, r1
    4afc:	91 f3       	breq	.-28     	; 0x4ae2 <f_open+0x502>
    4afe:	68 01       	movw	r12, r16
    4b00:	ff e0       	ldi	r31, 0x0F	; 15
    4b02:	cf 22       	and	r12, r31
    4b04:	dd 24       	eor	r13, r13
    4b06:	c1 14       	cp	r12, r1
    4b08:	d1 04       	cpc	r13, r1
    4b0a:	09 f4       	brne	.+2      	; 0x4b0e <f_open+0x52e>
    4b0c:	60 c0       	rjmp	.+192    	; 0x4bce <f_open+0x5ee>
    4b0e:	e9 80       	ldd	r14, Y+1	; 0x01
    4b10:	fa 80       	ldd	r15, Y+2	; 0x02
    4b12:	1e 83       	std	Y+6, r17	; 0x06
    4b14:	0d 83       	std	Y+5, r16	; 0x05
    4b16:	cc 0c       	add	r12, r12
    4b18:	dd 1c       	adc	r13, r13
    4b1a:	c2 94       	swap	r12
    4b1c:	d2 94       	swap	r13
    4b1e:	00 ef       	ldi	r16, 0xF0	; 240
    4b20:	d0 22       	and	r13, r16
    4b22:	dc 24       	eor	r13, r12
    4b24:	c0 22       	and	r12, r16
    4b26:	dc 24       	eor	r13, r12
    4b28:	fe e2       	ldi	r31, 0x2E	; 46
    4b2a:	cf 0e       	add	r12, r31
    4b2c:	d1 1c       	adc	r13, r1
    4b2e:	ce 0c       	add	r12, r14
    4b30:	df 1c       	adc	r13, r15
    4b32:	dc 8a       	std	Y+20, r13	; 0x14
    4b34:	cb 8a       	std	Y+19, r12	; 0x13
    4b36:	e3 ce       	rjmp	.-570    	; 0x48fe <f_open+0x31e>
    4b38:	be e2       	ldi	r27, 0x2E	; 46
    4b3a:	2b 0e       	add	r2, r27
    4b3c:	31 1c       	adc	r3, r1
    4b3e:	01 e0       	ldi	r16, 0x01	; 1
    4b40:	10 e0       	ldi	r17, 0x00	; 0
    4b42:	a5 01       	movw	r20, r10
    4b44:	94 01       	movw	r18, r8
    4b46:	b1 01       	movw	r22, r2
    4b48:	f7 01       	movw	r30, r14
    4b4a:	81 81       	ldd	r24, Z+1	; 0x01
    4b4c:	0e 94 74 34 	call	0x68e8	; 0x68e8 <disk_write>
    4b50:	81 11       	cpse	r24, r1
    4b52:	ff ce       	rjmp	.-514    	; 0x4952 <f_open+0x372>
    4b54:	d7 01       	movw	r26, r14
    4b56:	14 96       	adiw	r26, 0x04	; 4
    4b58:	1c 92       	st	X, r1
    4b5a:	14 97       	sbiw	r26, 0x04	; 4
    4b5c:	56 96       	adiw	r26, 0x16	; 22
    4b5e:	8d 91       	ld	r24, X+
    4b60:	9d 91       	ld	r25, X+
    4b62:	0d 90       	ld	r0, X+
    4b64:	bc 91       	ld	r27, X
    4b66:	a0 2d       	mov	r26, r0
    4b68:	f7 01       	movw	r30, r14
    4b6a:	46 8d       	ldd	r20, Z+30	; 0x1e
    4b6c:	57 8d       	ldd	r21, Z+31	; 0x1f
    4b6e:	60 a1       	ldd	r22, Z+32	; 0x20
    4b70:	71 a1       	ldd	r23, Z+33	; 0x21
    4b72:	95 01       	movw	r18, r10
    4b74:	84 01       	movw	r16, r8
    4b76:	04 1b       	sub	r16, r20
    4b78:	15 0b       	sbc	r17, r21
    4b7a:	26 0b       	sbc	r18, r22
    4b7c:	37 0b       	sbc	r19, r23
    4b7e:	08 17       	cp	r16, r24
    4b80:	19 07       	cpc	r17, r25
    4b82:	2a 07       	cpc	r18, r26
    4b84:	3b 07       	cpc	r19, r27
    4b86:	08 f0       	brcs	.+2      	; 0x4b8a <f_open+0x5aa>
    4b88:	cf ce       	rjmp	.-610    	; 0x4928 <f_open+0x348>
    4b8a:	c3 80       	ldd	r12, Z+3	; 0x03
    4b8c:	d1 2c       	mov	r13, r1
    4b8e:	12 e0       	ldi	r17, 0x02	; 2
    4b90:	c1 16       	cp	r12, r17
    4b92:	d1 04       	cpc	r13, r1
    4b94:	30 f4       	brcc	.+12     	; 0x4ba2 <f_open+0x5c2>
    4b96:	c8 ce       	rjmp	.-624    	; 0x4928 <f_open+0x348>
    4b98:	f7 01       	movw	r30, r14
    4b9a:	86 89       	ldd	r24, Z+22	; 0x16
    4b9c:	97 89       	ldd	r25, Z+23	; 0x17
    4b9e:	a0 8d       	ldd	r26, Z+24	; 0x18
    4ba0:	b1 8d       	ldd	r27, Z+25	; 0x19
    4ba2:	88 0e       	add	r8, r24
    4ba4:	99 1e       	adc	r9, r25
    4ba6:	aa 1e       	adc	r10, r26
    4ba8:	bb 1e       	adc	r11, r27
    4baa:	01 e0       	ldi	r16, 0x01	; 1
    4bac:	10 e0       	ldi	r17, 0x00	; 0
    4bae:	a5 01       	movw	r20, r10
    4bb0:	94 01       	movw	r18, r8
    4bb2:	b1 01       	movw	r22, r2
    4bb4:	d7 01       	movw	r26, r14
    4bb6:	11 96       	adiw	r26, 0x01	; 1
    4bb8:	8c 91       	ld	r24, X
    4bba:	0e 94 74 34 	call	0x68e8	; 0x68e8 <disk_write>
    4bbe:	b1 e0       	ldi	r27, 0x01	; 1
    4bc0:	cb 1a       	sub	r12, r27
    4bc2:	d1 08       	sbc	r13, r1
    4bc4:	e1 e0       	ldi	r30, 0x01	; 1
    4bc6:	ce 16       	cp	r12, r30
    4bc8:	d1 04       	cpc	r13, r1
    4bca:	31 f7       	brne	.-52     	; 0x4b98 <f_open+0x5b8>
    4bcc:	ad ce       	rjmp	.-678    	; 0x4928 <f_open+0x348>
    4bce:	2f ef       	ldi	r18, 0xFF	; 255
    4bd0:	42 1a       	sub	r4, r18
    4bd2:	52 0a       	sbc	r5, r18
    4bd4:	62 0a       	sbc	r6, r18
    4bd6:	72 0a       	sbc	r7, r18
    4bd8:	4f 86       	std	Y+15, r4	; 0x0f
    4bda:	58 8a       	std	Y+16, r5	; 0x10
    4bdc:	69 8a       	std	Y+17, r6	; 0x11
    4bde:	7a 8a       	std	Y+18, r7	; 0x12
    4be0:	4b 85       	ldd	r20, Y+11	; 0x0b
    4be2:	5c 85       	ldd	r21, Y+12	; 0x0c
    4be4:	6d 85       	ldd	r22, Y+13	; 0x0d
    4be6:	7e 85       	ldd	r23, Y+14	; 0x0e
    4be8:	e9 80       	ldd	r14, Y+1	; 0x01
    4bea:	fa 80       	ldd	r15, Y+2	; 0x02
    4bec:	f7 01       	movw	r30, r14
    4bee:	41 15       	cp	r20, r1
    4bf0:	51 05       	cpc	r21, r1
    4bf2:	61 05       	cpc	r22, r1
    4bf4:	71 05       	cpc	r23, r1
    4bf6:	a9 f4       	brne	.+42     	; 0x4c22 <f_open+0x642>
    4bf8:	80 85       	ldd	r24, Z+8	; 0x08
    4bfa:	91 85       	ldd	r25, Z+9	; 0x09
    4bfc:	08 17       	cp	r16, r24
    4bfe:	19 07       	cpc	r17, r25
    4c00:	08 f0       	brcs	.+2      	; 0x4c04 <f_open+0x624>
    4c02:	6f cf       	rjmp	.-290    	; 0x4ae2 <f_open+0x502>
    4c04:	86 cf       	rjmp	.-244    	; 0x4b12 <f_open+0x532>
    4c06:	54 96       	adiw	r26, 0x14	; 20
    4c08:	8d 91       	ld	r24, X+
    4c0a:	9c 91       	ld	r25, X
    4c0c:	55 97       	sbiw	r26, 0x15	; 21
    4c0e:	a0 e0       	ldi	r26, 0x00	; 0
    4c10:	b0 e0       	ldi	r27, 0x00	; 0
    4c12:	dc 01       	movw	r26, r24
    4c14:	99 27       	eor	r25, r25
    4c16:	88 27       	eor	r24, r24
    4c18:	48 2b       	or	r20, r24
    4c1a:	59 2b       	or	r21, r25
    4c1c:	6a 2b       	or	r22, r26
    4c1e:	7b 2b       	or	r23, r27
    4c20:	55 cf       	rjmp	.-342    	; 0x4acc <f_open+0x4ec>
    4c22:	82 81       	ldd	r24, Z+2	; 0x02
    4c24:	90 e0       	ldi	r25, 0x00	; 0
    4c26:	9c 01       	movw	r18, r24
    4c28:	21 50       	subi	r18, 0x01	; 1
    4c2a:	31 09       	sbc	r19, r1
    4c2c:	c8 01       	movw	r24, r16
    4c2e:	92 95       	swap	r25
    4c30:	82 95       	swap	r24
    4c32:	8f 70       	andi	r24, 0x0F	; 15
    4c34:	89 27       	eor	r24, r25
    4c36:	9f 70       	andi	r25, 0x0F	; 15
    4c38:	89 27       	eor	r24, r25
    4c3a:	82 23       	and	r24, r18
    4c3c:	93 23       	and	r25, r19
    4c3e:	89 2b       	or	r24, r25
    4c40:	09 f0       	breq	.+2      	; 0x4c44 <f_open+0x664>
    4c42:	67 cf       	rjmp	.-306    	; 0x4b12 <f_open+0x532>
    4c44:	42 30       	cpi	r20, 0x02	; 2
    4c46:	51 05       	cpc	r21, r1
    4c48:	61 05       	cpc	r22, r1
    4c4a:	71 05       	cpc	r23, r1
    4c4c:	48 f0       	brcs	.+18     	; 0x4c60 <f_open+0x680>
    4c4e:	82 88       	ldd	r8, Z+18	; 0x12
    4c50:	93 88       	ldd	r9, Z+19	; 0x13
    4c52:	a4 88       	ldd	r10, Z+20	; 0x14
    4c54:	b5 88       	ldd	r11, Z+21	; 0x15
    4c56:	48 15       	cp	r20, r8
    4c58:	59 05       	cpc	r21, r9
    4c5a:	6a 05       	cpc	r22, r10
    4c5c:	7b 05       	cpc	r23, r11
    4c5e:	a0 f0       	brcs	.+40     	; 0x4c88 <f_open+0x6a8>
    4c60:	1d 01       	movw	r2, r26
    4c62:	2a 2f       	mov	r18, r26
    4c64:	93 2d       	mov	r25, r3
    4c66:	82 e0       	ldi	r24, 0x02	; 2
    4c68:	77 ce       	rjmp	.-786    	; 0x4958 <f_open+0x378>
    4c6a:	1d 01       	movw	r2, r26
    4c6c:	ed 89       	ldd	r30, Y+21	; 0x15
    4c6e:	fe 89       	ldd	r31, Y+22	; 0x16
    4c70:	33 85       	ldd	r19, Z+11	; 0x0b
    4c72:	a3 ce       	rjmp	.-698    	; 0x49ba <f_open+0x3da>
    4c74:	ce 01       	movw	r24, r28
    4c76:	01 96       	adiw	r24, 0x01	; 1
    4c78:	0e 94 0e 19 	call	0x321c	; 0x321c <dir_sdi.constprop.7>
    4c7c:	1c 8a       	std	Y+20, r1	; 0x14
    4c7e:	1b 8a       	std	Y+19, r1	; 0x13
    4c80:	81 11       	cpse	r24, r1
    4c82:	8c c2       	rjmp	.+1304   	; 0x519c <f_open+0xbbc>
    4c84:	86 e0       	ldi	r24, 0x06	; 6
    4c86:	da cc       	rjmp	.-1612   	; 0x463c <f_open+0x5c>
    4c88:	c7 01       	movw	r24, r14
    4c8a:	0e 94 23 16 	call	0x2c46	; 0x2c46 <get_fat.part.4>
    4c8e:	62 30       	cpi	r22, 0x02	; 2
    4c90:	71 05       	cpc	r23, r1
    4c92:	81 05       	cpc	r24, r1
    4c94:	91 05       	cpc	r25, r1
    4c96:	08 f4       	brcc	.+2      	; 0x4c9a <f_open+0x6ba>
    4c98:	89 c2       	rjmp	.+1298   	; 0x51ac <f_open+0xbcc>
    4c9a:	6f 3f       	cpi	r22, 0xFF	; 255
    4c9c:	ff ef       	ldi	r31, 0xFF	; 255
    4c9e:	7f 07       	cpc	r23, r31
    4ca0:	8f 07       	cpc	r24, r31
    4ca2:	9f 07       	cpc	r25, r31
    4ca4:	09 f4       	brne	.+2      	; 0x4ca8 <f_open+0x6c8>
    4ca6:	4c c0       	rjmp	.+152    	; 0x4d40 <f_open+0x760>
    4ca8:	e9 80       	ldd	r14, Y+1	; 0x01
    4caa:	fa 80       	ldd	r15, Y+2	; 0x02
    4cac:	d7 01       	movw	r26, r14
    4cae:	52 96       	adiw	r26, 0x12	; 18
    4cb0:	8d 90       	ld	r8, X+
    4cb2:	9d 90       	ld	r9, X+
    4cb4:	ad 90       	ld	r10, X+
    4cb6:	bc 90       	ld	r11, X
    4cb8:	55 97       	sbiw	r26, 0x15	; 21
    4cba:	68 15       	cp	r22, r8
    4cbc:	79 05       	cpc	r23, r9
    4cbe:	8a 05       	cpc	r24, r10
    4cc0:	9b 05       	cpc	r25, r11
    4cc2:	40 f5       	brcc	.+80     	; 0x4d14 <f_open+0x734>
    4cc4:	6b 87       	std	Y+11, r22	; 0x0b
    4cc6:	7c 87       	std	Y+12, r23	; 0x0c
    4cc8:	8d 87       	std	Y+13, r24	; 0x0d
    4cca:	9e 87       	std	Y+14, r25	; 0x0e
    4ccc:	9b 01       	movw	r18, r22
    4cce:	ac 01       	movw	r20, r24
    4cd0:	22 50       	subi	r18, 0x02	; 2
    4cd2:	31 09       	sbc	r19, r1
    4cd4:	41 09       	sbc	r20, r1
    4cd6:	51 09       	sbc	r21, r1
    4cd8:	b2 e0       	ldi	r27, 0x02	; 2
    4cda:	8b 1a       	sub	r8, r27
    4cdc:	91 08       	sbc	r9, r1
    4cde:	a1 08       	sbc	r10, r1
    4ce0:	b1 08       	sbc	r11, r1
    4ce2:	28 15       	cp	r18, r8
    4ce4:	39 05       	cpc	r19, r9
    4ce6:	4a 05       	cpc	r20, r10
    4ce8:	5b 05       	cpc	r21, r11
    4cea:	70 f5       	brcc	.+92     	; 0x4d48 <f_open+0x768>
    4cec:	f7 01       	movw	r30, r14
    4cee:	a2 81       	ldd	r26, Z+2	; 0x02
    4cf0:	b0 e0       	ldi	r27, 0x00	; 0
    4cf2:	0e 94 68 3c 	call	0x78d0	; 0x78d0 <__muluhisi3>
    4cf6:	86 a0       	ldd	r8, Z+38	; 0x26
    4cf8:	97 a0       	ldd	r9, Z+39	; 0x27
    4cfa:	a0 a4       	ldd	r10, Z+40	; 0x28
    4cfc:	b1 a4       	ldd	r11, Z+41	; 0x29
    4cfe:	2b 01       	movw	r4, r22
    4d00:	3c 01       	movw	r6, r24
    4d02:	48 0c       	add	r4, r8
    4d04:	59 1c       	adc	r5, r9
    4d06:	6a 1c       	adc	r6, r10
    4d08:	7b 1c       	adc	r7, r11
    4d0a:	4f 86       	std	Y+15, r4	; 0x0f
    4d0c:	58 8a       	std	Y+16, r5	; 0x10
    4d0e:	69 8a       	std	Y+17, r6	; 0x11
    4d10:	7a 8a       	std	Y+18, r7	; 0x12
    4d12:	ff ce       	rjmp	.-514    	; 0x4b12 <f_open+0x532>
    4d14:	2b 89       	ldd	r18, Y+19	; 0x13
    4d16:	9c 89       	ldd	r25, Y+20	; 0x14
    4d18:	84 e0       	ldi	r24, 0x04	; 4
    4d1a:	47 ce       	rjmp	.-882    	; 0x49aa <f_open+0x3ca>
    4d1c:	1d 01       	movw	r2, r26
    4d1e:	85 e0       	ldi	r24, 0x05	; 5
    4d20:	1c cd       	rjmp	.-1480   	; 0x475a <f_open+0x17a>
    4d22:	84 e0       	ldi	r24, 0x04	; 4
    4d24:	8b cc       	rjmp	.-1770   	; 0x463c <f_open+0x5c>
    4d26:	f1 01       	movw	r30, r2
    4d28:	44 89       	ldd	r20, Z+20	; 0x14
    4d2a:	55 89       	ldd	r21, Z+21	; 0x15
    4d2c:	60 e0       	ldi	r22, 0x00	; 0
    4d2e:	70 e0       	ldi	r23, 0x00	; 0
    4d30:	ba 01       	movw	r22, r20
    4d32:	55 27       	eor	r21, r21
    4d34:	44 27       	eor	r20, r20
    4d36:	84 2b       	or	r24, r20
    4d38:	95 2b       	or	r25, r21
    4d3a:	a6 2b       	or	r26, r22
    4d3c:	b7 2b       	or	r27, r23
    4d3e:	79 cd       	rjmp	.-1294   	; 0x4832 <f_open+0x252>
    4d40:	2b 89       	ldd	r18, Y+19	; 0x13
    4d42:	9c 89       	ldd	r25, Y+20	; 0x14
    4d44:	81 e0       	ldi	r24, 0x01	; 1
    4d46:	31 ce       	rjmp	.-926    	; 0x49aa <f_open+0x3ca>
    4d48:	41 2c       	mov	r4, r1
    4d4a:	51 2c       	mov	r5, r1
    4d4c:	32 01       	movw	r6, r4
    4d4e:	dd cf       	rjmp	.-70     	; 0x4d0a <f_open+0x72a>
    4d50:	40 fd       	sbrc	r20, 0
    4d52:	50 ce       	rjmp	.-864    	; 0x49f4 <f_open+0x414>
    4d54:	4d a1       	ldd	r20, Y+37	; 0x25
    4d56:	48 70       	andi	r20, 0x08	; 8
    4d58:	a9 80       	ldd	r10, Y+1	; 0x01
    4d5a:	ba 80       	ldd	r11, Y+2	; 0x02
    4d5c:	11 ce       	rjmp	.-990    	; 0x4980 <f_open+0x3a0>
    4d5e:	22 a5       	ldd	r18, Z+42	; 0x2a
    4d60:	33 a5       	ldd	r19, Z+43	; 0x2b
    4d62:	44 a5       	ldd	r20, Z+44	; 0x2c
    4d64:	55 a5       	ldd	r21, Z+45	; 0x2d
    4d66:	2c af       	std	Y+60, r18	; 0x3c
    4d68:	3d af       	std	Y+61, r19	; 0x3d
    4d6a:	4e af       	std	Y+62, r20	; 0x3e
    4d6c:	5f af       	std	Y+63, r21	; 0x3f
    4d6e:	0d a1       	ldd	r16, Y+37	; 0x25
    4d70:	1e a1       	ldd	r17, Y+38	; 0x26
    4d72:	2f a1       	ldd	r18, Y+39	; 0x27
    4d74:	38 a5       	ldd	r19, Y+40	; 0x28
    4d76:	02 30       	cpi	r16, 0x02	; 2
    4d78:	11 05       	cpc	r17, r1
    4d7a:	21 05       	cpc	r18, r1
    4d7c:	31 05       	cpc	r19, r1
    4d7e:	50 f0       	brcs	.+20     	; 0x4d94 <f_open+0x7b4>
    4d80:	82 89       	ldd	r24, Z+18	; 0x12
    4d82:	93 89       	ldd	r25, Z+19	; 0x13
    4d84:	a4 89       	ldd	r26, Z+20	; 0x14
    4d86:	b5 89       	ldd	r27, Z+21	; 0x15
    4d88:	08 17       	cp	r16, r24
    4d8a:	19 07       	cpc	r17, r25
    4d8c:	2a 07       	cpc	r18, r26
    4d8e:	3b 07       	cpc	r19, r27
    4d90:	08 f4       	brcc	.+2      	; 0x4d94 <f_open+0x7b4>
    4d92:	10 c2       	rjmp	.+1056   	; 0x51b4 <f_open+0xbd4>
    4d94:	82 e0       	ldi	r24, 0x02	; 2
    4d96:	52 cc       	rjmp	.-1884   	; 0x463c <f_open+0x5c>
    4d98:	89 80       	ldd	r8, Y+1	; 0x01
    4d9a:	9a 80       	ldd	r9, Y+2	; 0x02
    4d9c:	4f 84       	ldd	r4, Y+15	; 0x0f
    4d9e:	58 88       	ldd	r5, Y+16	; 0x10
    4da0:	69 88       	ldd	r6, Y+17	; 0x11
    4da2:	7a 88       	ldd	r7, Y+18	; 0x12
    4da4:	d4 01       	movw	r26, r8
    4da6:	9a 96       	adiw	r26, 0x2a	; 42
    4da8:	ad 90       	ld	r10, X+
    4daa:	bd 90       	ld	r11, X+
    4dac:	cd 90       	ld	r12, X+
    4dae:	dc 90       	ld	r13, X
    4db0:	9d 97       	sbiw	r26, 0x2d	; 45
    4db2:	a4 14       	cp	r10, r4
    4db4:	b5 04       	cpc	r11, r5
    4db6:	c6 04       	cpc	r12, r6
    4db8:	d7 04       	cpc	r13, r7
    4dba:	11 f1       	breq	.+68     	; 0x4e00 <f_open+0x820>
    4dbc:	14 96       	adiw	r26, 0x04	; 4
    4dbe:	8c 91       	ld	r24, X
    4dc0:	14 01       	movw	r2, r8
    4dc2:	be e2       	ldi	r27, 0x2E	; 46
    4dc4:	2b 0e       	add	r2, r27
    4dc6:	31 1c       	adc	r3, r1
    4dc8:	81 11       	cpse	r24, r1
    4dca:	9a c0       	rjmp	.+308    	; 0x4f00 <f_open+0x920>
    4dcc:	01 e0       	ldi	r16, 0x01	; 1
    4dce:	10 e0       	ldi	r17, 0x00	; 0
    4dd0:	a3 01       	movw	r20, r6
    4dd2:	92 01       	movw	r18, r4
    4dd4:	b1 01       	movw	r22, r2
    4dd6:	f4 01       	movw	r30, r8
    4dd8:	81 81       	ldd	r24, Z+1	; 0x01
    4dda:	0e 94 ef 33 	call	0x67de	; 0x67de <disk_read>
    4dde:	88 23       	and	r24, r24
    4de0:	51 f0       	breq	.+20     	; 0x4df6 <f_open+0x816>
    4de2:	8f ef       	ldi	r24, 0xFF	; 255
    4de4:	9f ef       	ldi	r25, 0xFF	; 255
    4de6:	dc 01       	movw	r26, r24
    4de8:	f4 01       	movw	r30, r8
    4dea:	82 a7       	std	Z+42, r24	; 0x2a
    4dec:	93 a7       	std	Z+43, r25	; 0x2b
    4dee:	a4 a7       	std	Z+44, r26	; 0x2c
    4df0:	b5 a7       	std	Z+45, r27	; 0x2d
    4df2:	81 e0       	ldi	r24, 0x01	; 1
    4df4:	23 cc       	rjmp	.-1978   	; 0x463c <f_open+0x5c>
    4df6:	f4 01       	movw	r30, r8
    4df8:	42 a6       	std	Z+42, r4	; 0x2a
    4dfa:	53 a6       	std	Z+43, r5	; 0x2b
    4dfc:	64 a6       	std	Z+44, r6	; 0x2c
    4dfe:	75 a6       	std	Z+45, r7	; 0x2d
    4e00:	eb 89       	ldd	r30, Y+19	; 0x13
    4e02:	fc 89       	ldd	r31, Y+20	; 0x14
    4e04:	80 81       	ld	r24, Z
    4e06:	85 3e       	cpi	r24, 0xE5	; 229
    4e08:	11 f0       	breq	.+4      	; 0x4e0e <f_open+0x82e>
    4e0a:	81 11       	cpse	r24, r1
    4e0c:	32 c0       	rjmp	.+100    	; 0x4e72 <f_open+0x892>
    4e0e:	8f 84       	ldd	r8, Y+15	; 0x0f
    4e10:	98 88       	ldd	r9, Y+16	; 0x10
    4e12:	a9 88       	ldd	r10, Y+17	; 0x11
    4e14:	ba 88       	ldd	r11, Y+18	; 0x12
    4e16:	e9 80       	ldd	r14, Y+1	; 0x01
    4e18:	fa 80       	ldd	r15, Y+2	; 0x02
    4e1a:	d7 01       	movw	r26, r14
    4e1c:	9a 96       	adiw	r26, 0x2a	; 42
    4e1e:	4d 90       	ld	r4, X+
    4e20:	5d 90       	ld	r5, X+
    4e22:	6d 90       	ld	r6, X+
    4e24:	7c 90       	ld	r7, X
    4e26:	9d 97       	sbiw	r26, 0x2d	; 45
    4e28:	84 14       	cp	r8, r4
    4e2a:	95 04       	cpc	r9, r5
    4e2c:	a6 04       	cpc	r10, r6
    4e2e:	b7 04       	cpc	r11, r7
    4e30:	09 f4       	brne	.+2      	; 0x4e34 <f_open+0x854>
    4e32:	ca c0       	rjmp	.+404    	; 0x4fc8 <f_open+0x9e8>
    4e34:	14 96       	adiw	r26, 0x04	; 4
    4e36:	8c 91       	ld	r24, X
    4e38:	17 01       	movw	r2, r14
    4e3a:	81 11       	cpse	r24, r1
    4e3c:	fa c0       	rjmp	.+500    	; 0x5032 <f_open+0xa52>
    4e3e:	fe e2       	ldi	r31, 0x2E	; 46
    4e40:	2f 0e       	add	r2, r31
    4e42:	31 1c       	adc	r3, r1
    4e44:	01 e0       	ldi	r16, 0x01	; 1
    4e46:	10 e0       	ldi	r17, 0x00	; 0
    4e48:	a5 01       	movw	r20, r10
    4e4a:	94 01       	movw	r18, r8
    4e4c:	b1 01       	movw	r22, r2
    4e4e:	d7 01       	movw	r26, r14
    4e50:	11 96       	adiw	r26, 0x01	; 1
    4e52:	8c 91       	ld	r24, X
    4e54:	0e 94 ef 33 	call	0x67de	; 0x67de <disk_read>
    4e58:	88 23       	and	r24, r24
    4e5a:	09 f4       	brne	.+2      	; 0x4e5e <f_open+0x87e>
    4e5c:	ac c0       	rjmp	.+344    	; 0x4fb6 <f_open+0x9d6>
    4e5e:	8f ef       	ldi	r24, 0xFF	; 255
    4e60:	9f ef       	ldi	r25, 0xFF	; 255
    4e62:	dc 01       	movw	r26, r24
    4e64:	f7 01       	movw	r30, r14
    4e66:	82 a7       	std	Z+42, r24	; 0x2a
    4e68:	93 a7       	std	Z+43, r25	; 0x2b
    4e6a:	a4 a7       	std	Z+44, r26	; 0x2c
    4e6c:	b5 a7       	std	Z+45, r27	; 0x2d
    4e6e:	81 e0       	ldi	r24, 0x01	; 1
    4e70:	e5 cb       	rjmp	.-2102   	; 0x463c <f_open+0x5c>
    4e72:	0d 81       	ldd	r16, Y+5	; 0x05
    4e74:	1e 81       	ldd	r17, Y+6	; 0x06
    4e76:	0f 5f       	subi	r16, 0xFF	; 255
    4e78:	1f 4f       	sbci	r17, 0xFF	; 255
    4e7a:	09 f4       	brne	.+2      	; 0x4e7e <f_open+0x89e>
    4e7c:	bb cd       	rjmp	.-1162   	; 0x49f4 <f_open+0x414>
    4e7e:	4f 84       	ldd	r4, Y+15	; 0x0f
    4e80:	58 88       	ldd	r5, Y+16	; 0x10
    4e82:	69 88       	ldd	r6, Y+17	; 0x11
    4e84:	7a 88       	ldd	r7, Y+18	; 0x12
    4e86:	41 14       	cp	r4, r1
    4e88:	51 04       	cpc	r5, r1
    4e8a:	61 04       	cpc	r6, r1
    4e8c:	71 04       	cpc	r7, r1
    4e8e:	09 f4       	brne	.+2      	; 0x4e92 <f_open+0x8b2>
    4e90:	b1 cd       	rjmp	.-1182   	; 0x49f4 <f_open+0x414>
    4e92:	58 01       	movw	r10, r16
    4e94:	ff e0       	ldi	r31, 0x0F	; 15
    4e96:	af 22       	and	r10, r31
    4e98:	bb 24       	eor	r11, r11
    4e9a:	a1 14       	cp	r10, r1
    4e9c:	b1 04       	cpc	r11, r1
    4e9e:	09 f0       	breq	.+2      	; 0x4ea2 <f_open+0x8c2>
    4ea0:	87 c0       	rjmp	.+270    	; 0x4fb0 <f_open+0x9d0>
    4ea2:	2f ef       	ldi	r18, 0xFF	; 255
    4ea4:	42 1a       	sub	r4, r18
    4ea6:	52 0a       	sbc	r5, r18
    4ea8:	62 0a       	sbc	r6, r18
    4eaa:	72 0a       	sbc	r7, r18
    4eac:	4f 86       	std	Y+15, r4	; 0x0f
    4eae:	58 8a       	std	Y+16, r5	; 0x10
    4eb0:	69 8a       	std	Y+17, r6	; 0x11
    4eb2:	7a 8a       	std	Y+18, r7	; 0x12
    4eb4:	4b 85       	ldd	r20, Y+11	; 0x0b
    4eb6:	5c 85       	ldd	r21, Y+12	; 0x0c
    4eb8:	6d 85       	ldd	r22, Y+13	; 0x0d
    4eba:	7e 85       	ldd	r23, Y+14	; 0x0e
    4ebc:	89 80       	ldd	r8, Y+1	; 0x01
    4ebe:	9a 80       	ldd	r9, Y+2	; 0x02
    4ec0:	41 15       	cp	r20, r1
    4ec2:	51 05       	cpc	r21, r1
    4ec4:	61 05       	cpc	r22, r1
    4ec6:	71 05       	cpc	r23, r1
    4ec8:	09 f0       	breq	.+2      	; 0x4ecc <f_open+0x8ec>
    4eca:	ff c0       	rjmp	.+510    	; 0x50ca <f_open+0xaea>
    4ecc:	d4 01       	movw	r26, r8
    4ece:	18 96       	adiw	r26, 0x08	; 8
    4ed0:	8d 91       	ld	r24, X+
    4ed2:	9c 91       	ld	r25, X
    4ed4:	19 97       	sbiw	r26, 0x09	; 9
    4ed6:	08 17       	cp	r16, r24
    4ed8:	19 07       	cpc	r17, r25
    4eda:	08 f0       	brcs	.+2      	; 0x4ede <f_open+0x8fe>
    4edc:	8b cd       	rjmp	.-1258   	; 0x49f4 <f_open+0x414>
    4ede:	1e 83       	std	Y+6, r17	; 0x06
    4ee0:	0d 83       	std	Y+5, r16	; 0x05
    4ee2:	c5 01       	movw	r24, r10
    4ee4:	88 0f       	add	r24, r24
    4ee6:	99 1f       	adc	r25, r25
    4ee8:	82 95       	swap	r24
    4eea:	92 95       	swap	r25
    4eec:	90 7f       	andi	r25, 0xF0	; 240
    4eee:	98 27       	eor	r25, r24
    4ef0:	80 7f       	andi	r24, 0xF0	; 240
    4ef2:	98 27       	eor	r25, r24
    4ef4:	8e 96       	adiw	r24, 0x2e	; 46
    4ef6:	88 0d       	add	r24, r8
    4ef8:	99 1d       	adc	r25, r9
    4efa:	9c 8b       	std	Y+20, r25	; 0x14
    4efc:	8b 8b       	std	Y+19, r24	; 0x13
    4efe:	52 cf       	rjmp	.-348    	; 0x4da4 <f_open+0x7c4>
    4f00:	01 e0       	ldi	r16, 0x01	; 1
    4f02:	10 e0       	ldi	r17, 0x00	; 0
    4f04:	a6 01       	movw	r20, r12
    4f06:	95 01       	movw	r18, r10
    4f08:	b1 01       	movw	r22, r2
    4f0a:	f4 01       	movw	r30, r8
    4f0c:	81 81       	ldd	r24, Z+1	; 0x01
    4f0e:	0e 94 74 34 	call	0x68e8	; 0x68e8 <disk_write>
    4f12:	81 11       	cpse	r24, r1
    4f14:	43 c4       	rjmp	.+2182   	; 0x579c <f_open+0x11bc>
    4f16:	d4 01       	movw	r26, r8
    4f18:	14 96       	adiw	r26, 0x04	; 4
    4f1a:	1c 92       	st	X, r1
    4f1c:	14 97       	sbiw	r26, 0x04	; 4
    4f1e:	56 96       	adiw	r26, 0x16	; 22
    4f20:	8d 91       	ld	r24, X+
    4f22:	9d 91       	ld	r25, X+
    4f24:	0d 90       	ld	r0, X+
    4f26:	bc 91       	ld	r27, X
    4f28:	a0 2d       	mov	r26, r0
    4f2a:	f4 01       	movw	r30, r8
    4f2c:	46 8d       	ldd	r20, Z+30	; 0x1e
    4f2e:	57 8d       	ldd	r21, Z+31	; 0x1f
    4f30:	60 a1       	ldd	r22, Z+32	; 0x20
    4f32:	71 a1       	ldd	r23, Z+33	; 0x21
    4f34:	96 01       	movw	r18, r12
    4f36:	85 01       	movw	r16, r10
    4f38:	04 1b       	sub	r16, r20
    4f3a:	15 0b       	sbc	r17, r21
    4f3c:	26 0b       	sbc	r18, r22
    4f3e:	37 0b       	sbc	r19, r23
    4f40:	08 17       	cp	r16, r24
    4f42:	19 07       	cpc	r17, r25
    4f44:	2a 07       	cpc	r18, r26
    4f46:	3b 07       	cpc	r19, r27
    4f48:	08 f0       	brcs	.+2      	; 0x4f4c <f_open+0x96c>
    4f4a:	40 cf       	rjmp	.-384    	; 0x4dcc <f_open+0x7ec>
    4f4c:	e3 80       	ldd	r14, Z+3	; 0x03
    4f4e:	f1 2c       	mov	r15, r1
    4f50:	12 e0       	ldi	r17, 0x02	; 2
    4f52:	e1 16       	cp	r14, r17
    4f54:	f1 04       	cpc	r15, r1
    4f56:	30 f4       	brcc	.+12     	; 0x4f64 <f_open+0x984>
    4f58:	39 cf       	rjmp	.-398    	; 0x4dcc <f_open+0x7ec>
    4f5a:	f4 01       	movw	r30, r8
    4f5c:	86 89       	ldd	r24, Z+22	; 0x16
    4f5e:	97 89       	ldd	r25, Z+23	; 0x17
    4f60:	a0 8d       	ldd	r26, Z+24	; 0x18
    4f62:	b1 8d       	ldd	r27, Z+25	; 0x19
    4f64:	a8 0e       	add	r10, r24
    4f66:	b9 1e       	adc	r11, r25
    4f68:	ca 1e       	adc	r12, r26
    4f6a:	db 1e       	adc	r13, r27
    4f6c:	01 e0       	ldi	r16, 0x01	; 1
    4f6e:	10 e0       	ldi	r17, 0x00	; 0
    4f70:	a6 01       	movw	r20, r12
    4f72:	95 01       	movw	r18, r10
    4f74:	b1 01       	movw	r22, r2
    4f76:	d4 01       	movw	r26, r8
    4f78:	11 96       	adiw	r26, 0x01	; 1
    4f7a:	8c 91       	ld	r24, X
    4f7c:	0e 94 74 34 	call	0x68e8	; 0x68e8 <disk_write>
    4f80:	b1 e0       	ldi	r27, 0x01	; 1
    4f82:	eb 1a       	sub	r14, r27
    4f84:	f1 08       	sbc	r15, r1
    4f86:	e1 e0       	ldi	r30, 0x01	; 1
    4f88:	ee 16       	cp	r14, r30
    4f8a:	f1 04       	cpc	r15, r1
    4f8c:	31 f7       	brne	.-52     	; 0x4f5a <f_open+0x97a>
    4f8e:	1e cf       	rjmp	.-452    	; 0x4dcc <f_open+0x7ec>
    4f90:	1d 01       	movw	r2, r26
    4f92:	ab 2b       	or	r26, r27
    4f94:	09 f4       	brne	.+2      	; 0x4f98 <f_open+0x9b8>
    4f96:	76 ce       	rjmp	.-788    	; 0x4c84 <f_open+0x6a4>
    4f98:	8d a1       	ldd	r24, Y+37	; 0x25
    4f9a:	8c 71       	andi	r24, 0x1C	; 28
    4f9c:	09 f4       	brne	.+2      	; 0x4fa0 <f_open+0x9c0>
    4f9e:	e7 cc       	rjmp	.-1586   	; 0x496e <f_open+0x38e>
    4fa0:	41 71       	andi	r20, 0x11	; 17
    4fa2:	09 f0       	breq	.+2      	; 0x4fa6 <f_open+0x9c6>
    4fa4:	27 cd       	rjmp	.-1458   	; 0x49f4 <f_open+0x414>
    4fa6:	1d a1       	ldd	r17, Y+37	; 0x25
    4fa8:	12 ff       	sbrs	r17, 2
    4faa:	e0 cb       	rjmp	.-2112   	; 0x476c <f_open+0x18c>
    4fac:	88 e0       	ldi	r24, 0x08	; 8
    4fae:	46 cb       	rjmp	.-2420   	; 0x463c <f_open+0x5c>
    4fb0:	89 80       	ldd	r8, Y+1	; 0x01
    4fb2:	9a 80       	ldd	r9, Y+2	; 0x02
    4fb4:	94 cf       	rjmp	.-216    	; 0x4ede <f_open+0x8fe>
    4fb6:	d7 01       	movw	r26, r14
    4fb8:	9a 96       	adiw	r26, 0x2a	; 42
    4fba:	8d 92       	st	X+, r8
    4fbc:	9d 92       	st	X+, r9
    4fbe:	ad 92       	st	X+, r10
    4fc0:	bc 92       	st	X, r11
    4fc2:	9d 97       	sbiw	r26, 0x2d	; 45
    4fc4:	eb 89       	ldd	r30, Y+19	; 0x13
    4fc6:	fc 89       	ldd	r31, Y+20	; 0x14
    4fc8:	80 e2       	ldi	r24, 0x20	; 32
    4fca:	df 01       	movw	r26, r30
    4fcc:	1d 92       	st	X+, r1
    4fce:	8a 95       	dec	r24
    4fd0:	e9 f7       	brne	.-6      	; 0x4fcc <f_open+0x9ec>
    4fd2:	ad 89       	ldd	r26, Y+21	; 0x15
    4fd4:	be 89       	ldd	r27, Y+22	; 0x16
    4fd6:	eb 89       	ldd	r30, Y+19	; 0x13
    4fd8:	fc 89       	ldd	r31, Y+20	; 0x14
    4fda:	8d 91       	ld	r24, X+
    4fdc:	9c 91       	ld	r25, X
    4fde:	11 97       	sbiw	r26, 0x01	; 1
    4fe0:	91 83       	std	Z+1, r25	; 0x01
    4fe2:	80 83       	st	Z, r24
    4fe4:	12 96       	adiw	r26, 0x02	; 2
    4fe6:	8d 91       	ld	r24, X+
    4fe8:	9c 91       	ld	r25, X
    4fea:	13 97       	sbiw	r26, 0x03	; 3
    4fec:	93 83       	std	Z+3, r25	; 0x03
    4fee:	82 83       	std	Z+2, r24	; 0x02
    4ff0:	14 96       	adiw	r26, 0x04	; 4
    4ff2:	8d 91       	ld	r24, X+
    4ff4:	9c 91       	ld	r25, X
    4ff6:	15 97       	sbiw	r26, 0x05	; 5
    4ff8:	95 83       	std	Z+5, r25	; 0x05
    4ffa:	84 83       	std	Z+4, r24	; 0x04
    4ffc:	16 96       	adiw	r26, 0x06	; 6
    4ffe:	8d 91       	ld	r24, X+
    5000:	9c 91       	ld	r25, X
    5002:	17 97       	sbiw	r26, 0x07	; 7
    5004:	97 83       	std	Z+7, r25	; 0x07
    5006:	86 83       	std	Z+6, r24	; 0x06
    5008:	18 96       	adiw	r26, 0x08	; 8
    500a:	8d 91       	ld	r24, X+
    500c:	9c 91       	ld	r25, X
    500e:	19 97       	sbiw	r26, 0x09	; 9
    5010:	91 87       	std	Z+9, r25	; 0x09
    5012:	80 87       	std	Z+8, r24	; 0x08
    5014:	1a 96       	adiw	r26, 0x0a	; 10
    5016:	8c 91       	ld	r24, X
    5018:	82 87       	std	Z+10, r24	; 0x0a
    501a:	a9 80       	ldd	r10, Y+1	; 0x01
    501c:	ba 80       	ldd	r11, Y+2	; 0x02
    501e:	81 e0       	ldi	r24, 0x01	; 1
    5020:	f5 01       	movw	r30, r10
    5022:	84 83       	std	Z+4, r24	; 0x04
    5024:	ff a5       	ldd	r31, Y+47	; 0x2f
    5026:	f8 60       	ori	r31, 0x08	; 8
    5028:	ff a7       	std	Y+47, r31	; 0x2f
    502a:	2b 88       	ldd	r2, Y+19	; 0x13
    502c:	3c 88       	ldd	r3, Y+20	; 0x14
    502e:	2f 2f       	mov	r18, r31
    5030:	a0 cb       	rjmp	.-2240   	; 0x4772 <f_open+0x192>
    5032:	be e2       	ldi	r27, 0x2E	; 46
    5034:	2b 0e       	add	r2, r27
    5036:	31 1c       	adc	r3, r1
    5038:	01 e0       	ldi	r16, 0x01	; 1
    503a:	10 e0       	ldi	r17, 0x00	; 0
    503c:	a3 01       	movw	r20, r6
    503e:	92 01       	movw	r18, r4
    5040:	b1 01       	movw	r22, r2
    5042:	f7 01       	movw	r30, r14
    5044:	81 81       	ldd	r24, Z+1	; 0x01
    5046:	0e 94 74 34 	call	0x68e8	; 0x68e8 <disk_write>
    504a:	81 11       	cpse	r24, r1
    504c:	a7 c3       	rjmp	.+1870   	; 0x579c <f_open+0x11bc>
    504e:	d7 01       	movw	r26, r14
    5050:	14 96       	adiw	r26, 0x04	; 4
    5052:	1c 92       	st	X, r1
    5054:	14 97       	sbiw	r26, 0x04	; 4
    5056:	56 96       	adiw	r26, 0x16	; 22
    5058:	8d 91       	ld	r24, X+
    505a:	9d 91       	ld	r25, X+
    505c:	0d 90       	ld	r0, X+
    505e:	bc 91       	ld	r27, X
    5060:	a0 2d       	mov	r26, r0
    5062:	f7 01       	movw	r30, r14
    5064:	46 8d       	ldd	r20, Z+30	; 0x1e
    5066:	57 8d       	ldd	r21, Z+31	; 0x1f
    5068:	60 a1       	ldd	r22, Z+32	; 0x20
    506a:	71 a1       	ldd	r23, Z+33	; 0x21
    506c:	93 01       	movw	r18, r6
    506e:	82 01       	movw	r16, r4
    5070:	04 1b       	sub	r16, r20
    5072:	15 0b       	sbc	r17, r21
    5074:	26 0b       	sbc	r18, r22
    5076:	37 0b       	sbc	r19, r23
    5078:	08 17       	cp	r16, r24
    507a:	19 07       	cpc	r17, r25
    507c:	2a 07       	cpc	r18, r26
    507e:	3b 07       	cpc	r19, r27
    5080:	08 f0       	brcs	.+2      	; 0x5084 <f_open+0xaa4>
    5082:	e0 ce       	rjmp	.-576    	; 0x4e44 <f_open+0x864>
    5084:	c3 80       	ldd	r12, Z+3	; 0x03
    5086:	d1 2c       	mov	r13, r1
    5088:	12 e0       	ldi	r17, 0x02	; 2
    508a:	c1 16       	cp	r12, r17
    508c:	d1 04       	cpc	r13, r1
    508e:	08 f4       	brcc	.+2      	; 0x5092 <f_open+0xab2>
    5090:	d9 ce       	rjmp	.-590    	; 0x4e44 <f_open+0x864>
    5092:	48 0e       	add	r4, r24
    5094:	59 1e       	adc	r5, r25
    5096:	6a 1e       	adc	r6, r26
    5098:	7b 1e       	adc	r7, r27
    509a:	01 e0       	ldi	r16, 0x01	; 1
    509c:	10 e0       	ldi	r17, 0x00	; 0
    509e:	a3 01       	movw	r20, r6
    50a0:	92 01       	movw	r18, r4
    50a2:	b1 01       	movw	r22, r2
    50a4:	d7 01       	movw	r26, r14
    50a6:	11 96       	adiw	r26, 0x01	; 1
    50a8:	8c 91       	ld	r24, X
    50aa:	0e 94 74 34 	call	0x68e8	; 0x68e8 <disk_write>
    50ae:	b1 e0       	ldi	r27, 0x01	; 1
    50b0:	cb 1a       	sub	r12, r27
    50b2:	d1 08       	sbc	r13, r1
    50b4:	e1 e0       	ldi	r30, 0x01	; 1
    50b6:	ce 16       	cp	r12, r30
    50b8:	d1 04       	cpc	r13, r1
    50ba:	09 f4       	brne	.+2      	; 0x50be <f_open+0xade>
    50bc:	c3 ce       	rjmp	.-634    	; 0x4e44 <f_open+0x864>
    50be:	f7 01       	movw	r30, r14
    50c0:	86 89       	ldd	r24, Z+22	; 0x16
    50c2:	97 89       	ldd	r25, Z+23	; 0x17
    50c4:	a0 8d       	ldd	r26, Z+24	; 0x18
    50c6:	b1 8d       	ldd	r27, Z+25	; 0x19
    50c8:	e4 cf       	rjmp	.-56     	; 0x5092 <f_open+0xab2>
    50ca:	f4 01       	movw	r30, r8
    50cc:	82 81       	ldd	r24, Z+2	; 0x02
    50ce:	90 e0       	ldi	r25, 0x00	; 0
    50d0:	01 97       	sbiw	r24, 0x01	; 1
    50d2:	98 01       	movw	r18, r16
    50d4:	32 95       	swap	r19
    50d6:	22 95       	swap	r18
    50d8:	2f 70       	andi	r18, 0x0F	; 15
    50da:	23 27       	eor	r18, r19
    50dc:	3f 70       	andi	r19, 0x0F	; 15
    50de:	23 27       	eor	r18, r19
    50e0:	82 23       	and	r24, r18
    50e2:	93 23       	and	r25, r19
    50e4:	89 2b       	or	r24, r25
    50e6:	09 f0       	breq	.+2      	; 0x50ea <f_open+0xb0a>
    50e8:	fa ce       	rjmp	.-524    	; 0x4ede <f_open+0x8fe>
    50ea:	42 30       	cpi	r20, 0x02	; 2
    50ec:	51 05       	cpc	r21, r1
    50ee:	61 05       	cpc	r22, r1
    50f0:	71 05       	cpc	r23, r1
    50f2:	08 f4       	brcc	.+2      	; 0x50f6 <f_open+0xb16>
    50f4:	4f ce       	rjmp	.-866    	; 0x4d94 <f_open+0x7b4>
    50f6:	82 89       	ldd	r24, Z+18	; 0x12
    50f8:	93 89       	ldd	r25, Z+19	; 0x13
    50fa:	a4 89       	ldd	r26, Z+20	; 0x14
    50fc:	b5 89       	ldd	r27, Z+21	; 0x15
    50fe:	48 17       	cp	r20, r24
    5100:	59 07       	cpc	r21, r25
    5102:	6a 07       	cpc	r22, r26
    5104:	7b 07       	cpc	r23, r27
    5106:	08 f0       	brcs	.+2      	; 0x510a <f_open+0xb2a>
    5108:	45 ce       	rjmp	.-886    	; 0x4d94 <f_open+0x7b4>
    510a:	c4 01       	movw	r24, r8
    510c:	0e 94 23 16 	call	0x2c46	; 0x2c46 <get_fat.part.4>
    5110:	6b 01       	movw	r12, r22
    5112:	7c 01       	movw	r14, r24
    5114:	62 30       	cpi	r22, 0x02	; 2
    5116:	71 05       	cpc	r23, r1
    5118:	81 05       	cpc	r24, r1
    511a:	91 05       	cpc	r25, r1
    511c:	08 f4       	brcc	.+2      	; 0x5120 <f_open+0xb40>
    511e:	3a ce       	rjmp	.-908    	; 0x4d94 <f_open+0x7b4>
    5120:	6f 3f       	cpi	r22, 0xFF	; 255
    5122:	7f 4f       	sbci	r23, 0xFF	; 255
    5124:	8f 4f       	sbci	r24, 0xFF	; 255
    5126:	9f 4f       	sbci	r25, 0xFF	; 255
    5128:	09 f4       	brne	.+2      	; 0x512c <f_open+0xb4c>
    512a:	38 c3       	rjmp	.+1648   	; 0x579c <f_open+0x11bc>
    512c:	89 80       	ldd	r8, Y+1	; 0x01
    512e:	9a 80       	ldd	r9, Y+2	; 0x02
    5130:	f4 01       	movw	r30, r8
    5132:	82 89       	ldd	r24, Z+18	; 0x12
    5134:	93 89       	ldd	r25, Z+19	; 0x13
    5136:	a4 89       	ldd	r26, Z+20	; 0x14
    5138:	b5 89       	ldd	r27, Z+21	; 0x15
    513a:	c8 16       	cp	r12, r24
    513c:	d9 06       	cpc	r13, r25
    513e:	ea 06       	cpc	r14, r26
    5140:	fb 06       	cpc	r15, r27
    5142:	08 f0       	brcs	.+2      	; 0x5146 <f_open+0xb66>
    5144:	9b c2       	rjmp	.+1334   	; 0x567c <f_open+0x109c>
    5146:	a7 01       	movw	r20, r14
    5148:	96 01       	movw	r18, r12
    514a:	22 50       	subi	r18, 0x02	; 2
    514c:	31 09       	sbc	r19, r1
    514e:	41 09       	sbc	r20, r1
    5150:	51 09       	sbc	r21, r1
    5152:	2c 01       	movw	r4, r24
    5154:	3d 01       	movw	r6, r26
    5156:	f2 e0       	ldi	r31, 0x02	; 2
    5158:	4f 1a       	sub	r4, r31
    515a:	51 08       	sbc	r5, r1
    515c:	61 08       	sbc	r6, r1
    515e:	71 08       	sbc	r7, r1
    5160:	cb 86       	std	Y+11, r12	; 0x0b
    5162:	dc 86       	std	Y+12, r13	; 0x0c
    5164:	ed 86       	std	Y+13, r14	; 0x0d
    5166:	fe 86       	std	Y+14, r15	; 0x0e
    5168:	24 15       	cp	r18, r4
    516a:	35 05       	cpc	r19, r5
    516c:	46 05       	cpc	r20, r6
    516e:	57 05       	cpc	r21, r7
    5170:	08 f0       	brcs	.+2      	; 0x5174 <f_open+0xb94>
    5172:	80 c2       	rjmp	.+1280   	; 0x5674 <f_open+0x1094>
    5174:	f4 01       	movw	r30, r8
    5176:	a2 81       	ldd	r26, Z+2	; 0x02
    5178:	b0 e0       	ldi	r27, 0x00	; 0
    517a:	0e 94 68 3c 	call	0x78d0	; 0x78d0 <__muluhisi3>
    517e:	c6 a0       	ldd	r12, Z+38	; 0x26
    5180:	d7 a0       	ldd	r13, Z+39	; 0x27
    5182:	e0 a4       	ldd	r14, Z+40	; 0x28
    5184:	f1 a4       	ldd	r15, Z+41	; 0x29
    5186:	2b 01       	movw	r4, r22
    5188:	3c 01       	movw	r6, r24
    518a:	4c 0c       	add	r4, r12
    518c:	5d 1c       	adc	r5, r13
    518e:	6e 1c       	adc	r6, r14
    5190:	7f 1c       	adc	r7, r15
    5192:	4f 86       	std	Y+15, r4	; 0x0f
    5194:	58 8a       	std	Y+16, r5	; 0x10
    5196:	69 8a       	std	Y+17, r6	; 0x11
    5198:	7a 8a       	std	Y+18, r7	; 0x12
    519a:	a1 ce       	rjmp	.-702    	; 0x4ede <f_open+0x8fe>
    519c:	9d a1       	ldd	r25, Y+37	; 0x25
    519e:	9c 71       	andi	r25, 0x1C	; 28
    51a0:	09 f4       	brne	.+2      	; 0x51a4 <f_open+0xbc4>
    51a2:	4c ca       	rjmp	.-2920   	; 0x463c <f_open+0x5c>
    51a4:	84 30       	cpi	r24, 0x04	; 4
    51a6:	09 f0       	breq	.+2      	; 0x51aa <f_open+0xbca>
    51a8:	49 ca       	rjmp	.-2926   	; 0x463c <f_open+0x5c>
    51aa:	1a cc       	rjmp	.-1996   	; 0x49e0 <f_open+0x400>
    51ac:	2b 89       	ldd	r18, Y+19	; 0x13
    51ae:	9c 89       	ldd	r25, Y+20	; 0x14
    51b0:	82 e0       	ldi	r24, 0x02	; 2
    51b2:	fb cb       	rjmp	.-2058   	; 0x49aa <f_open+0x3ca>
    51b4:	09 a7       	std	Y+41, r16	; 0x29
    51b6:	1a a7       	std	Y+42, r17	; 0x2a
    51b8:	2b a7       	std	Y+43, r18	; 0x2b
    51ba:	3c a7       	std	Y+44, r19	; 0x2c
    51bc:	45 01       	movw	r8, r10
    51be:	1e e2       	ldi	r17, 0x2E	; 46
    51c0:	81 0e       	add	r8, r17
    51c2:	91 1c       	adc	r9, r1
    51c4:	3b ae       	std	Y+59, r3	; 0x3b
    51c6:	2a ae       	std	Y+58, r2	; 0x3a
    51c8:	c9 a4       	ldd	r12, Y+41	; 0x29
    51ca:	da a4       	ldd	r13, Y+42	; 0x2a
    51cc:	eb a4       	ldd	r14, Y+43	; 0x2b
    51ce:	fc a4       	ldd	r15, Y+44	; 0x2c
    51d0:	34 01       	movw	r6, r8
    51d2:	57 c0       	rjmp	.+174    	; 0x5282 <f_open+0xca2>
    51d4:	83 30       	cpi	r24, 0x03	; 3
    51d6:	09 f4       	brne	.+2      	; 0x51da <f_open+0xbfa>
    51d8:	ef c1       	rjmp	.+990    	; 0x55b8 <f_open+0xfd8>
    51da:	81 30       	cpi	r24, 0x01	; 1
    51dc:	09 f4       	brne	.+2      	; 0x51e0 <f_open+0xc00>
    51de:	93 c0       	rjmp	.+294    	; 0x5306 <f_open+0xd26>
    51e0:	21 2c       	mov	r2, r1
    51e2:	31 2c       	mov	r3, r1
    51e4:	21 01       	movw	r4, r2
    51e6:	23 94       	inc	r2
    51e8:	b1 e0       	ldi	r27, 0x01	; 1
    51ea:	2b 16       	cp	r2, r27
    51ec:	31 04       	cpc	r3, r1
    51ee:	41 04       	cpc	r4, r1
    51f0:	51 04       	cpc	r5, r1
    51f2:	09 f4       	brne	.+2      	; 0x51f6 <f_open+0xc16>
    51f4:	cf cd       	rjmp	.-1122   	; 0x4d94 <f_open+0x7b4>
    51f6:	0f ef       	ldi	r16, 0xFF	; 255
    51f8:	20 16       	cp	r2, r16
    51fa:	30 06       	cpc	r3, r16
    51fc:	40 06       	cpc	r4, r16
    51fe:	50 06       	cpc	r5, r16
    5200:	09 f4       	brne	.+2      	; 0x5204 <f_open+0xc24>
    5202:	cc c2       	rjmp	.+1432   	; 0x579c <f_open+0x11bc>
    5204:	12 e0       	ldi	r17, 0x02	; 2
    5206:	c1 16       	cp	r12, r17
    5208:	d1 04       	cpc	r13, r1
    520a:	e1 04       	cpc	r14, r1
    520c:	f1 04       	cpc	r15, r1
    520e:	08 f4       	brcc	.+2      	; 0x5212 <f_open+0xc32>
    5210:	c1 cd       	rjmp	.-1150   	; 0x4d94 <f_open+0x7b4>
    5212:	f5 01       	movw	r30, r10
    5214:	82 89       	ldd	r24, Z+18	; 0x12
    5216:	93 89       	ldd	r25, Z+19	; 0x13
    5218:	a4 89       	ldd	r26, Z+20	; 0x14
    521a:	b5 89       	ldd	r27, Z+21	; 0x15
    521c:	c8 16       	cp	r12, r24
    521e:	d9 06       	cpc	r13, r25
    5220:	ea 06       	cpc	r14, r26
    5222:	fb 06       	cpc	r15, r27
    5224:	08 f0       	brcs	.+2      	; 0x5228 <f_open+0xc48>
    5226:	b6 cd       	rjmp	.-1172   	; 0x4d94 <f_open+0x7b4>
    5228:	00 e0       	ldi	r16, 0x00	; 0
    522a:	10 e0       	ldi	r17, 0x00	; 0
    522c:	98 01       	movw	r18, r16
    522e:	b7 01       	movw	r22, r14
    5230:	a6 01       	movw	r20, r12
    5232:	c5 01       	movw	r24, r10
    5234:	0e 94 c5 12 	call	0x258a	; 0x258a <put_fat.part.5>
    5238:	81 11       	cpse	r24, r1
    523a:	00 ca       	rjmp	.-3072   	; 0x463c <f_open+0x5c>
    523c:	f5 01       	movw	r30, r10
    523e:	86 85       	ldd	r24, Z+14	; 0x0e
    5240:	97 85       	ldd	r25, Z+15	; 0x0f
    5242:	a0 89       	ldd	r26, Z+16	; 0x10
    5244:	b1 89       	ldd	r27, Z+17	; 0x11
    5246:	8f 3f       	cpi	r24, 0xFF	; 255
    5248:	ff ef       	ldi	r31, 0xFF	; 255
    524a:	9f 07       	cpc	r25, r31
    524c:	af 07       	cpc	r26, r31
    524e:	bf 07       	cpc	r27, r31
    5250:	59 f0       	breq	.+22     	; 0x5268 <f_open+0xc88>
    5252:	01 96       	adiw	r24, 0x01	; 1
    5254:	a1 1d       	adc	r26, r1
    5256:	b1 1d       	adc	r27, r1
    5258:	f5 01       	movw	r30, r10
    525a:	86 87       	std	Z+14, r24	; 0x0e
    525c:	97 87       	std	Z+15, r25	; 0x0f
    525e:	a0 8b       	std	Z+16, r26	; 0x10
    5260:	b1 8b       	std	Z+17, r27	; 0x11
    5262:	85 81       	ldd	r24, Z+5	; 0x05
    5264:	81 60       	ori	r24, 0x01	; 1
    5266:	85 83       	std	Z+5, r24	; 0x05
    5268:	f5 01       	movw	r30, r10
    526a:	82 89       	ldd	r24, Z+18	; 0x12
    526c:	93 89       	ldd	r25, Z+19	; 0x13
    526e:	a4 89       	ldd	r26, Z+20	; 0x14
    5270:	b5 89       	ldd	r27, Z+21	; 0x15
    5272:	28 16       	cp	r2, r24
    5274:	39 06       	cpc	r3, r25
    5276:	4a 06       	cpc	r4, r26
    5278:	5b 06       	cpc	r5, r27
    527a:	08 f0       	brcs	.+2      	; 0x527e <f_open+0xc9e>
    527c:	92 c2       	rjmp	.+1316   	; 0x57a2 <f_open+0x11c2>
    527e:	72 01       	movw	r14, r4
    5280:	61 01       	movw	r12, r2
    5282:	d5 01       	movw	r26, r10
    5284:	8c 91       	ld	r24, X
    5286:	82 30       	cpi	r24, 0x02	; 2
    5288:	09 f0       	breq	.+2      	; 0x528c <f_open+0xcac>
    528a:	a4 cf       	rjmp	.-184    	; 0x51d4 <f_open+0xbf4>
    528c:	bb 27       	eor	r27, r27
    528e:	af 2d       	mov	r26, r15
    5290:	9e 2d       	mov	r25, r14
    5292:	8d 2d       	mov	r24, r13
    5294:	f5 01       	movw	r30, r10
    5296:	46 8d       	ldd	r20, Z+30	; 0x1e
    5298:	57 8d       	ldd	r21, Z+31	; 0x1f
    529a:	60 a1       	ldd	r22, Z+32	; 0x20
    529c:	71 a1       	ldd	r23, Z+33	; 0x21
    529e:	8c 01       	movw	r16, r24
    52a0:	9d 01       	movw	r18, r26
    52a2:	04 0f       	add	r16, r20
    52a4:	15 1f       	adc	r17, r21
    52a6:	26 1f       	adc	r18, r22
    52a8:	37 1f       	adc	r19, r23
    52aa:	09 a7       	std	Y+41, r16	; 0x29
    52ac:	1a a7       	std	Y+42, r17	; 0x2a
    52ae:	2b a7       	std	Y+43, r18	; 0x2b
    52b0:	3c a7       	std	Y+44, r19	; 0x2c
    52b2:	22 a4       	ldd	r2, Z+42	; 0x2a
    52b4:	33 a4       	ldd	r3, Z+43	; 0x2b
    52b6:	44 a4       	ldd	r4, Z+44	; 0x2c
    52b8:	55 a4       	ldd	r5, Z+45	; 0x2d
    52ba:	02 15       	cp	r16, r2
    52bc:	13 05       	cpc	r17, r3
    52be:	24 05       	cpc	r18, r4
    52c0:	35 05       	cpc	r19, r5
    52c2:	09 f4       	brne	.+2      	; 0x52c6 <f_open+0xce6>
    52c4:	fd c2       	rjmp	.+1530   	; 0x58c0 <f_open+0x12e0>
    52c6:	84 81       	ldd	r24, Z+4	; 0x04
    52c8:	81 11       	cpse	r24, r1
    52ca:	a7 c2       	rjmp	.+1358   	; 0x581a <f_open+0x123a>
    52cc:	01 e0       	ldi	r16, 0x01	; 1
    52ce:	10 e0       	ldi	r17, 0x00	; 0
    52d0:	29 a5       	ldd	r18, Y+41	; 0x29
    52d2:	3a a5       	ldd	r19, Y+42	; 0x2a
    52d4:	4b a5       	ldd	r20, Y+43	; 0x2b
    52d6:	5c a5       	ldd	r21, Y+44	; 0x2c
    52d8:	b3 01       	movw	r22, r6
    52da:	f5 01       	movw	r30, r10
    52dc:	81 81       	ldd	r24, Z+1	; 0x01
    52de:	0e 94 ef 33 	call	0x67de	; 0x67de <disk_read>
    52e2:	88 23       	and	r24, r24
    52e4:	09 f4       	brne	.+2      	; 0x52e8 <f_open+0xd08>
    52e6:	e1 c2       	rjmp	.+1474   	; 0x58aa <f_open+0x12ca>
    52e8:	0f ef       	ldi	r16, 0xFF	; 255
    52ea:	1f ef       	ldi	r17, 0xFF	; 255
    52ec:	98 01       	movw	r18, r16
    52ee:	d5 01       	movw	r26, r10
    52f0:	9a 96       	adiw	r26, 0x2a	; 42
    52f2:	0d 93       	st	X+, r16
    52f4:	1d 93       	st	X+, r17
    52f6:	2d 93       	st	X+, r18
    52f8:	3c 93       	st	X, r19
    52fa:	9d 97       	sbiw	r26, 0x2d	; 45
    52fc:	22 24       	eor	r2, r2
    52fe:	2a 94       	dec	r2
    5300:	32 2c       	mov	r3, r2
    5302:	21 01       	movw	r4, r2
    5304:	71 cf       	rjmp	.-286    	; 0x51e8 <f_open+0xc08>
    5306:	c6 01       	movw	r24, r12
    5308:	96 95       	lsr	r25
    530a:	87 95       	ror	r24
    530c:	fc 01       	movw	r30, r24
    530e:	ec 0d       	add	r30, r12
    5310:	fd 1d       	adc	r31, r13
    5312:	f9 ab       	std	Y+49, r31	; 0x31
    5314:	e8 ab       	std	Y+48, r30	; 0x30
    5316:	5e 96       	adiw	r26, 0x1e	; 30
    5318:	8d 91       	ld	r24, X+
    531a:	9d 91       	ld	r25, X+
    531c:	0d 90       	ld	r0, X+
    531e:	bc 91       	ld	r27, X
    5320:	a0 2d       	mov	r26, r0
    5322:	9f 01       	movw	r18, r30
    5324:	23 2f       	mov	r18, r19
    5326:	33 27       	eor	r19, r19
    5328:	26 95       	lsr	r18
    532a:	1c 01       	movw	r2, r24
    532c:	2d 01       	movw	r4, r26
    532e:	22 0e       	add	r2, r18
    5330:	33 1e       	adc	r3, r19
    5332:	41 1c       	adc	r4, r1
    5334:	51 1c       	adc	r5, r1
    5336:	f5 01       	movw	r30, r10
    5338:	02 a5       	ldd	r16, Z+42	; 0x2a
    533a:	13 a5       	ldd	r17, Z+43	; 0x2b
    533c:	24 a5       	ldd	r18, Z+44	; 0x2c
    533e:	35 a5       	ldd	r19, Z+45	; 0x2d
    5340:	09 a7       	std	Y+41, r16	; 0x29
    5342:	1a a7       	std	Y+42, r17	; 0x2a
    5344:	2b a7       	std	Y+43, r18	; 0x2b
    5346:	3c a7       	std	Y+44, r19	; 0x2c
    5348:	20 16       	cp	r2, r16
    534a:	31 06       	cpc	r3, r17
    534c:	42 06       	cpc	r4, r18
    534e:	53 06       	cpc	r5, r19
    5350:	09 f4       	brne	.+2      	; 0x5354 <f_open+0xd74>
    5352:	e5 c0       	rjmp	.+458    	; 0x551e <f_open+0xf3e>
    5354:	84 81       	ldd	r24, Z+4	; 0x04
    5356:	81 11       	cpse	r24, r1
    5358:	81 c0       	rjmp	.+258    	; 0x545c <f_open+0xe7c>
    535a:	01 e0       	ldi	r16, 0x01	; 1
    535c:	10 e0       	ldi	r17, 0x00	; 0
    535e:	a2 01       	movw	r20, r4
    5360:	91 01       	movw	r18, r2
    5362:	b3 01       	movw	r22, r6
    5364:	f5 01       	movw	r30, r10
    5366:	81 81       	ldd	r24, Z+1	; 0x01
    5368:	0e 94 ef 33 	call	0x67de	; 0x67de <disk_read>
    536c:	81 11       	cpse	r24, r1
    536e:	bc cf       	rjmp	.-136    	; 0x52e8 <f_open+0xd08>
    5370:	d5 01       	movw	r26, r10
    5372:	9a 96       	adiw	r26, 0x2a	; 42
    5374:	2d 92       	st	X+, r2
    5376:	3d 92       	st	X+, r3
    5378:	4d 92       	st	X+, r4
    537a:	5c 92       	st	X, r5
    537c:	9d 97       	sbiw	r26, 0x2d	; 45
    537e:	5e 96       	adiw	r26, 0x1e	; 30
    5380:	8d 91       	ld	r24, X+
    5382:	9d 91       	ld	r25, X+
    5384:	0d 90       	ld	r0, X+
    5386:	bc 91       	ld	r27, X
    5388:	a0 2d       	mov	r26, r0
    538a:	2e aa       	std	Y+54, r2	; 0x36
    538c:	3f aa       	std	Y+55, r3	; 0x37
    538e:	48 ae       	std	Y+56, r4	; 0x38
    5390:	59 ae       	std	Y+57, r5	; 0x39
    5392:	08 a9       	ldd	r16, Y+48	; 0x30
    5394:	19 a9       	ldd	r17, Y+49	; 0x31
    5396:	0f 5f       	subi	r16, 0xFF	; 255
    5398:	1f 4f       	sbci	r17, 0xFF	; 255
    539a:	1b ab       	std	Y+51, r17	; 0x33
    539c:	0a ab       	std	Y+50, r16	; 0x32
    539e:	e8 a9       	ldd	r30, Y+48	; 0x30
    53a0:	f9 a9       	ldd	r31, Y+49	; 0x31
    53a2:	f1 70       	andi	r31, 0x01	; 1
    53a4:	ea 0d       	add	r30, r10
    53a6:	fb 1d       	adc	r31, r11
    53a8:	26 a5       	ldd	r18, Z+46	; 0x2e
    53aa:	42 2f       	mov	r20, r18
    53ac:	50 e0       	ldi	r21, 0x00	; 0
    53ae:	59 ab       	std	Y+49, r21	; 0x31
    53b0:	48 ab       	std	Y+48, r20	; 0x30
    53b2:	98 01       	movw	r18, r16
    53b4:	23 2f       	mov	r18, r19
    53b6:	33 27       	eor	r19, r19
    53b8:	26 95       	lsr	r18
    53ba:	ac 01       	movw	r20, r24
    53bc:	bd 01       	movw	r22, r26
    53be:	42 0f       	add	r20, r18
    53c0:	53 1f       	adc	r21, r19
    53c2:	61 1d       	adc	r22, r1
    53c4:	71 1d       	adc	r23, r1
    53c6:	49 a7       	std	Y+41, r20	; 0x29
    53c8:	5a a7       	std	Y+42, r21	; 0x2a
    53ca:	6b a7       	std	Y+43, r22	; 0x2b
    53cc:	7c a7       	std	Y+44, r23	; 0x2c
    53ce:	24 16       	cp	r2, r20
    53d0:	35 06       	cpc	r3, r21
    53d2:	46 06       	cpc	r4, r22
    53d4:	57 06       	cpc	r5, r23
    53d6:	f9 f0       	breq	.+62     	; 0x5416 <f_open+0xe36>
    53d8:	d5 01       	movw	r26, r10
    53da:	14 96       	adiw	r26, 0x04	; 4
    53dc:	8c 91       	ld	r24, X
    53de:	14 97       	sbiw	r26, 0x04	; 4
    53e0:	81 11       	cpse	r24, r1
    53e2:	a2 c0       	rjmp	.+324    	; 0x5528 <f_open+0xf48>
    53e4:	01 e0       	ldi	r16, 0x01	; 1
    53e6:	10 e0       	ldi	r17, 0x00	; 0
    53e8:	29 a5       	ldd	r18, Y+41	; 0x29
    53ea:	3a a5       	ldd	r19, Y+42	; 0x2a
    53ec:	4b a5       	ldd	r20, Y+43	; 0x2b
    53ee:	5c a5       	ldd	r21, Y+44	; 0x2c
    53f0:	b3 01       	movw	r22, r6
    53f2:	d5 01       	movw	r26, r10
    53f4:	11 96       	adiw	r26, 0x01	; 1
    53f6:	8c 91       	ld	r24, X
    53f8:	0e 94 ef 33 	call	0x67de	; 0x67de <disk_read>
    53fc:	81 11       	cpse	r24, r1
    53fe:	74 cf       	rjmp	.-280    	; 0x52e8 <f_open+0xd08>
    5400:	09 a5       	ldd	r16, Y+41	; 0x29
    5402:	1a a5       	ldd	r17, Y+42	; 0x2a
    5404:	2b a5       	ldd	r18, Y+43	; 0x2b
    5406:	3c a5       	ldd	r19, Y+44	; 0x2c
    5408:	d5 01       	movw	r26, r10
    540a:	9a 96       	adiw	r26, 0x2a	; 42
    540c:	0d 93       	st	X+, r16
    540e:	1d 93       	st	X+, r17
    5410:	2d 93       	st	X+, r18
    5412:	3c 93       	st	X, r19
    5414:	9d 97       	sbiw	r26, 0x2d	; 45
    5416:	ea a9       	ldd	r30, Y+50	; 0x32
    5418:	fb a9       	ldd	r31, Y+51	; 0x33
    541a:	f1 70       	andi	r31, 0x01	; 1
    541c:	ea 0d       	add	r30, r10
    541e:	fb 1d       	adc	r31, r11
    5420:	86 a5       	ldd	r24, Z+46	; 0x2e
    5422:	28 a8       	ldd	r2, Y+48	; 0x30
    5424:	39 a8       	ldd	r3, Y+49	; 0x31
    5426:	38 2a       	or	r3, r24
    5428:	c0 fe       	sbrs	r12, 0
    542a:	6e c0       	rjmp	.+220    	; 0x5508 <f_open+0xf28>
    542c:	32 94       	swap	r3
    542e:	22 94       	swap	r2
    5430:	bf e0       	ldi	r27, 0x0F	; 15
    5432:	2b 22       	and	r2, r27
    5434:	23 24       	eor	r2, r3
    5436:	3b 22       	and	r3, r27
    5438:	23 24       	eor	r2, r3
    543a:	41 2c       	mov	r4, r1
    543c:	51 2c       	mov	r5, r1
    543e:	21 14       	cp	r2, r1
    5440:	31 04       	cpc	r3, r1
    5442:	41 04       	cpc	r4, r1
    5444:	51 04       	cpc	r5, r1
    5446:	09 f4       	brne	.+2      	; 0x544a <f_open+0xe6a>
    5448:	ac c1       	rjmp	.+856    	; 0x57a2 <f_open+0x11c2>
    544a:	b1 e0       	ldi	r27, 0x01	; 1
    544c:	2b 16       	cp	r2, r27
    544e:	31 04       	cpc	r3, r1
    5450:	41 04       	cpc	r4, r1
    5452:	51 04       	cpc	r5, r1
    5454:	09 f0       	breq	.+2      	; 0x5458 <f_open+0xe78>
    5456:	d6 ce       	rjmp	.-596    	; 0x5204 <f_open+0xc24>
    5458:	82 e0       	ldi	r24, 0x02	; 2
    545a:	f0 c8       	rjmp	.-3616   	; 0x463c <f_open+0x5c>
    545c:	01 e0       	ldi	r16, 0x01	; 1
    545e:	10 e0       	ldi	r17, 0x00	; 0
    5460:	29 a5       	ldd	r18, Y+41	; 0x29
    5462:	3a a5       	ldd	r19, Y+42	; 0x2a
    5464:	4b a5       	ldd	r20, Y+43	; 0x2b
    5466:	5c a5       	ldd	r21, Y+44	; 0x2c
    5468:	b3 01       	movw	r22, r6
    546a:	81 81       	ldd	r24, Z+1	; 0x01
    546c:	0e 94 74 34 	call	0x68e8	; 0x68e8 <disk_write>
    5470:	81 11       	cpse	r24, r1
    5472:	94 c1       	rjmp	.+808    	; 0x579c <f_open+0x11bc>
    5474:	d5 01       	movw	r26, r10
    5476:	14 96       	adiw	r26, 0x04	; 4
    5478:	1c 92       	st	X, r1
    547a:	14 97       	sbiw	r26, 0x04	; 4
    547c:	56 96       	adiw	r26, 0x16	; 22
    547e:	8d 91       	ld	r24, X+
    5480:	9d 91       	ld	r25, X+
    5482:	0d 90       	ld	r0, X+
    5484:	bc 91       	ld	r27, X
    5486:	a0 2d       	mov	r26, r0
    5488:	f5 01       	movw	r30, r10
    548a:	46 8d       	ldd	r20, Z+30	; 0x1e
    548c:	57 8d       	ldd	r21, Z+31	; 0x1f
    548e:	60 a1       	ldd	r22, Z+32	; 0x20
    5490:	71 a1       	ldd	r23, Z+33	; 0x21
    5492:	09 a5       	ldd	r16, Y+41	; 0x29
    5494:	1a a5       	ldd	r17, Y+42	; 0x2a
    5496:	2b a5       	ldd	r18, Y+43	; 0x2b
    5498:	3c a5       	ldd	r19, Y+44	; 0x2c
    549a:	04 1b       	sub	r16, r20
    549c:	15 0b       	sbc	r17, r21
    549e:	26 0b       	sbc	r18, r22
    54a0:	37 0b       	sbc	r19, r23
    54a2:	08 17       	cp	r16, r24
    54a4:	19 07       	cpc	r17, r25
    54a6:	2a 07       	cpc	r18, r26
    54a8:	3b 07       	cpc	r19, r27
    54aa:	08 f0       	brcs	.+2      	; 0x54ae <f_open+0xece>
    54ac:	56 cf       	rjmp	.-340    	; 0x535a <f_open+0xd7a>
    54ae:	83 80       	ldd	r8, Z+3	; 0x03
    54b0:	91 2c       	mov	r9, r1
    54b2:	12 e0       	ldi	r17, 0x02	; 2
    54b4:	81 16       	cp	r8, r17
    54b6:	91 04       	cpc	r9, r1
    54b8:	08 f4       	brcc	.+2      	; 0x54bc <f_open+0xedc>
    54ba:	4f cf       	rjmp	.-354    	; 0x535a <f_open+0xd7a>
    54bc:	2a aa       	std	Y+50, r2	; 0x32
    54be:	3b aa       	std	Y+51, r3	; 0x33
    54c0:	4c aa       	std	Y+52, r4	; 0x34
    54c2:	5d aa       	std	Y+53, r5	; 0x35
    54c4:	13 01       	movw	r2, r6
    54c6:	29 a5       	ldd	r18, Y+41	; 0x29
    54c8:	3a a5       	ldd	r19, Y+42	; 0x2a
    54ca:	4b a5       	ldd	r20, Y+43	; 0x2b
    54cc:	5c a5       	ldd	r21, Y+44	; 0x2c
    54ce:	28 0f       	add	r18, r24
    54d0:	39 1f       	adc	r19, r25
    54d2:	4a 1f       	adc	r20, r26
    54d4:	5b 1f       	adc	r21, r27
    54d6:	29 a7       	std	Y+41, r18	; 0x29
    54d8:	3a a7       	std	Y+42, r19	; 0x2a
    54da:	4b a7       	std	Y+43, r20	; 0x2b
    54dc:	5c a7       	std	Y+44, r21	; 0x2c
    54de:	01 e0       	ldi	r16, 0x01	; 1
    54e0:	10 e0       	ldi	r17, 0x00	; 0
    54e2:	b1 01       	movw	r22, r2
    54e4:	d5 01       	movw	r26, r10
    54e6:	11 96       	adiw	r26, 0x01	; 1
    54e8:	8c 91       	ld	r24, X
    54ea:	0e 94 74 34 	call	0x68e8	; 0x68e8 <disk_write>
    54ee:	b1 e0       	ldi	r27, 0x01	; 1
    54f0:	8b 1a       	sub	r8, r27
    54f2:	91 08       	sbc	r9, r1
    54f4:	e1 e0       	ldi	r30, 0x01	; 1
    54f6:	8e 16       	cp	r8, r30
    54f8:	91 04       	cpc	r9, r1
    54fa:	59 f0       	breq	.+22     	; 0x5512 <f_open+0xf32>
    54fc:	f5 01       	movw	r30, r10
    54fe:	86 89       	ldd	r24, Z+22	; 0x16
    5500:	97 89       	ldd	r25, Z+23	; 0x17
    5502:	a0 8d       	ldd	r26, Z+24	; 0x18
    5504:	b1 8d       	ldd	r27, Z+25	; 0x19
    5506:	df cf       	rjmp	.-66     	; 0x54c6 <f_open+0xee6>
    5508:	ff e0       	ldi	r31, 0x0F	; 15
    550a:	3f 22       	and	r3, r31
    550c:	41 2c       	mov	r4, r1
    550e:	51 2c       	mov	r5, r1
    5510:	96 cf       	rjmp	.-212    	; 0x543e <f_open+0xe5e>
    5512:	31 01       	movw	r6, r2
    5514:	2a a8       	ldd	r2, Y+50	; 0x32
    5516:	3b a8       	ldd	r3, Y+51	; 0x33
    5518:	4c a8       	ldd	r4, Y+52	; 0x34
    551a:	5d a8       	ldd	r5, Y+53	; 0x35
    551c:	1e cf       	rjmp	.-452    	; 0x535a <f_open+0xd7a>
    551e:	2e aa       	std	Y+54, r2	; 0x36
    5520:	3f aa       	std	Y+55, r3	; 0x37
    5522:	48 ae       	std	Y+56, r4	; 0x38
    5524:	59 ae       	std	Y+57, r5	; 0x39
    5526:	35 cf       	rjmp	.-406    	; 0x5392 <f_open+0xdb2>
    5528:	01 e0       	ldi	r16, 0x01	; 1
    552a:	10 e0       	ldi	r17, 0x00	; 0
    552c:	a2 01       	movw	r20, r4
    552e:	91 01       	movw	r18, r2
    5530:	b3 01       	movw	r22, r6
    5532:	11 96       	adiw	r26, 0x01	; 1
    5534:	8c 91       	ld	r24, X
    5536:	0e 94 74 34 	call	0x68e8	; 0x68e8 <disk_write>
    553a:	81 11       	cpse	r24, r1
    553c:	2f c1       	rjmp	.+606    	; 0x579c <f_open+0x11bc>
    553e:	f5 01       	movw	r30, r10
    5540:	14 82       	std	Z+4, r1	; 0x04
    5542:	86 89       	ldd	r24, Z+22	; 0x16
    5544:	97 89       	ldd	r25, Z+23	; 0x17
    5546:	a0 8d       	ldd	r26, Z+24	; 0x18
    5548:	b1 8d       	ldd	r27, Z+25	; 0x19
    554a:	46 8d       	ldd	r20, Z+30	; 0x1e
    554c:	57 8d       	ldd	r21, Z+31	; 0x1f
    554e:	60 a1       	ldd	r22, Z+32	; 0x20
    5550:	71 a1       	ldd	r23, Z+33	; 0x21
    5552:	92 01       	movw	r18, r4
    5554:	81 01       	movw	r16, r2
    5556:	04 1b       	sub	r16, r20
    5558:	15 0b       	sbc	r17, r21
    555a:	26 0b       	sbc	r18, r22
    555c:	37 0b       	sbc	r19, r23
    555e:	08 17       	cp	r16, r24
    5560:	19 07       	cpc	r17, r25
    5562:	2a 07       	cpc	r18, r26
    5564:	3b 07       	cpc	r19, r27
    5566:	08 f0       	brcs	.+2      	; 0x556a <f_open+0xf8a>
    5568:	3d cf       	rjmp	.-390    	; 0x53e4 <f_open+0xe04>
    556a:	83 80       	ldd	r8, Z+3	; 0x03
    556c:	91 2c       	mov	r9, r1
    556e:	12 e0       	ldi	r17, 0x02	; 2
    5570:	81 16       	cp	r8, r17
    5572:	91 04       	cpc	r9, r1
    5574:	08 f4       	brcc	.+2      	; 0x5578 <f_open+0xf98>
    5576:	36 cf       	rjmp	.-404    	; 0x53e4 <f_open+0xe04>
    5578:	2e a8       	ldd	r2, Y+54	; 0x36
    557a:	3f a8       	ldd	r3, Y+55	; 0x37
    557c:	48 ac       	ldd	r4, Y+56	; 0x38
    557e:	59 ac       	ldd	r5, Y+57	; 0x39
    5580:	28 0e       	add	r2, r24
    5582:	39 1e       	adc	r3, r25
    5584:	4a 1e       	adc	r4, r26
    5586:	5b 1e       	adc	r5, r27
    5588:	01 e0       	ldi	r16, 0x01	; 1
    558a:	10 e0       	ldi	r17, 0x00	; 0
    558c:	a2 01       	movw	r20, r4
    558e:	91 01       	movw	r18, r2
    5590:	b3 01       	movw	r22, r6
    5592:	d5 01       	movw	r26, r10
    5594:	11 96       	adiw	r26, 0x01	; 1
    5596:	8c 91       	ld	r24, X
    5598:	0e 94 74 34 	call	0x68e8	; 0x68e8 <disk_write>
    559c:	b1 e0       	ldi	r27, 0x01	; 1
    559e:	8b 1a       	sub	r8, r27
    55a0:	91 08       	sbc	r9, r1
    55a2:	e1 e0       	ldi	r30, 0x01	; 1
    55a4:	8e 16       	cp	r8, r30
    55a6:	91 04       	cpc	r9, r1
    55a8:	09 f4       	brne	.+2      	; 0x55ac <f_open+0xfcc>
    55aa:	1c cf       	rjmp	.-456    	; 0x53e4 <f_open+0xe04>
    55ac:	f5 01       	movw	r30, r10
    55ae:	86 89       	ldd	r24, Z+22	; 0x16
    55b0:	97 89       	ldd	r25, Z+23	; 0x17
    55b2:	a0 8d       	ldd	r26, Z+24	; 0x18
    55b4:	b1 8d       	ldd	r27, Z+25	; 0x19
    55b6:	e4 cf       	rjmp	.-56     	; 0x5580 <f_open+0xfa0>
    55b8:	d5 01       	movw	r26, r10
    55ba:	5e 96       	adiw	r26, 0x1e	; 30
    55bc:	4d 91       	ld	r20, X+
    55be:	5d 91       	ld	r21, X+
    55c0:	6d 91       	ld	r22, X+
    55c2:	7c 91       	ld	r23, X
    55c4:	91 97       	sbiw	r26, 0x21	; 33
    55c6:	d7 01       	movw	r26, r14
    55c8:	c6 01       	movw	r24, r12
    55ca:	e7 e0       	ldi	r30, 0x07	; 7
    55cc:	b6 95       	lsr	r27
    55ce:	a7 95       	ror	r26
    55d0:	97 95       	ror	r25
    55d2:	87 95       	ror	r24
    55d4:	ea 95       	dec	r30
    55d6:	d1 f7       	brne	.-12     	; 0x55cc <f_open+0xfec>
    55d8:	8c 01       	movw	r16, r24
    55da:	9d 01       	movw	r18, r26
    55dc:	04 0f       	add	r16, r20
    55de:	15 1f       	adc	r17, r21
    55e0:	26 1f       	adc	r18, r22
    55e2:	37 1f       	adc	r19, r23
    55e4:	09 a7       	std	Y+41, r16	; 0x29
    55e6:	1a a7       	std	Y+42, r17	; 0x2a
    55e8:	2b a7       	std	Y+43, r18	; 0x2b
    55ea:	3c a7       	std	Y+44, r19	; 0x2c
    55ec:	d5 01       	movw	r26, r10
    55ee:	9a 96       	adiw	r26, 0x2a	; 42
    55f0:	2d 90       	ld	r2, X+
    55f2:	3d 90       	ld	r3, X+
    55f4:	4d 90       	ld	r4, X+
    55f6:	5c 90       	ld	r5, X
    55f8:	9d 97       	sbiw	r26, 0x2d	; 45
    55fa:	02 15       	cp	r16, r2
    55fc:	13 05       	cpc	r17, r3
    55fe:	24 05       	cpc	r18, r4
    5600:	35 05       	cpc	r19, r5
    5602:	f1 f0       	breq	.+60     	; 0x5640 <f_open+0x1060>
    5604:	14 96       	adiw	r26, 0x04	; 4
    5606:	8c 91       	ld	r24, X
    5608:	14 97       	sbiw	r26, 0x04	; 4
    560a:	81 11       	cpse	r24, r1
    560c:	6b c1       	rjmp	.+726    	; 0x58e4 <f_open+0x1304>
    560e:	01 e0       	ldi	r16, 0x01	; 1
    5610:	10 e0       	ldi	r17, 0x00	; 0
    5612:	29 a5       	ldd	r18, Y+41	; 0x29
    5614:	3a a5       	ldd	r19, Y+42	; 0x2a
    5616:	4b a5       	ldd	r20, Y+43	; 0x2b
    5618:	5c a5       	ldd	r21, Y+44	; 0x2c
    561a:	b3 01       	movw	r22, r6
    561c:	d5 01       	movw	r26, r10
    561e:	11 96       	adiw	r26, 0x01	; 1
    5620:	8c 91       	ld	r24, X
    5622:	0e 94 ef 33 	call	0x67de	; 0x67de <disk_read>
    5626:	81 11       	cpse	r24, r1
    5628:	5f ce       	rjmp	.-834    	; 0x52e8 <f_open+0xd08>
    562a:	09 a5       	ldd	r16, Y+41	; 0x29
    562c:	1a a5       	ldd	r17, Y+42	; 0x2a
    562e:	2b a5       	ldd	r18, Y+43	; 0x2b
    5630:	3c a5       	ldd	r19, Y+44	; 0x2c
    5632:	d5 01       	movw	r26, r10
    5634:	9a 96       	adiw	r26, 0x2a	; 42
    5636:	0d 93       	st	X+, r16
    5638:	1d 93       	st	X+, r17
    563a:	2d 93       	st	X+, r18
    563c:	3c 93       	st	X, r19
    563e:	9d 97       	sbiw	r26, 0x2d	; 45
    5640:	d7 01       	movw	r26, r14
    5642:	c6 01       	movw	r24, r12
    5644:	88 0f       	add	r24, r24
    5646:	99 1f       	adc	r25, r25
    5648:	aa 1f       	adc	r26, r26
    564a:	bb 1f       	adc	r27, r27
    564c:	88 0f       	add	r24, r24
    564e:	99 1f       	adc	r25, r25
    5650:	aa 1f       	adc	r26, r26
    5652:	bb 1f       	adc	r27, r27
    5654:	8c 7f       	andi	r24, 0xFC	; 252
    5656:	91 70       	andi	r25, 0x01	; 1
    5658:	aa 27       	eor	r26, r26
    565a:	bb 27       	eor	r27, r27
    565c:	f5 01       	movw	r30, r10
    565e:	e8 0f       	add	r30, r24
    5660:	f9 1f       	adc	r31, r25
    5662:	86 a5       	ldd	r24, Z+46	; 0x2e
    5664:	97 a5       	ldd	r25, Z+47	; 0x2f
    5666:	a0 a9       	ldd	r26, Z+48	; 0x30
    5668:	b1 a9       	ldd	r27, Z+49	; 0x31
    566a:	1c 01       	movw	r2, r24
    566c:	2d 01       	movw	r4, r26
    566e:	ff e0       	ldi	r31, 0x0F	; 15
    5670:	5f 22       	and	r5, r31
    5672:	e5 ce       	rjmp	.-566    	; 0x543e <f_open+0xe5e>
    5674:	41 2c       	mov	r4, r1
    5676:	51 2c       	mov	r5, r1
    5678:	32 01       	movw	r6, r4
    567a:	8b cd       	rjmp	.-1258   	; 0x5192 <f_open+0xbb2>
    567c:	4b 85       	ldd	r20, Y+11	; 0x0b
    567e:	5c 85       	ldd	r21, Y+12	; 0x0c
    5680:	6d 85       	ldd	r22, Y+13	; 0x0d
    5682:	7e 85       	ldd	r23, Y+14	; 0x0e
    5684:	c4 01       	movw	r24, r8
    5686:	0e 94 bb 19 	call	0x3376	; 0x3376 <create_chain>
    568a:	6b 01       	movw	r12, r22
    568c:	7c 01       	movw	r14, r24
    568e:	61 15       	cp	r22, r1
    5690:	71 05       	cpc	r23, r1
    5692:	81 05       	cpc	r24, r1
    5694:	91 05       	cpc	r25, r1
    5696:	09 f4       	brne	.+2      	; 0x569a <f_open+0x10ba>
    5698:	ad c9       	rjmp	.-3238   	; 0x49f4 <f_open+0x414>
    569a:	61 30       	cpi	r22, 0x01	; 1
    569c:	71 05       	cpc	r23, r1
    569e:	81 05       	cpc	r24, r1
    56a0:	91 05       	cpc	r25, r1
    56a2:	09 f4       	brne	.+2      	; 0x56a6 <f_open+0x10c6>
    56a4:	77 cb       	rjmp	.-2322   	; 0x4d94 <f_open+0x7b4>
    56a6:	6f 3f       	cpi	r22, 0xFF	; 255
    56a8:	7f 4f       	sbci	r23, 0xFF	; 255
    56aa:	8f 4f       	sbci	r24, 0xFF	; 255
    56ac:	9f 4f       	sbci	r25, 0xFF	; 255
    56ae:	09 f4       	brne	.+2      	; 0x56b2 <f_open+0x10d2>
    56b0:	75 c0       	rjmp	.+234    	; 0x579c <f_open+0x11bc>
    56b2:	89 81       	ldd	r24, Y+1	; 0x01
    56b4:	9a 81       	ldd	r25, Y+2	; 0x02
    56b6:	dc 01       	movw	r26, r24
    56b8:	14 96       	adiw	r26, 0x04	; 4
    56ba:	2c 91       	ld	r18, X
    56bc:	21 11       	cpse	r18, r1
    56be:	a6 c0       	rjmp	.+332    	; 0x580c <f_open+0x122c>
    56c0:	fc 01       	movw	r30, r24
    56c2:	be 96       	adiw	r30, 0x2e	; 46
    56c4:	df 01       	movw	r26, r30
    56c6:	20 e0       	ldi	r18, 0x00	; 0
    56c8:	32 e0       	ldi	r19, 0x02	; 2
    56ca:	1d 92       	st	X+, r1
    56cc:	21 50       	subi	r18, 0x01	; 1
    56ce:	30 40       	sbci	r19, 0x00	; 0
    56d0:	e1 f7       	brne	.-8      	; 0x56ca <f_open+0x10ea>
    56d2:	89 80       	ldd	r8, Y+1	; 0x01
    56d4:	9a 80       	ldd	r9, Y+2	; 0x02
    56d6:	b7 01       	movw	r22, r14
    56d8:	a6 01       	movw	r20, r12
    56da:	42 50       	subi	r20, 0x02	; 2
    56dc:	51 09       	sbc	r21, r1
    56de:	61 09       	sbc	r22, r1
    56e0:	71 09       	sbc	r23, r1
    56e2:	4d a3       	std	Y+37, r20	; 0x25
    56e4:	5e a3       	std	Y+38, r21	; 0x26
    56e6:	6f a3       	std	Y+39, r22	; 0x27
    56e8:	78 a7       	std	Y+40, r23	; 0x28
    56ea:	f4 01       	movw	r30, r8
    56ec:	82 89       	ldd	r24, Z+18	; 0x12
    56ee:	93 89       	ldd	r25, Z+19	; 0x13
    56f0:	a4 89       	ldd	r26, Z+20	; 0x14
    56f2:	b5 89       	ldd	r27, Z+21	; 0x15
    56f4:	2c 01       	movw	r4, r24
    56f6:	3d 01       	movw	r6, r26
    56f8:	f2 e0       	ldi	r31, 0x02	; 2
    56fa:	4f 1a       	sub	r4, r31
    56fc:	51 08       	sbc	r5, r1
    56fe:	61 08       	sbc	r6, r1
    5700:	71 08       	sbc	r7, r1
    5702:	44 15       	cp	r20, r4
    5704:	55 05       	cpc	r21, r5
    5706:	66 05       	cpc	r22, r6
    5708:	77 05       	cpc	r23, r7
    570a:	08 f4       	brcc	.+2      	; 0x570e <f_open+0x112e>
    570c:	6c c0       	rjmp	.+216    	; 0x57e6 <f_open+0x1206>
    570e:	d4 01       	movw	r26, r8
    5710:	12 96       	adiw	r26, 0x02	; 2
    5712:	3c 90       	ld	r3, X
    5714:	80 e0       	ldi	r24, 0x00	; 0
    5716:	90 e0       	ldi	r25, 0x00	; 0
    5718:	dc 01       	movw	r26, r24
    571a:	f4 01       	movw	r30, r8
    571c:	82 a7       	std	Z+42, r24	; 0x2a
    571e:	93 a7       	std	Z+43, r25	; 0x2b
    5720:	a4 a7       	std	Z+44, r26	; 0x2c
    5722:	b5 a7       	std	Z+45, r27	; 0x2d
    5724:	33 20       	and	r3, r3
    5726:	09 f4       	brne	.+2      	; 0x572a <f_open+0x114a>
    5728:	5a c0       	rjmp	.+180    	; 0x57de <f_open+0x11fe>
    572a:	21 2c       	mov	r2, r1
    572c:	31 2c       	mov	r3, r1
    572e:	21 e0       	ldi	r18, 0x01	; 1
    5730:	24 83       	std	Z+4, r18	; 0x04
    5732:	cf 01       	movw	r24, r30
    5734:	0e 94 da 11 	call	0x23b4	; 0x23b4 <sync_window.part.2>
    5738:	81 11       	cpse	r24, r1
    573a:	30 c0       	rjmp	.+96     	; 0x579c <f_open+0x11bc>
    573c:	e9 81       	ldd	r30, Y+1	; 0x01
    573e:	fa 81       	ldd	r31, Y+2	; 0x02
    5740:	22 81       	ldd	r18, Z+2	; 0x02
    5742:	82 a5       	ldd	r24, Z+42	; 0x2a
    5744:	93 a5       	ldd	r25, Z+43	; 0x2b
    5746:	a4 a5       	ldd	r26, Z+44	; 0x2c
    5748:	b5 a5       	ldd	r27, Z+45	; 0x2d
    574a:	01 96       	adiw	r24, 0x01	; 1
    574c:	a1 1d       	adc	r26, r1
    574e:	b1 1d       	adc	r27, r1
    5750:	82 a7       	std	Z+42, r24	; 0x2a
    5752:	93 a7       	std	Z+43, r25	; 0x2b
    5754:	a4 a7       	std	Z+44, r26	; 0x2c
    5756:	b5 a7       	std	Z+45, r27	; 0x2d
    5758:	3f ef       	ldi	r19, 0xFF	; 255
    575a:	23 1a       	sub	r2, r19
    575c:	33 0a       	sbc	r3, r19
    575e:	30 e0       	ldi	r19, 0x00	; 0
    5760:	22 16       	cp	r2, r18
    5762:	33 06       	cpc	r3, r19
    5764:	20 f3       	brcs	.-56     	; 0x572e <f_open+0x114e>
    5766:	4f 01       	movw	r8, r30
    5768:	91 01       	movw	r18, r2
    576a:	40 e0       	ldi	r20, 0x00	; 0
    576c:	50 e0       	ldi	r21, 0x00	; 0
    576e:	42 88       	ldd	r4, Z+18	; 0x12
    5770:	53 88       	ldd	r5, Z+19	; 0x13
    5772:	64 88       	ldd	r6, Z+20	; 0x14
    5774:	75 88       	ldd	r7, Z+21	; 0x15
    5776:	62 e0       	ldi	r22, 0x02	; 2
    5778:	46 1a       	sub	r4, r22
    577a:	51 08       	sbc	r5, r1
    577c:	61 08       	sbc	r6, r1
    577e:	71 08       	sbc	r7, r1
    5780:	82 1b       	sub	r24, r18
    5782:	93 0b       	sbc	r25, r19
    5784:	a4 0b       	sbc	r26, r20
    5786:	b5 0b       	sbc	r27, r21
    5788:	f4 01       	movw	r30, r8
    578a:	82 a7       	std	Z+42, r24	; 0x2a
    578c:	93 a7       	std	Z+43, r25	; 0x2b
    578e:	a4 a7       	std	Z+44, r26	; 0x2c
    5790:	b5 a7       	std	Z+45, r27	; 0x2d
    5792:	2d a1       	ldd	r18, Y+37	; 0x25
    5794:	3e a1       	ldd	r19, Y+38	; 0x26
    5796:	4f a1       	ldd	r20, Y+39	; 0x27
    5798:	58 a5       	ldd	r21, Y+40	; 0x28
    579a:	e2 cc       	rjmp	.-1596   	; 0x5160 <f_open+0xb80>
    579c:	81 e0       	ldi	r24, 0x01	; 1
    579e:	0c 94 1e 23 	jmp	0x463c	; 0x463c <f_open+0x5c>
    57a2:	2a ac       	ldd	r2, Y+58	; 0x3a
    57a4:	3b ac       	ldd	r3, Y+59	; 0x3b
    57a6:	89 81       	ldd	r24, Y+1	; 0x01
    57a8:	9a 81       	ldd	r25, Y+2	; 0x02
    57aa:	4d a1       	ldd	r20, Y+37	; 0x25
    57ac:	5e a1       	ldd	r21, Y+38	; 0x26
    57ae:	6f a1       	ldd	r22, Y+39	; 0x27
    57b0:	78 a5       	ldd	r23, Y+40	; 0x28
    57b2:	41 50       	subi	r20, 0x01	; 1
    57b4:	51 09       	sbc	r21, r1
    57b6:	61 09       	sbc	r22, r1
    57b8:	71 09       	sbc	r23, r1
    57ba:	fc 01       	movw	r30, r24
    57bc:	42 87       	std	Z+10, r20	; 0x0a
    57be:	53 87       	std	Z+11, r21	; 0x0b
    57c0:	64 87       	std	Z+12, r22	; 0x0c
    57c2:	75 87       	std	Z+13, r23	; 0x0d
    57c4:	4c ad       	ldd	r20, Y+60	; 0x3c
    57c6:	5d ad       	ldd	r21, Y+61	; 0x3d
    57c8:	6e ad       	ldd	r22, Y+62	; 0x3e
    57ca:	7f ad       	ldd	r23, Y+63	; 0x3f
    57cc:	0e 94 37 12 	call	0x246e	; 0x246e <move_window>
    57d0:	81 11       	cpse	r24, r1
    57d2:	0c 94 1e 23 	jmp	0x463c	; 0x463c <f_open+0x5c>
    57d6:	a9 80       	ldd	r10, Y+1	; 0x01
    57d8:	ba 80       	ldd	r11, Y+2	; 0x02
    57da:	0c 94 fa 23 	jmp	0x47f4	; 0x47f4 <f_open+0x214>
    57de:	20 e0       	ldi	r18, 0x00	; 0
    57e0:	30 e0       	ldi	r19, 0x00	; 0
    57e2:	a9 01       	movw	r20, r18
    57e4:	cd cf       	rjmp	.-102    	; 0x5780 <f_open+0x11a0>
    57e6:	9a 01       	movw	r18, r20
    57e8:	ab 01       	movw	r20, r22
    57ea:	f4 01       	movw	r30, r8
    57ec:	32 80       	ldd	r3, Z+2	; 0x02
    57ee:	a3 2d       	mov	r26, r3
    57f0:	b0 e0       	ldi	r27, 0x00	; 0
    57f2:	0e 94 68 3c 	call	0x78d0	; 0x78d0 <__muluhisi3>
    57f6:	26 a1       	ldd	r18, Z+38	; 0x26
    57f8:	37 a1       	ldd	r19, Z+39	; 0x27
    57fa:	40 a5       	ldd	r20, Z+40	; 0x28
    57fc:	51 a5       	ldd	r21, Z+41	; 0x29
    57fe:	dc 01       	movw	r26, r24
    5800:	cb 01       	movw	r24, r22
    5802:	82 0f       	add	r24, r18
    5804:	93 1f       	adc	r25, r19
    5806:	a4 1f       	adc	r26, r20
    5808:	b5 1f       	adc	r27, r21
    580a:	87 cf       	rjmp	.-242    	; 0x571a <f_open+0x113a>
    580c:	0e 94 da 11 	call	0x23b4	; 0x23b4 <sync_window.part.2>
    5810:	81 11       	cpse	r24, r1
    5812:	c4 cf       	rjmp	.-120    	; 0x579c <f_open+0x11bc>
    5814:	89 81       	ldd	r24, Y+1	; 0x01
    5816:	9a 81       	ldd	r25, Y+2	; 0x02
    5818:	53 cf       	rjmp	.-346    	; 0x56c0 <f_open+0x10e0>
    581a:	01 e0       	ldi	r16, 0x01	; 1
    581c:	10 e0       	ldi	r17, 0x00	; 0
    581e:	a2 01       	movw	r20, r4
    5820:	91 01       	movw	r18, r2
    5822:	b3 01       	movw	r22, r6
    5824:	81 81       	ldd	r24, Z+1	; 0x01
    5826:	0e 94 74 34 	call	0x68e8	; 0x68e8 <disk_write>
    582a:	81 11       	cpse	r24, r1
    582c:	b7 cf       	rjmp	.-146    	; 0x579c <f_open+0x11bc>
    582e:	d5 01       	movw	r26, r10
    5830:	14 96       	adiw	r26, 0x04	; 4
    5832:	1c 92       	st	X, r1
    5834:	14 97       	sbiw	r26, 0x04	; 4
    5836:	56 96       	adiw	r26, 0x16	; 22
    5838:	8d 91       	ld	r24, X+
    583a:	9d 91       	ld	r25, X+
    583c:	0d 90       	ld	r0, X+
    583e:	bc 91       	ld	r27, X
    5840:	a0 2d       	mov	r26, r0
    5842:	f5 01       	movw	r30, r10
    5844:	46 8d       	ldd	r20, Z+30	; 0x1e
    5846:	57 8d       	ldd	r21, Z+31	; 0x1f
    5848:	60 a1       	ldd	r22, Z+32	; 0x20
    584a:	71 a1       	ldd	r23, Z+33	; 0x21
    584c:	92 01       	movw	r18, r4
    584e:	81 01       	movw	r16, r2
    5850:	04 1b       	sub	r16, r20
    5852:	15 0b       	sbc	r17, r21
    5854:	26 0b       	sbc	r18, r22
    5856:	37 0b       	sbc	r19, r23
    5858:	08 17       	cp	r16, r24
    585a:	19 07       	cpc	r17, r25
    585c:	2a 07       	cpc	r18, r26
    585e:	3b 07       	cpc	r19, r27
    5860:	08 f0       	brcs	.+2      	; 0x5864 <f_open+0x1284>
    5862:	34 cd       	rjmp	.-1432   	; 0x52cc <f_open+0xcec>
    5864:	83 80       	ldd	r8, Z+3	; 0x03
    5866:	91 2c       	mov	r9, r1
    5868:	12 e0       	ldi	r17, 0x02	; 2
    586a:	81 16       	cp	r8, r17
    586c:	91 04       	cpc	r9, r1
    586e:	08 f4       	brcc	.+2      	; 0x5872 <f_open+0x1292>
    5870:	2d cd       	rjmp	.-1446   	; 0x52cc <f_open+0xcec>
    5872:	28 0e       	add	r2, r24
    5874:	39 1e       	adc	r3, r25
    5876:	4a 1e       	adc	r4, r26
    5878:	5b 1e       	adc	r5, r27
    587a:	01 e0       	ldi	r16, 0x01	; 1
    587c:	10 e0       	ldi	r17, 0x00	; 0
    587e:	a2 01       	movw	r20, r4
    5880:	91 01       	movw	r18, r2
    5882:	b3 01       	movw	r22, r6
    5884:	d5 01       	movw	r26, r10
    5886:	11 96       	adiw	r26, 0x01	; 1
    5888:	8c 91       	ld	r24, X
    588a:	0e 94 74 34 	call	0x68e8	; 0x68e8 <disk_write>
    588e:	b1 e0       	ldi	r27, 0x01	; 1
    5890:	8b 1a       	sub	r8, r27
    5892:	91 08       	sbc	r9, r1
    5894:	e1 e0       	ldi	r30, 0x01	; 1
    5896:	8e 16       	cp	r8, r30
    5898:	91 04       	cpc	r9, r1
    589a:	09 f4       	brne	.+2      	; 0x589e <f_open+0x12be>
    589c:	17 cd       	rjmp	.-1490   	; 0x52cc <f_open+0xcec>
    589e:	f5 01       	movw	r30, r10
    58a0:	86 89       	ldd	r24, Z+22	; 0x16
    58a2:	97 89       	ldd	r25, Z+23	; 0x17
    58a4:	a0 8d       	ldd	r26, Z+24	; 0x18
    58a6:	b1 8d       	ldd	r27, Z+25	; 0x19
    58a8:	e4 cf       	rjmp	.-56     	; 0x5872 <f_open+0x1292>
    58aa:	09 a5       	ldd	r16, Y+41	; 0x29
    58ac:	1a a5       	ldd	r17, Y+42	; 0x2a
    58ae:	2b a5       	ldd	r18, Y+43	; 0x2b
    58b0:	3c a5       	ldd	r19, Y+44	; 0x2c
    58b2:	d5 01       	movw	r26, r10
    58b4:	9a 96       	adiw	r26, 0x2a	; 42
    58b6:	0d 93       	st	X+, r16
    58b8:	1d 93       	st	X+, r17
    58ba:	2d 93       	st	X+, r18
    58bc:	3c 93       	st	X, r19
    58be:	9d 97       	sbiw	r26, 0x2d	; 45
    58c0:	d7 01       	movw	r26, r14
    58c2:	c6 01       	movw	r24, r12
    58c4:	88 0f       	add	r24, r24
    58c6:	99 1f       	adc	r25, r25
    58c8:	aa 1f       	adc	r26, r26
    58ca:	bb 1f       	adc	r27, r27
    58cc:	8e 7f       	andi	r24, 0xFE	; 254
    58ce:	91 70       	andi	r25, 0x01	; 1
    58d0:	aa 27       	eor	r26, r26
    58d2:	bb 27       	eor	r27, r27
    58d4:	f5 01       	movw	r30, r10
    58d6:	e8 0f       	add	r30, r24
    58d8:	f9 1f       	adc	r31, r25
    58da:	26 a4       	ldd	r2, Z+46	; 0x2e
    58dc:	37 a4       	ldd	r3, Z+47	; 0x2f
    58de:	41 2c       	mov	r4, r1
    58e0:	51 2c       	mov	r5, r1
    58e2:	ad cd       	rjmp	.-1190   	; 0x543e <f_open+0xe5e>
    58e4:	01 e0       	ldi	r16, 0x01	; 1
    58e6:	10 e0       	ldi	r17, 0x00	; 0
    58e8:	a2 01       	movw	r20, r4
    58ea:	91 01       	movw	r18, r2
    58ec:	b3 01       	movw	r22, r6
    58ee:	11 96       	adiw	r26, 0x01	; 1
    58f0:	8c 91       	ld	r24, X
    58f2:	0e 94 74 34 	call	0x68e8	; 0x68e8 <disk_write>
    58f6:	81 11       	cpse	r24, r1
    58f8:	51 cf       	rjmp	.-350    	; 0x579c <f_open+0x11bc>
    58fa:	f5 01       	movw	r30, r10
    58fc:	14 82       	std	Z+4, r1	; 0x04
    58fe:	86 89       	ldd	r24, Z+22	; 0x16
    5900:	97 89       	ldd	r25, Z+23	; 0x17
    5902:	a0 8d       	ldd	r26, Z+24	; 0x18
    5904:	b1 8d       	ldd	r27, Z+25	; 0x19
    5906:	46 8d       	ldd	r20, Z+30	; 0x1e
    5908:	57 8d       	ldd	r21, Z+31	; 0x1f
    590a:	60 a1       	ldd	r22, Z+32	; 0x20
    590c:	71 a1       	ldd	r23, Z+33	; 0x21
    590e:	92 01       	movw	r18, r4
    5910:	81 01       	movw	r16, r2
    5912:	04 1b       	sub	r16, r20
    5914:	15 0b       	sbc	r17, r21
    5916:	26 0b       	sbc	r18, r22
    5918:	37 0b       	sbc	r19, r23
    591a:	08 17       	cp	r16, r24
    591c:	19 07       	cpc	r17, r25
    591e:	2a 07       	cpc	r18, r26
    5920:	3b 07       	cpc	r19, r27
    5922:	08 f0       	brcs	.+2      	; 0x5926 <f_open+0x1346>
    5924:	74 ce       	rjmp	.-792    	; 0x560e <f_open+0x102e>
    5926:	83 80       	ldd	r8, Z+3	; 0x03
    5928:	91 2c       	mov	r9, r1
    592a:	12 e0       	ldi	r17, 0x02	; 2
    592c:	81 16       	cp	r8, r17
    592e:	91 04       	cpc	r9, r1
    5930:	08 f4       	brcc	.+2      	; 0x5934 <f_open+0x1354>
    5932:	6d ce       	rjmp	.-806    	; 0x560e <f_open+0x102e>
    5934:	28 0e       	add	r2, r24
    5936:	39 1e       	adc	r3, r25
    5938:	4a 1e       	adc	r4, r26
    593a:	5b 1e       	adc	r5, r27
    593c:	01 e0       	ldi	r16, 0x01	; 1
    593e:	10 e0       	ldi	r17, 0x00	; 0
    5940:	a2 01       	movw	r20, r4
    5942:	91 01       	movw	r18, r2
    5944:	b3 01       	movw	r22, r6
    5946:	d5 01       	movw	r26, r10
    5948:	11 96       	adiw	r26, 0x01	; 1
    594a:	8c 91       	ld	r24, X
    594c:	0e 94 74 34 	call	0x68e8	; 0x68e8 <disk_write>
    5950:	b1 e0       	ldi	r27, 0x01	; 1
    5952:	8b 1a       	sub	r8, r27
    5954:	91 08       	sbc	r9, r1
    5956:	e1 e0       	ldi	r30, 0x01	; 1
    5958:	8e 16       	cp	r8, r30
    595a:	91 04       	cpc	r9, r1
    595c:	09 f4       	brne	.+2      	; 0x5960 <f_open+0x1380>
    595e:	57 ce       	rjmp	.-850    	; 0x560e <f_open+0x102e>
    5960:	f5 01       	movw	r30, r10
    5962:	86 89       	ldd	r24, Z+22	; 0x16
    5964:	97 89       	ldd	r25, Z+23	; 0x17
    5966:	a0 8d       	ldd	r26, Z+24	; 0x18
    5968:	b1 8d       	ldd	r27, Z+25	; 0x19
    596a:	e4 cf       	rjmp	.-56     	; 0x5934 <f_open+0x1354>

0000596c <f_read>:
    596c:	2f 92       	push	r2
    596e:	3f 92       	push	r3
    5970:	4f 92       	push	r4
    5972:	5f 92       	push	r5
    5974:	6f 92       	push	r6
    5976:	7f 92       	push	r7
    5978:	8f 92       	push	r8
    597a:	9f 92       	push	r9
    597c:	af 92       	push	r10
    597e:	bf 92       	push	r11
    5980:	cf 92       	push	r12
    5982:	df 92       	push	r13
    5984:	ef 92       	push	r14
    5986:	ff 92       	push	r15
    5988:	0f 93       	push	r16
    598a:	1f 93       	push	r17
    598c:	cf 93       	push	r28
    598e:	df 93       	push	r29
    5990:	00 d0       	rcall	.+0      	; 0x5992 <f_read+0x26>
    5992:	00 d0       	rcall	.+0      	; 0x5994 <f_read+0x28>
    5994:	cd b7       	in	r28, 0x3d	; 61
    5996:	de b7       	in	r29, 0x3e	; 62
    5998:	9c 83       	std	Y+4, r25	; 0x04
    599a:	8b 83       	std	Y+3, r24	; 0x03
    599c:	6b 01       	movw	r12, r22
    599e:	7a 01       	movw	r14, r20
    59a0:	39 01       	movw	r6, r18
    59a2:	d9 01       	movw	r26, r18
    59a4:	1d 92       	st	X+, r1
    59a6:	1c 92       	st	X, r1
    59a8:	00 97       	sbiw	r24, 0x00	; 0
    59aa:	49 f0       	breq	.+18     	; 0x59be <f_read+0x52>
    59ac:	dc 01       	movw	r26, r24
    59ae:	ed 91       	ld	r30, X+
    59b0:	fc 91       	ld	r31, X
    59b2:	11 97       	sbiw	r26, 0x01	; 1
    59b4:	30 97       	sbiw	r30, 0x00	; 0
    59b6:	19 f0       	breq	.+6      	; 0x59be <f_read+0x52>
    59b8:	80 81       	ld	r24, Z
    59ba:	81 11       	cpse	r24, r1
    59bc:	18 c0       	rjmp	.+48     	; 0x59ee <f_read+0x82>
    59be:	89 e0       	ldi	r24, 0x09	; 9
    59c0:	0f 90       	pop	r0
    59c2:	0f 90       	pop	r0
    59c4:	0f 90       	pop	r0
    59c6:	0f 90       	pop	r0
    59c8:	df 91       	pop	r29
    59ca:	cf 91       	pop	r28
    59cc:	1f 91       	pop	r17
    59ce:	0f 91       	pop	r16
    59d0:	ff 90       	pop	r15
    59d2:	ef 90       	pop	r14
    59d4:	df 90       	pop	r13
    59d6:	cf 90       	pop	r12
    59d8:	bf 90       	pop	r11
    59da:	af 90       	pop	r10
    59dc:	9f 90       	pop	r9
    59de:	8f 90       	pop	r8
    59e0:	7f 90       	pop	r7
    59e2:	6f 90       	pop	r6
    59e4:	5f 90       	pop	r5
    59e6:	4f 90       	pop	r4
    59e8:	3f 90       	pop	r3
    59ea:	2f 90       	pop	r2
    59ec:	08 95       	ret
    59ee:	26 81       	ldd	r18, Z+6	; 0x06
    59f0:	37 81       	ldd	r19, Z+7	; 0x07
    59f2:	12 96       	adiw	r26, 0x02	; 2
    59f4:	8d 91       	ld	r24, X+
    59f6:	9c 91       	ld	r25, X
    59f8:	13 97       	sbiw	r26, 0x03	; 3
    59fa:	28 17       	cp	r18, r24
    59fc:	39 07       	cpc	r19, r25
    59fe:	f9 f6       	brne	.-66     	; 0x59be <f_read+0x52>
    5a00:	81 81       	ldd	r24, Z+1	; 0x01
    5a02:	0e 94 06 33 	call	0x660c	; 0x660c <disk_status>
    5a06:	80 fd       	sbrc	r24, 0
    5a08:	da cf       	rjmp	.-76     	; 0x59be <f_read+0x52>
    5a0a:	ab 81       	ldd	r26, Y+3	; 0x03
    5a0c:	bc 81       	ldd	r27, Y+4	; 0x04
    5a0e:	15 96       	adiw	r26, 0x05	; 5
    5a10:	8c 91       	ld	r24, X
    5a12:	15 97       	sbiw	r26, 0x05	; 5
    5a14:	81 11       	cpse	r24, r1
    5a16:	d4 cf       	rjmp	.-88     	; 0x59c0 <f_read+0x54>
    5a18:	fd 01       	movw	r30, r26
    5a1a:	84 81       	ldd	r24, Z+4	; 0x04
    5a1c:	80 fd       	sbrc	r24, 0
    5a1e:	02 c0       	rjmp	.+4      	; 0x5a24 <f_read+0xb8>
    5a20:	87 e0       	ldi	r24, 0x07	; 7
    5a22:	ce cf       	rjmp	.-100    	; 0x59c0 <f_read+0x54>
    5a24:	86 80       	ldd	r8, Z+6	; 0x06
    5a26:	97 80       	ldd	r9, Z+7	; 0x07
    5a28:	a0 84       	ldd	r10, Z+8	; 0x08
    5a2a:	b1 84       	ldd	r11, Z+9	; 0x09
    5a2c:	82 85       	ldd	r24, Z+10	; 0x0a
    5a2e:	93 85       	ldd	r25, Z+11	; 0x0b
    5a30:	a4 85       	ldd	r26, Z+12	; 0x0c
    5a32:	b5 85       	ldd	r27, Z+13	; 0x0d
    5a34:	88 19       	sub	r24, r8
    5a36:	99 09       	sbc	r25, r9
    5a38:	aa 09       	sbc	r26, r10
    5a3a:	bb 09       	sbc	r27, r11
    5a3c:	a7 01       	movw	r20, r14
    5a3e:	60 e0       	ldi	r22, 0x00	; 0
    5a40:	70 e0       	ldi	r23, 0x00	; 0
    5a42:	84 17       	cp	r24, r20
    5a44:	95 07       	cpc	r25, r21
    5a46:	a6 07       	cpc	r26, r22
    5a48:	b7 07       	cpc	r27, r23
    5a4a:	08 f4       	brcc	.+2      	; 0x5a4e <f_read+0xe2>
    5a4c:	7c 01       	movw	r14, r24
    5a4e:	e1 14       	cp	r14, r1
    5a50:	f1 04       	cpc	r15, r1
    5a52:	09 f4       	brne	.+2      	; 0x5a56 <f_read+0xea>
    5a54:	53 c1       	rjmp	.+678    	; 0x5cfc <f_read+0x390>
    5a56:	8b 81       	ldd	r24, Y+3	; 0x03
    5a58:	9c 81       	ldd	r25, Y+4	; 0x04
    5a5a:	80 96       	adiw	r24, 0x20	; 32
    5a5c:	9a 83       	std	Y+2, r25	; 0x02
    5a5e:	89 83       	std	Y+1, r24	; 0x01
    5a60:	41 2c       	mov	r4, r1
    5a62:	32 e0       	ldi	r19, 0x02	; 2
    5a64:	53 2e       	mov	r5, r19
    5a66:	82 c0       	rjmp	.+260    	; 0x5b6c <f_read+0x200>
    5a68:	ab 81       	ldd	r26, Y+3	; 0x03
    5a6a:	bc 81       	ldd	r27, Y+4	; 0x04
    5a6c:	ed 91       	ld	r30, X+
    5a6e:	fc 91       	ld	r31, X
    5a70:	12 81       	ldd	r17, Z+2	; 0x02
    5a72:	11 50       	subi	r17, 0x01	; 1
    5a74:	d5 01       	movw	r26, r10
    5a76:	c4 01       	movw	r24, r8
    5a78:	29 e0       	ldi	r18, 0x09	; 9
    5a7a:	b6 95       	lsr	r27
    5a7c:	a7 95       	ror	r26
    5a7e:	97 95       	ror	r25
    5a80:	87 95       	ror	r24
    5a82:	2a 95       	dec	r18
    5a84:	d1 f7       	brne	.-12     	; 0x5a7a <f_read+0x10e>
    5a86:	18 23       	and	r17, r24
    5a88:	09 f4       	brne	.+2      	; 0x5a8c <f_read+0x120>
    5a8a:	b0 c0       	rjmp	.+352    	; 0x5bec <f_read+0x280>
    5a8c:	ab 81       	ldd	r26, Y+3	; 0x03
    5a8e:	bc 81       	ldd	r27, Y+4	; 0x04
    5a90:	52 96       	adiw	r26, 0x12	; 18
    5a92:	2d 91       	ld	r18, X+
    5a94:	3d 91       	ld	r19, X+
    5a96:	4d 91       	ld	r20, X+
    5a98:	5c 91       	ld	r21, X
    5a9a:	55 97       	sbiw	r26, 0x15	; 21
    5a9c:	22 50       	subi	r18, 0x02	; 2
    5a9e:	31 09       	sbc	r19, r1
    5aa0:	41 09       	sbc	r20, r1
    5aa2:	51 09       	sbc	r21, r1
    5aa4:	82 89       	ldd	r24, Z+18	; 0x12
    5aa6:	93 89       	ldd	r25, Z+19	; 0x13
    5aa8:	a4 89       	ldd	r26, Z+20	; 0x14
    5aaa:	b5 89       	ldd	r27, Z+21	; 0x15
    5aac:	02 97       	sbiw	r24, 0x02	; 2
    5aae:	a1 09       	sbc	r26, r1
    5ab0:	b1 09       	sbc	r27, r1
    5ab2:	28 17       	cp	r18, r24
    5ab4:	39 07       	cpc	r19, r25
    5ab6:	4a 07       	cpc	r20, r26
    5ab8:	5b 07       	cpc	r21, r27
    5aba:	08 f0       	brcs	.+2      	; 0x5abe <f_read+0x152>
    5abc:	f8 c0       	rjmp	.+496    	; 0x5cae <f_read+0x342>
    5abe:	02 81       	ldd	r16, Z+2	; 0x02
    5ac0:	a0 2f       	mov	r26, r16
    5ac2:	b0 e0       	ldi	r27, 0x00	; 0
    5ac4:	0e 94 68 3c 	call	0x78d0	; 0x78d0 <__muluhisi3>
    5ac8:	86 a0       	ldd	r8, Z+38	; 0x26
    5aca:	97 a0       	ldd	r9, Z+39	; 0x27
    5acc:	a0 a4       	ldd	r10, Z+40	; 0x28
    5ace:	b1 a4       	ldd	r11, Z+41	; 0x29
    5ad0:	86 0e       	add	r8, r22
    5ad2:	97 1e       	adc	r9, r23
    5ad4:	a8 1e       	adc	r10, r24
    5ad6:	b9 1e       	adc	r11, r25
    5ad8:	81 14       	cp	r8, r1
    5ada:	91 04       	cpc	r9, r1
    5adc:	a1 04       	cpc	r10, r1
    5ade:	b1 04       	cpc	r11, r1
    5ae0:	09 f4       	brne	.+2      	; 0x5ae4 <f_read+0x178>
    5ae2:	e5 c0       	rjmp	.+458    	; 0x5cae <f_read+0x342>
    5ae4:	81 0e       	add	r8, r17
    5ae6:	91 1c       	adc	r9, r1
    5ae8:	a1 1c       	adc	r10, r1
    5aea:	b1 1c       	adc	r11, r1
    5aec:	17 01       	movw	r2, r14
    5aee:	23 2c       	mov	r2, r3
    5af0:	33 24       	eor	r3, r3
    5af2:	26 94       	lsr	r2
    5af4:	21 14       	cp	r2, r1
    5af6:	31 04       	cpc	r3, r1
    5af8:	09 f4       	brne	.+2      	; 0x5afc <f_read+0x190>
    5afa:	9c c0       	rjmp	.+312    	; 0x5c34 <f_read+0x2c8>
    5afc:	21 2f       	mov	r18, r17
    5afe:	30 e0       	ldi	r19, 0x00	; 0
    5b00:	a9 01       	movw	r20, r18
    5b02:	42 0d       	add	r20, r2
    5b04:	53 1d       	adc	r21, r3
    5b06:	cd 01       	movw	r24, r26
    5b08:	84 17       	cp	r24, r20
    5b0a:	95 07       	cpc	r25, r21
    5b0c:	18 f4       	brcc	.+6      	; 0x5b14 <f_read+0x1a8>
    5b0e:	1c 01       	movw	r2, r24
    5b10:	22 1a       	sub	r2, r18
    5b12:	33 0a       	sbc	r3, r19
    5b14:	81 01       	movw	r16, r2
    5b16:	a5 01       	movw	r20, r10
    5b18:	94 01       	movw	r18, r8
    5b1a:	b6 01       	movw	r22, r12
    5b1c:	81 81       	ldd	r24, Z+1	; 0x01
    5b1e:	0e 94 ef 33 	call	0x67de	; 0x67de <disk_read>
    5b22:	81 11       	cpse	r24, r1
    5b24:	e3 c0       	rjmp	.+454    	; 0x5cec <f_read+0x380>
    5b26:	b1 01       	movw	r22, r2
    5b28:	76 2f       	mov	r23, r22
    5b2a:	66 27       	eor	r22, r22
    5b2c:	77 0f       	add	r23, r23
    5b2e:	eb 81       	ldd	r30, Y+3	; 0x03
    5b30:	fc 81       	ldd	r31, Y+4	; 0x04
    5b32:	86 80       	ldd	r8, Z+6	; 0x06
    5b34:	97 80       	ldd	r9, Z+7	; 0x07
    5b36:	a0 84       	ldd	r10, Z+8	; 0x08
    5b38:	b1 84       	ldd	r11, Z+9	; 0x09
    5b3a:	c6 0e       	add	r12, r22
    5b3c:	d7 1e       	adc	r13, r23
    5b3e:	86 0e       	add	r8, r22
    5b40:	97 1e       	adc	r9, r23
    5b42:	a1 1c       	adc	r10, r1
    5b44:	b1 1c       	adc	r11, r1
    5b46:	ab 81       	ldd	r26, Y+3	; 0x03
    5b48:	bc 81       	ldd	r27, Y+4	; 0x04
    5b4a:	16 96       	adiw	r26, 0x06	; 6
    5b4c:	8d 92       	st	X+, r8
    5b4e:	9d 92       	st	X+, r9
    5b50:	ad 92       	st	X+, r10
    5b52:	bc 92       	st	X, r11
    5b54:	19 97       	sbiw	r26, 0x09	; 9
    5b56:	f3 01       	movw	r30, r6
    5b58:	80 81       	ld	r24, Z
    5b5a:	91 81       	ldd	r25, Z+1	; 0x01
    5b5c:	86 0f       	add	r24, r22
    5b5e:	97 1f       	adc	r25, r23
    5b60:	91 83       	std	Z+1, r25	; 0x01
    5b62:	80 83       	st	Z, r24
    5b64:	e6 1a       	sub	r14, r22
    5b66:	f7 0a       	sbc	r15, r23
    5b68:	09 f4       	brne	.+2      	; 0x5b6c <f_read+0x200>
    5b6a:	c8 c0       	rjmp	.+400    	; 0x5cfc <f_read+0x390>
    5b6c:	95 01       	movw	r18, r10
    5b6e:	84 01       	movw	r16, r8
    5b70:	11 70       	andi	r17, 0x01	; 1
    5b72:	22 27       	eor	r18, r18
    5b74:	33 27       	eor	r19, r19
    5b76:	01 15       	cp	r16, r1
    5b78:	11 05       	cpc	r17, r1
    5b7a:	21 05       	cpc	r18, r1
    5b7c:	31 05       	cpc	r19, r1
    5b7e:	09 f4       	brne	.+2      	; 0x5b82 <f_read+0x216>
    5b80:	73 cf       	rjmp	.-282    	; 0x5a68 <f_read+0xfc>
    5b82:	c4 01       	movw	r24, r8
    5b84:	91 70       	andi	r25, 0x01	; 1
    5b86:	b2 01       	movw	r22, r4
    5b88:	68 1b       	sub	r22, r24
    5b8a:	79 0b       	sbc	r23, r25
    5b8c:	e6 16       	cp	r14, r22
    5b8e:	f7 06       	cpc	r15, r23
    5b90:	08 f4       	brcc	.+2      	; 0x5b94 <f_read+0x228>
    5b92:	b7 01       	movw	r22, r14
    5b94:	a8 01       	movw	r20, r16
    5b96:	40 5e       	subi	r20, 0xE0	; 224
    5b98:	5f 4f       	sbci	r21, 0xFF	; 255
    5b9a:	8b 81       	ldd	r24, Y+3	; 0x03
    5b9c:	9c 81       	ldd	r25, Y+4	; 0x04
    5b9e:	48 0f       	add	r20, r24
    5ba0:	59 1f       	adc	r21, r25
    5ba2:	61 30       	cpi	r22, 0x01	; 1
    5ba4:	71 05       	cpc	r23, r1
    5ba6:	09 f4       	brne	.+2      	; 0x5baa <f_read+0x23e>
    5ba8:	a7 c0       	rjmp	.+334    	; 0x5cf8 <f_read+0x38c>
    5baa:	da 01       	movw	r26, r20
    5bac:	9b 01       	movw	r18, r22
    5bae:	f6 01       	movw	r30, r12
    5bb0:	8d 91       	ld	r24, X+
    5bb2:	9d 91       	ld	r25, X+
    5bb4:	81 93       	st	Z+, r24
    5bb6:	91 93       	st	Z+, r25
    5bb8:	22 50       	subi	r18, 0x02	; 2
    5bba:	31 09       	sbc	r19, r1
    5bbc:	22 30       	cpi	r18, 0x02	; 2
    5bbe:	31 05       	cpc	r19, r1
    5bc0:	b8 f7       	brcc	.-18     	; 0x5bb0 <f_read+0x244>
    5bc2:	cb 01       	movw	r24, r22
    5bc4:	02 97       	sbiw	r24, 0x02	; 2
    5bc6:	8e 7f       	andi	r24, 0xFE	; 254
    5bc8:	02 96       	adiw	r24, 0x02	; 2
    5bca:	f6 01       	movw	r30, r12
    5bcc:	e8 0f       	add	r30, r24
    5bce:	f9 1f       	adc	r31, r25
    5bd0:	48 0f       	add	r20, r24
    5bd2:	59 1f       	adc	r21, r25
    5bd4:	60 ff       	sbrs	r22, 0
    5bd6:	b1 cf       	rjmp	.-158    	; 0x5b3a <f_read+0x1ce>
    5bd8:	da 01       	movw	r26, r20
    5bda:	8c 91       	ld	r24, X
    5bdc:	80 83       	st	Z, r24
    5bde:	eb 81       	ldd	r30, Y+3	; 0x03
    5be0:	fc 81       	ldd	r31, Y+4	; 0x04
    5be2:	86 80       	ldd	r8, Z+6	; 0x06
    5be4:	97 80       	ldd	r9, Z+7	; 0x07
    5be6:	a0 84       	ldd	r10, Z+8	; 0x08
    5be8:	b1 84       	ldd	r11, Z+9	; 0x09
    5bea:	a7 cf       	rjmp	.-178    	; 0x5b3a <f_read+0x1ce>
    5bec:	89 28       	or	r8, r9
    5bee:	8a 28       	or	r8, r10
    5bf0:	8b 28       	or	r8, r11
    5bf2:	09 f0       	breq	.+2      	; 0x5bf6 <f_read+0x28a>
    5bf4:	61 c0       	rjmp	.+194    	; 0x5cb8 <f_read+0x34c>
    5bf6:	eb 81       	ldd	r30, Y+3	; 0x03
    5bf8:	fc 81       	ldd	r31, Y+4	; 0x04
    5bfa:	66 85       	ldd	r22, Z+14	; 0x0e
    5bfc:	77 85       	ldd	r23, Z+15	; 0x0f
    5bfe:	80 89       	ldd	r24, Z+16	; 0x10
    5c00:	91 89       	ldd	r25, Z+17	; 0x11
    5c02:	62 30       	cpi	r22, 0x02	; 2
    5c04:	71 05       	cpc	r23, r1
    5c06:	81 05       	cpc	r24, r1
    5c08:	91 05       	cpc	r25, r1
    5c0a:	08 f4       	brcc	.+2      	; 0x5c0e <f_read+0x2a2>
    5c0c:	50 c0       	rjmp	.+160    	; 0x5cae <f_read+0x342>
    5c0e:	6f 3f       	cpi	r22, 0xFF	; 255
    5c10:	ff ef       	ldi	r31, 0xFF	; 255
    5c12:	7f 07       	cpc	r23, r31
    5c14:	8f 07       	cpc	r24, r31
    5c16:	9f 07       	cpc	r25, r31
    5c18:	09 f4       	brne	.+2      	; 0x5c1c <f_read+0x2b0>
    5c1a:	68 c0       	rjmp	.+208    	; 0x5cec <f_read+0x380>
    5c1c:	eb 81       	ldd	r30, Y+3	; 0x03
    5c1e:	fc 81       	ldd	r31, Y+4	; 0x04
    5c20:	62 8b       	std	Z+18, r22	; 0x12
    5c22:	73 8b       	std	Z+19, r23	; 0x13
    5c24:	84 8b       	std	Z+20, r24	; 0x14
    5c26:	95 8b       	std	Z+21, r25	; 0x15
    5c28:	01 90       	ld	r0, Z+
    5c2a:	f0 81       	ld	r31, Z
    5c2c:	e0 2d       	mov	r30, r0
    5c2e:	9b 01       	movw	r18, r22
    5c30:	ac 01       	movw	r20, r24
    5c32:	34 cf       	rjmp	.-408    	; 0x5a9c <f_read+0x130>
    5c34:	ab 81       	ldd	r26, Y+3	; 0x03
    5c36:	bc 81       	ldd	r27, Y+4	; 0x04
    5c38:	56 96       	adiw	r26, 0x16	; 22
    5c3a:	2d 91       	ld	r18, X+
    5c3c:	3d 91       	ld	r19, X+
    5c3e:	4d 91       	ld	r20, X+
    5c40:	5c 91       	ld	r21, X
    5c42:	59 97       	sbiw	r26, 0x19	; 25
    5c44:	28 15       	cp	r18, r8
    5c46:	39 05       	cpc	r19, r9
    5c48:	4a 05       	cpc	r20, r10
    5c4a:	5b 05       	cpc	r21, r11
    5c4c:	01 f1       	breq	.+64     	; 0x5c8e <f_read+0x322>
    5c4e:	14 96       	adiw	r26, 0x04	; 4
    5c50:	8c 91       	ld	r24, X
    5c52:	86 ff       	sbrs	r24, 6
    5c54:	11 c0       	rjmp	.+34     	; 0x5c78 <f_read+0x30c>
    5c56:	01 e0       	ldi	r16, 0x01	; 1
    5c58:	10 e0       	ldi	r17, 0x00	; 0
    5c5a:	69 81       	ldd	r22, Y+1	; 0x01
    5c5c:	7a 81       	ldd	r23, Y+2	; 0x02
    5c5e:	81 81       	ldd	r24, Z+1	; 0x01
    5c60:	0e 94 74 34 	call	0x68e8	; 0x68e8 <disk_write>
    5c64:	81 11       	cpse	r24, r1
    5c66:	42 c0       	rjmp	.+132    	; 0x5cec <f_read+0x380>
    5c68:	eb 81       	ldd	r30, Y+3	; 0x03
    5c6a:	fc 81       	ldd	r31, Y+4	; 0x04
    5c6c:	84 81       	ldd	r24, Z+4	; 0x04
    5c6e:	8f 7b       	andi	r24, 0xBF	; 191
    5c70:	84 83       	std	Z+4, r24	; 0x04
    5c72:	01 90       	ld	r0, Z+
    5c74:	f0 81       	ld	r31, Z
    5c76:	e0 2d       	mov	r30, r0
    5c78:	01 e0       	ldi	r16, 0x01	; 1
    5c7a:	10 e0       	ldi	r17, 0x00	; 0
    5c7c:	a5 01       	movw	r20, r10
    5c7e:	94 01       	movw	r18, r8
    5c80:	69 81       	ldd	r22, Y+1	; 0x01
    5c82:	7a 81       	ldd	r23, Y+2	; 0x02
    5c84:	81 81       	ldd	r24, Z+1	; 0x01
    5c86:	0e 94 ef 33 	call	0x67de	; 0x67de <disk_read>
    5c8a:	81 11       	cpse	r24, r1
    5c8c:	2f c0       	rjmp	.+94     	; 0x5cec <f_read+0x380>
    5c8e:	eb 81       	ldd	r30, Y+3	; 0x03
    5c90:	fc 81       	ldd	r31, Y+4	; 0x04
    5c92:	86 8a       	std	Z+22, r8	; 0x16
    5c94:	97 8a       	std	Z+23, r9	; 0x17
    5c96:	a0 8e       	std	Z+24, r10	; 0x18
    5c98:	b1 8e       	std	Z+25, r11	; 0x19
    5c9a:	86 80       	ldd	r8, Z+6	; 0x06
    5c9c:	97 80       	ldd	r9, Z+7	; 0x07
    5c9e:	a0 84       	ldd	r10, Z+8	; 0x08
    5ca0:	b1 84       	ldd	r11, Z+9	; 0x09
    5ca2:	95 01       	movw	r18, r10
    5ca4:	84 01       	movw	r16, r8
    5ca6:	11 70       	andi	r17, 0x01	; 1
    5ca8:	22 27       	eor	r18, r18
    5caa:	33 27       	eor	r19, r19
    5cac:	6a cf       	rjmp	.-300    	; 0x5b82 <f_read+0x216>
    5cae:	82 e0       	ldi	r24, 0x02	; 2
    5cb0:	eb 81       	ldd	r30, Y+3	; 0x03
    5cb2:	fc 81       	ldd	r31, Y+4	; 0x04
    5cb4:	85 83       	std	Z+5, r24	; 0x05
    5cb6:	84 ce       	rjmp	.-760    	; 0x59c0 <f_read+0x54>
    5cb8:	ab 81       	ldd	r26, Y+3	; 0x03
    5cba:	bc 81       	ldd	r27, Y+4	; 0x04
    5cbc:	52 96       	adiw	r26, 0x12	; 18
    5cbe:	4d 91       	ld	r20, X+
    5cc0:	5d 91       	ld	r21, X+
    5cc2:	6d 91       	ld	r22, X+
    5cc4:	7c 91       	ld	r23, X
    5cc6:	55 97       	sbiw	r26, 0x15	; 21
    5cc8:	42 30       	cpi	r20, 0x02	; 2
    5cca:	51 05       	cpc	r21, r1
    5ccc:	61 05       	cpc	r22, r1
    5cce:	71 05       	cpc	r23, r1
    5cd0:	70 f3       	brcs	.-36     	; 0x5cae <f_read+0x342>
    5cd2:	82 89       	ldd	r24, Z+18	; 0x12
    5cd4:	93 89       	ldd	r25, Z+19	; 0x13
    5cd6:	a4 89       	ldd	r26, Z+20	; 0x14
    5cd8:	b5 89       	ldd	r27, Z+21	; 0x15
    5cda:	48 17       	cp	r20, r24
    5cdc:	59 07       	cpc	r21, r25
    5cde:	6a 07       	cpc	r22, r26
    5ce0:	7b 07       	cpc	r23, r27
    5ce2:	28 f7       	brcc	.-54     	; 0x5cae <f_read+0x342>
    5ce4:	cf 01       	movw	r24, r30
    5ce6:	0e 94 23 16 	call	0x2c46	; 0x2c46 <get_fat.part.4>
    5cea:	8b cf       	rjmp	.-234    	; 0x5c02 <f_read+0x296>
    5cec:	81 e0       	ldi	r24, 0x01	; 1
    5cee:	ab 81       	ldd	r26, Y+3	; 0x03
    5cf0:	bc 81       	ldd	r27, Y+4	; 0x04
    5cf2:	15 96       	adiw	r26, 0x05	; 5
    5cf4:	8c 93       	st	X, r24
    5cf6:	64 ce       	rjmp	.-824    	; 0x59c0 <f_read+0x54>
    5cf8:	f6 01       	movw	r30, r12
    5cfa:	6e cf       	rjmp	.-292    	; 0x5bd8 <f_read+0x26c>
    5cfc:	80 e0       	ldi	r24, 0x00	; 0
    5cfe:	60 ce       	rjmp	.-832    	; 0x59c0 <f_read+0x54>

00005d00 <f_write>:
    5d00:	2f 92       	push	r2
    5d02:	3f 92       	push	r3
    5d04:	4f 92       	push	r4
    5d06:	5f 92       	push	r5
    5d08:	6f 92       	push	r6
    5d0a:	7f 92       	push	r7
    5d0c:	8f 92       	push	r8
    5d0e:	9f 92       	push	r9
    5d10:	af 92       	push	r10
    5d12:	bf 92       	push	r11
    5d14:	cf 92       	push	r12
    5d16:	df 92       	push	r13
    5d18:	ef 92       	push	r14
    5d1a:	ff 92       	push	r15
    5d1c:	0f 93       	push	r16
    5d1e:	1f 93       	push	r17
    5d20:	cf 93       	push	r28
    5d22:	df 93       	push	r29
    5d24:	00 d0       	rcall	.+0      	; 0x5d26 <f_write+0x26>
    5d26:	00 d0       	rcall	.+0      	; 0x5d28 <f_write+0x28>
    5d28:	1f 92       	push	r1
    5d2a:	cd b7       	in	r28, 0x3d	; 61
    5d2c:	de b7       	in	r29, 0x3e	; 62
    5d2e:	9d 83       	std	Y+5, r25	; 0x05
    5d30:	8c 83       	std	Y+4, r24	; 0x04
    5d32:	6b 01       	movw	r12, r22
    5d34:	7a 01       	movw	r14, r20
    5d36:	19 01       	movw	r2, r18
    5d38:	d9 01       	movw	r26, r18
    5d3a:	1d 92       	st	X+, r1
    5d3c:	1c 92       	st	X, r1
    5d3e:	00 97       	sbiw	r24, 0x00	; 0
    5d40:	49 f0       	breq	.+18     	; 0x5d54 <f_write+0x54>
    5d42:	dc 01       	movw	r26, r24
    5d44:	ed 91       	ld	r30, X+
    5d46:	fc 91       	ld	r31, X
    5d48:	11 97       	sbiw	r26, 0x01	; 1
    5d4a:	30 97       	sbiw	r30, 0x00	; 0
    5d4c:	19 f0       	breq	.+6      	; 0x5d54 <f_write+0x54>
    5d4e:	80 81       	ld	r24, Z
    5d50:	81 11       	cpse	r24, r1
    5d52:	19 c0       	rjmp	.+50     	; 0x5d86 <f_write+0x86>
    5d54:	89 e0       	ldi	r24, 0x09	; 9
    5d56:	0f 90       	pop	r0
    5d58:	0f 90       	pop	r0
    5d5a:	0f 90       	pop	r0
    5d5c:	0f 90       	pop	r0
    5d5e:	0f 90       	pop	r0
    5d60:	df 91       	pop	r29
    5d62:	cf 91       	pop	r28
    5d64:	1f 91       	pop	r17
    5d66:	0f 91       	pop	r16
    5d68:	ff 90       	pop	r15
    5d6a:	ef 90       	pop	r14
    5d6c:	df 90       	pop	r13
    5d6e:	cf 90       	pop	r12
    5d70:	bf 90       	pop	r11
    5d72:	af 90       	pop	r10
    5d74:	9f 90       	pop	r9
    5d76:	8f 90       	pop	r8
    5d78:	7f 90       	pop	r7
    5d7a:	6f 90       	pop	r6
    5d7c:	5f 90       	pop	r5
    5d7e:	4f 90       	pop	r4
    5d80:	3f 90       	pop	r3
    5d82:	2f 90       	pop	r2
    5d84:	08 95       	ret
    5d86:	26 81       	ldd	r18, Z+6	; 0x06
    5d88:	37 81       	ldd	r19, Z+7	; 0x07
    5d8a:	12 96       	adiw	r26, 0x02	; 2
    5d8c:	8d 91       	ld	r24, X+
    5d8e:	9c 91       	ld	r25, X
    5d90:	13 97       	sbiw	r26, 0x03	; 3
    5d92:	28 17       	cp	r18, r24
    5d94:	39 07       	cpc	r19, r25
    5d96:	f1 f6       	brne	.-68     	; 0x5d54 <f_write+0x54>
    5d98:	81 81       	ldd	r24, Z+1	; 0x01
    5d9a:	0e 94 06 33 	call	0x660c	; 0x660c <disk_status>
    5d9e:	80 fd       	sbrc	r24, 0
    5da0:	d9 cf       	rjmp	.-78     	; 0x5d54 <f_write+0x54>
    5da2:	ac 81       	ldd	r26, Y+4	; 0x04
    5da4:	bd 81       	ldd	r27, Y+5	; 0x05
    5da6:	15 96       	adiw	r26, 0x05	; 5
    5da8:	8c 91       	ld	r24, X
    5daa:	15 97       	sbiw	r26, 0x05	; 5
    5dac:	81 11       	cpse	r24, r1
    5dae:	d3 cf       	rjmp	.-90     	; 0x5d56 <f_write+0x56>
    5db0:	fd 01       	movw	r30, r26
    5db2:	84 81       	ldd	r24, Z+4	; 0x04
    5db4:	81 fd       	sbrc	r24, 1
    5db6:	02 c0       	rjmp	.+4      	; 0x5dbc <f_write+0xbc>
    5db8:	87 e0       	ldi	r24, 0x07	; 7
    5dba:	cd cf       	rjmp	.-102    	; 0x5d56 <f_write+0x56>
    5dbc:	86 80       	ldd	r8, Z+6	; 0x06
    5dbe:	97 80       	ldd	r9, Z+7	; 0x07
    5dc0:	a0 84       	ldd	r10, Z+8	; 0x08
    5dc2:	b1 84       	ldd	r11, Z+9	; 0x09
    5dc4:	b5 01       	movw	r22, r10
    5dc6:	a4 01       	movw	r20, r8
    5dc8:	4e 0d       	add	r20, r14
    5dca:	5f 1d       	adc	r21, r15
    5dcc:	61 1d       	adc	r22, r1
    5dce:	71 1d       	adc	r23, r1
    5dd0:	48 15       	cp	r20, r8
    5dd2:	59 05       	cpc	r21, r9
    5dd4:	6a 05       	cpc	r22, r10
    5dd6:	7b 05       	cpc	r23, r11
    5dd8:	a8 f4       	brcc	.+42     	; 0x5e04 <f_write+0x104>
    5dda:	ec 81       	ldd	r30, Y+4	; 0x04
    5ddc:	fd 81       	ldd	r31, Y+5	; 0x05
    5dde:	42 85       	ldd	r20, Z+10	; 0x0a
    5de0:	53 85       	ldd	r21, Z+11	; 0x0b
    5de2:	64 85       	ldd	r22, Z+12	; 0x0c
    5de4:	75 85       	ldd	r23, Z+13	; 0x0d
    5de6:	48 15       	cp	r20, r8
    5de8:	59 05       	cpc	r21, r9
    5dea:	6a 05       	cpc	r22, r10
    5dec:	7b 05       	cpc	r23, r11
    5dee:	30 f4       	brcc	.+12     	; 0x5dfc <f_write+0xfc>
    5df0:	82 86       	std	Z+10, r8	; 0x0a
    5df2:	93 86       	std	Z+11, r9	; 0x0b
    5df4:	a4 86       	std	Z+12, r10	; 0x0c
    5df6:	b5 86       	std	Z+13, r11	; 0x0d
    5df8:	ec 81       	ldd	r30, Y+4	; 0x04
    5dfa:	fd 81       	ldd	r31, Y+5	; 0x05
    5dfc:	80 62       	ori	r24, 0x20	; 32
    5dfe:	84 83       	std	Z+4, r24	; 0x04
    5e00:	80 e0       	ldi	r24, 0x00	; 0
    5e02:	a9 cf       	rjmp	.-174    	; 0x5d56 <f_write+0x56>
    5e04:	e1 14       	cp	r14, r1
    5e06:	f1 04       	cpc	r15, r1
    5e08:	41 f3       	breq	.-48     	; 0x5dda <f_write+0xda>
    5e0a:	b0 96       	adiw	r30, 0x20	; 32
    5e0c:	fb 83       	std	Y+3, r31	; 0x03
    5e0e:	ea 83       	std	Y+2, r30	; 0x02
    5e10:	bf c0       	rjmp	.+382    	; 0x5f90 <f_write+0x290>
    5e12:	ac 81       	ldd	r26, Y+4	; 0x04
    5e14:	bd 81       	ldd	r27, Y+5	; 0x05
    5e16:	ed 91       	ld	r30, X+
    5e18:	fc 91       	ld	r31, X
    5e1a:	11 97       	sbiw	r26, 0x01	; 1
    5e1c:	22 81       	ldd	r18, Z+2	; 0x02
    5e1e:	21 50       	subi	r18, 0x01	; 1
    5e20:	b5 01       	movw	r22, r10
    5e22:	a4 01       	movw	r20, r8
    5e24:	39 e0       	ldi	r19, 0x09	; 9
    5e26:	76 95       	lsr	r23
    5e28:	67 95       	ror	r22
    5e2a:	57 95       	ror	r21
    5e2c:	47 95       	ror	r20
    5e2e:	3a 95       	dec	r19
    5e30:	d1 f7       	brne	.-12     	; 0x5e26 <f_write+0x126>
    5e32:	24 23       	and	r18, r20
    5e34:	29 83       	std	Y+1, r18	; 0x01
    5e36:	21 11       	cpse	r18, r1
    5e38:	39 c0       	rjmp	.+114    	; 0x5eac <f_write+0x1ac>
    5e3a:	89 28       	or	r8, r9
    5e3c:	8a 28       	or	r8, r10
    5e3e:	8b 28       	or	r8, r11
    5e40:	09 f0       	breq	.+2      	; 0x5e44 <f_write+0x144>
    5e42:	3c c1       	rjmp	.+632    	; 0x60bc <f_write+0x3bc>
    5e44:	1e 96       	adiw	r26, 0x0e	; 14
    5e46:	6d 91       	ld	r22, X+
    5e48:	7d 91       	ld	r23, X+
    5e4a:	8d 91       	ld	r24, X+
    5e4c:	9c 91       	ld	r25, X
    5e4e:	51 97       	sbiw	r26, 0x11	; 17
    5e50:	61 15       	cp	r22, r1
    5e52:	71 05       	cpc	r23, r1
    5e54:	81 05       	cpc	r24, r1
    5e56:	91 05       	cpc	r25, r1
    5e58:	09 f4       	brne	.+2      	; 0x5e5c <f_write+0x15c>
    5e5a:	4b c1       	rjmp	.+662    	; 0x60f2 <f_write+0x3f2>
    5e5c:	61 30       	cpi	r22, 0x01	; 1
    5e5e:	71 05       	cpc	r23, r1
    5e60:	81 05       	cpc	r24, r1
    5e62:	91 05       	cpc	r25, r1
    5e64:	09 f4       	brne	.+2      	; 0x5e68 <f_write+0x168>
    5e66:	60 c1       	rjmp	.+704    	; 0x6128 <f_write+0x428>
    5e68:	6f 3f       	cpi	r22, 0xFF	; 255
    5e6a:	bf ef       	ldi	r27, 0xFF	; 255
    5e6c:	7b 07       	cpc	r23, r27
    5e6e:	8b 07       	cpc	r24, r27
    5e70:	9b 07       	cpc	r25, r27
    5e72:	09 f4       	brne	.+2      	; 0x5e76 <f_write+0x176>
    5e74:	1e c1       	rjmp	.+572    	; 0x60b2 <f_write+0x3b2>
    5e76:	ac 81       	ldd	r26, Y+4	; 0x04
    5e78:	bd 81       	ldd	r27, Y+5	; 0x05
    5e7a:	52 96       	adiw	r26, 0x12	; 18
    5e7c:	6d 93       	st	X+, r22
    5e7e:	7d 93       	st	X+, r23
    5e80:	8d 93       	st	X+, r24
    5e82:	9c 93       	st	X, r25
    5e84:	55 97       	sbiw	r26, 0x15	; 21
    5e86:	1e 96       	adiw	r26, 0x0e	; 14
    5e88:	8d 90       	ld	r8, X+
    5e8a:	9d 90       	ld	r9, X+
    5e8c:	ad 90       	ld	r10, X+
    5e8e:	bc 90       	ld	r11, X
    5e90:	51 97       	sbiw	r26, 0x11	; 17
    5e92:	89 28       	or	r8, r9
    5e94:	8a 28       	or	r8, r10
    5e96:	8b 28       	or	r8, r11
    5e98:	29 f4       	brne	.+10     	; 0x5ea4 <f_write+0x1a4>
    5e9a:	fd 01       	movw	r30, r26
    5e9c:	66 87       	std	Z+14, r22	; 0x0e
    5e9e:	77 87       	std	Z+15, r23	; 0x0f
    5ea0:	80 8b       	std	Z+16, r24	; 0x10
    5ea2:	91 8b       	std	Z+17, r25	; 0x11
    5ea4:	ed 91       	ld	r30, X+
    5ea6:	fc 91       	ld	r31, X
    5ea8:	ac 81       	ldd	r26, Y+4	; 0x04
    5eaa:	bd 81       	ldd	r27, Y+5	; 0x05
    5eac:	14 96       	adiw	r26, 0x04	; 4
    5eae:	8c 91       	ld	r24, X
    5eb0:	14 97       	sbiw	r26, 0x04	; 4
    5eb2:	86 fd       	sbrc	r24, 6
    5eb4:	e4 c0       	rjmp	.+456    	; 0x607e <f_write+0x37e>
    5eb6:	52 96       	adiw	r26, 0x12	; 18
    5eb8:	2d 91       	ld	r18, X+
    5eba:	3d 91       	ld	r19, X+
    5ebc:	4d 91       	ld	r20, X+
    5ebe:	5c 91       	ld	r21, X
    5ec0:	55 97       	sbiw	r26, 0x15	; 21
    5ec2:	22 50       	subi	r18, 0x02	; 2
    5ec4:	31 09       	sbc	r19, r1
    5ec6:	41 09       	sbc	r20, r1
    5ec8:	51 09       	sbc	r21, r1
    5eca:	82 89       	ldd	r24, Z+18	; 0x12
    5ecc:	93 89       	ldd	r25, Z+19	; 0x13
    5ece:	a4 89       	ldd	r26, Z+20	; 0x14
    5ed0:	b5 89       	ldd	r27, Z+21	; 0x15
    5ed2:	02 97       	sbiw	r24, 0x02	; 2
    5ed4:	a1 09       	sbc	r26, r1
    5ed6:	b1 09       	sbc	r27, r1
    5ed8:	28 17       	cp	r18, r24
    5eda:	39 07       	cpc	r19, r25
    5edc:	4a 07       	cpc	r20, r26
    5ede:	5b 07       	cpc	r21, r27
    5ee0:	08 f0       	brcs	.+2      	; 0x5ee4 <f_write+0x1e4>
    5ee2:	22 c1       	rjmp	.+580    	; 0x6128 <f_write+0x428>
    5ee4:	92 80       	ldd	r9, Z+2	; 0x02
    5ee6:	a9 2d       	mov	r26, r9
    5ee8:	b0 e0       	ldi	r27, 0x00	; 0
    5eea:	0e 94 68 3c 	call	0x78d0	; 0x78d0 <__muluhisi3>
    5eee:	46 a0       	ldd	r4, Z+38	; 0x26
    5ef0:	57 a0       	ldd	r5, Z+39	; 0x27
    5ef2:	60 a4       	ldd	r6, Z+40	; 0x28
    5ef4:	71 a4       	ldd	r7, Z+41	; 0x29
    5ef6:	46 0e       	add	r4, r22
    5ef8:	57 1e       	adc	r5, r23
    5efa:	68 1e       	adc	r6, r24
    5efc:	79 1e       	adc	r7, r25
    5efe:	41 14       	cp	r4, r1
    5f00:	51 04       	cpc	r5, r1
    5f02:	61 04       	cpc	r6, r1
    5f04:	71 04       	cpc	r7, r1
    5f06:	09 f4       	brne	.+2      	; 0x5f0a <f_write+0x20a>
    5f08:	0f c1       	rjmp	.+542    	; 0x6128 <f_write+0x428>
    5f0a:	b9 81       	ldd	r27, Y+1	; 0x01
    5f0c:	4b 0e       	add	r4, r27
    5f0e:	51 1c       	adc	r5, r1
    5f10:	61 1c       	adc	r6, r1
    5f12:	71 1c       	adc	r7, r1
    5f14:	57 01       	movw	r10, r14
    5f16:	ab 2c       	mov	r10, r11
    5f18:	bb 24       	eor	r11, r11
    5f1a:	a6 94       	lsr	r10
    5f1c:	a1 14       	cp	r10, r1
    5f1e:	b1 04       	cpc	r11, r1
    5f20:	09 f4       	brne	.+2      	; 0x5f24 <f_write+0x224>
    5f22:	81 c0       	rjmp	.+258    	; 0x6026 <f_write+0x326>
    5f24:	2b 2f       	mov	r18, r27
    5f26:	30 e0       	ldi	r19, 0x00	; 0
    5f28:	a9 01       	movw	r20, r18
    5f2a:	4a 0d       	add	r20, r10
    5f2c:	5b 1d       	adc	r21, r11
    5f2e:	89 2d       	mov	r24, r9
    5f30:	90 e0       	ldi	r25, 0x00	; 0
    5f32:	84 17       	cp	r24, r20
    5f34:	95 07       	cpc	r25, r21
    5f36:	18 f4       	brcc	.+6      	; 0x5f3e <f_write+0x23e>
    5f38:	5c 01       	movw	r10, r24
    5f3a:	a2 1a       	sub	r10, r18
    5f3c:	b3 0a       	sbc	r11, r19
    5f3e:	85 01       	movw	r16, r10
    5f40:	a3 01       	movw	r20, r6
    5f42:	92 01       	movw	r18, r4
    5f44:	b6 01       	movw	r22, r12
    5f46:	81 81       	ldd	r24, Z+1	; 0x01
    5f48:	0e 94 74 34 	call	0x68e8	; 0x68e8 <disk_write>
    5f4c:	81 11       	cpse	r24, r1
    5f4e:	b1 c0       	rjmp	.+354    	; 0x60b2 <f_write+0x3b2>
    5f50:	b5 01       	movw	r22, r10
    5f52:	76 2f       	mov	r23, r22
    5f54:	66 27       	eor	r22, r22
    5f56:	77 0f       	add	r23, r23
    5f58:	ec 81       	ldd	r30, Y+4	; 0x04
    5f5a:	fd 81       	ldd	r31, Y+5	; 0x05
    5f5c:	86 80       	ldd	r8, Z+6	; 0x06
    5f5e:	97 80       	ldd	r9, Z+7	; 0x07
    5f60:	a0 84       	ldd	r10, Z+8	; 0x08
    5f62:	b1 84       	ldd	r11, Z+9	; 0x09
    5f64:	c6 0e       	add	r12, r22
    5f66:	d7 1e       	adc	r13, r23
    5f68:	86 0e       	add	r8, r22
    5f6a:	97 1e       	adc	r9, r23
    5f6c:	a1 1c       	adc	r10, r1
    5f6e:	b1 1c       	adc	r11, r1
    5f70:	86 82       	std	Z+6, r8	; 0x06
    5f72:	97 82       	std	Z+7, r9	; 0x07
    5f74:	a0 86       	std	Z+8, r10	; 0x08
    5f76:	b1 86       	std	Z+9, r11	; 0x09
    5f78:	d1 01       	movw	r26, r2
    5f7a:	8d 91       	ld	r24, X+
    5f7c:	9c 91       	ld	r25, X
    5f7e:	11 97       	sbiw	r26, 0x01	; 1
    5f80:	86 0f       	add	r24, r22
    5f82:	97 1f       	adc	r25, r23
    5f84:	8d 93       	st	X+, r24
    5f86:	9c 93       	st	X, r25
    5f88:	e6 1a       	sub	r14, r22
    5f8a:	f7 0a       	sbc	r15, r23
    5f8c:	09 f4       	brne	.+2      	; 0x5f90 <f_write+0x290>
    5f8e:	ca c0       	rjmp	.+404    	; 0x6124 <f_write+0x424>
    5f90:	24 01       	movw	r4, r8
    5f92:	35 01       	movw	r6, r10
    5f94:	f1 e0       	ldi	r31, 0x01	; 1
    5f96:	5f 22       	and	r5, r31
    5f98:	66 24       	eor	r6, r6
    5f9a:	77 24       	eor	r7, r7
    5f9c:	41 14       	cp	r4, r1
    5f9e:	51 04       	cpc	r5, r1
    5fa0:	61 04       	cpc	r6, r1
    5fa2:	71 04       	cpc	r7, r1
    5fa4:	09 f4       	brne	.+2      	; 0x5fa8 <f_write+0x2a8>
    5fa6:	35 cf       	rjmp	.-406    	; 0x5e12 <f_write+0x112>
    5fa8:	c4 01       	movw	r24, r8
    5faa:	91 70       	andi	r25, 0x01	; 1
    5fac:	60 e0       	ldi	r22, 0x00	; 0
    5fae:	72 e0       	ldi	r23, 0x02	; 2
    5fb0:	68 1b       	sub	r22, r24
    5fb2:	79 0b       	sbc	r23, r25
    5fb4:	e6 16       	cp	r14, r22
    5fb6:	f7 06       	cpc	r15, r23
    5fb8:	08 f4       	brcc	.+2      	; 0x5fbc <f_write+0x2bc>
    5fba:	b7 01       	movw	r22, r14
    5fbc:	a2 01       	movw	r20, r4
    5fbe:	40 5e       	subi	r20, 0xE0	; 224
    5fc0:	5f 4f       	sbci	r21, 0xFF	; 255
    5fc2:	8c 81       	ldd	r24, Y+4	; 0x04
    5fc4:	9d 81       	ldd	r25, Y+5	; 0x05
    5fc6:	48 0f       	add	r20, r24
    5fc8:	59 1f       	adc	r21, r25
    5fca:	61 30       	cpi	r22, 0x01	; 1
    5fcc:	71 05       	cpc	r23, r1
    5fce:	09 f4       	brne	.+2      	; 0x5fd2 <f_write+0x2d2>
    5fd0:	8e c0       	rjmp	.+284    	; 0x60ee <f_write+0x3ee>
    5fd2:	d6 01       	movw	r26, r12
    5fd4:	9b 01       	movw	r18, r22
    5fd6:	fa 01       	movw	r30, r20
    5fd8:	8d 91       	ld	r24, X+
    5fda:	9d 91       	ld	r25, X+
    5fdc:	81 93       	st	Z+, r24
    5fde:	91 93       	st	Z+, r25
    5fe0:	22 50       	subi	r18, 0x02	; 2
    5fe2:	31 09       	sbc	r19, r1
    5fe4:	22 30       	cpi	r18, 0x02	; 2
    5fe6:	31 05       	cpc	r19, r1
    5fe8:	b8 f7       	brcc	.-18     	; 0x5fd8 <f_write+0x2d8>
    5fea:	fb 01       	movw	r30, r22
    5fec:	32 97       	sbiw	r30, 0x02	; 2
    5fee:	ee 7f       	andi	r30, 0xFE	; 254
    5ff0:	32 96       	adiw	r30, 0x02	; 2
    5ff2:	4e 0f       	add	r20, r30
    5ff4:	5f 1f       	adc	r21, r31
    5ff6:	ec 0d       	add	r30, r12
    5ff8:	fd 1d       	adc	r31, r13
    5ffa:	60 ff       	sbrs	r22, 0
    5ffc:	09 c0       	rjmp	.+18     	; 0x6010 <f_write+0x310>
    5ffe:	80 81       	ld	r24, Z
    6000:	da 01       	movw	r26, r20
    6002:	8c 93       	st	X, r24
    6004:	ec 81       	ldd	r30, Y+4	; 0x04
    6006:	fd 81       	ldd	r31, Y+5	; 0x05
    6008:	86 80       	ldd	r8, Z+6	; 0x06
    600a:	97 80       	ldd	r9, Z+7	; 0x07
    600c:	a0 84       	ldd	r10, Z+8	; 0x08
    600e:	b1 84       	ldd	r11, Z+9	; 0x09
    6010:	ac 81       	ldd	r26, Y+4	; 0x04
    6012:	bd 81       	ldd	r27, Y+5	; 0x05
    6014:	14 96       	adiw	r26, 0x04	; 4
    6016:	8c 91       	ld	r24, X
    6018:	14 97       	sbiw	r26, 0x04	; 4
    601a:	80 64       	ori	r24, 0x40	; 64
    601c:	14 96       	adiw	r26, 0x04	; 4
    601e:	8c 93       	st	X, r24
    6020:	14 97       	sbiw	r26, 0x04	; 4
    6022:	fd 01       	movw	r30, r26
    6024:	9f cf       	rjmp	.-194    	; 0x5f64 <f_write+0x264>
    6026:	ac 81       	ldd	r26, Y+4	; 0x04
    6028:	bd 81       	ldd	r27, Y+5	; 0x05
    602a:	56 96       	adiw	r26, 0x16	; 22
    602c:	4d 91       	ld	r20, X+
    602e:	5d 91       	ld	r21, X+
    6030:	6d 91       	ld	r22, X+
    6032:	7c 91       	ld	r23, X
    6034:	59 97       	sbiw	r26, 0x19	; 25
    6036:	16 96       	adiw	r26, 0x06	; 6
    6038:	8d 90       	ld	r8, X+
    603a:	9d 90       	ld	r9, X+
    603c:	ad 90       	ld	r10, X+
    603e:	bc 90       	ld	r11, X
    6040:	19 97       	sbiw	r26, 0x09	; 9
    6042:	44 15       	cp	r20, r4
    6044:	55 05       	cpc	r21, r5
    6046:	66 05       	cpc	r22, r6
    6048:	77 05       	cpc	r23, r7
    604a:	61 f0       	breq	.+24     	; 0x6064 <f_write+0x364>
    604c:	1a 96       	adiw	r26, 0x0a	; 10
    604e:	4d 91       	ld	r20, X+
    6050:	5d 91       	ld	r21, X+
    6052:	6d 91       	ld	r22, X+
    6054:	7c 91       	ld	r23, X
    6056:	1d 97       	sbiw	r26, 0x0d	; 13
    6058:	84 16       	cp	r8, r20
    605a:	95 06       	cpc	r9, r21
    605c:	a6 06       	cpc	r10, r22
    605e:	b7 06       	cpc	r11, r23
    6060:	08 f4       	brcc	.+2      	; 0x6064 <f_write+0x364>
    6062:	4e c0       	rjmp	.+156    	; 0x6100 <f_write+0x400>
    6064:	ec 81       	ldd	r30, Y+4	; 0x04
    6066:	fd 81       	ldd	r31, Y+5	; 0x05
    6068:	46 8a       	std	Z+22, r4	; 0x16
    606a:	57 8a       	std	Z+23, r5	; 0x17
    606c:	60 8e       	std	Z+24, r6	; 0x18
    606e:	71 8e       	std	Z+25, r7	; 0x19
    6070:	24 01       	movw	r4, r8
    6072:	35 01       	movw	r6, r10
    6074:	f1 e0       	ldi	r31, 0x01	; 1
    6076:	5f 22       	and	r5, r31
    6078:	66 24       	eor	r6, r6
    607a:	77 24       	eor	r7, r7
    607c:	95 cf       	rjmp	.-214    	; 0x5fa8 <f_write+0x2a8>
    607e:	56 96       	adiw	r26, 0x16	; 22
    6080:	2d 91       	ld	r18, X+
    6082:	3d 91       	ld	r19, X+
    6084:	4d 91       	ld	r20, X+
    6086:	5c 91       	ld	r21, X
    6088:	59 97       	sbiw	r26, 0x19	; 25
    608a:	01 e0       	ldi	r16, 0x01	; 1
    608c:	10 e0       	ldi	r17, 0x00	; 0
    608e:	6a 81       	ldd	r22, Y+2	; 0x02
    6090:	7b 81       	ldd	r23, Y+3	; 0x03
    6092:	81 81       	ldd	r24, Z+1	; 0x01
    6094:	0e 94 74 34 	call	0x68e8	; 0x68e8 <disk_write>
    6098:	81 11       	cpse	r24, r1
    609a:	0b c0       	rjmp	.+22     	; 0x60b2 <f_write+0x3b2>
    609c:	ec 81       	ldd	r30, Y+4	; 0x04
    609e:	fd 81       	ldd	r31, Y+5	; 0x05
    60a0:	84 81       	ldd	r24, Z+4	; 0x04
    60a2:	8f 7b       	andi	r24, 0xBF	; 191
    60a4:	84 83       	std	Z+4, r24	; 0x04
    60a6:	01 90       	ld	r0, Z+
    60a8:	f0 81       	ld	r31, Z
    60aa:	e0 2d       	mov	r30, r0
    60ac:	ac 81       	ldd	r26, Y+4	; 0x04
    60ae:	bd 81       	ldd	r27, Y+5	; 0x05
    60b0:	02 cf       	rjmp	.-508    	; 0x5eb6 <f_write+0x1b6>
    60b2:	81 e0       	ldi	r24, 0x01	; 1
    60b4:	ec 81       	ldd	r30, Y+4	; 0x04
    60b6:	fd 81       	ldd	r31, Y+5	; 0x05
    60b8:	85 83       	std	Z+5, r24	; 0x05
    60ba:	4d ce       	rjmp	.-870    	; 0x5d56 <f_write+0x56>
    60bc:	ac 81       	ldd	r26, Y+4	; 0x04
    60be:	bd 81       	ldd	r27, Y+5	; 0x05
    60c0:	52 96       	adiw	r26, 0x12	; 18
    60c2:	4d 91       	ld	r20, X+
    60c4:	5d 91       	ld	r21, X+
    60c6:	6d 91       	ld	r22, X+
    60c8:	7c 91       	ld	r23, X
    60ca:	55 97       	sbiw	r26, 0x15	; 21
    60cc:	cf 01       	movw	r24, r30
    60ce:	0e 94 bb 19 	call	0x3376	; 0x3376 <create_chain>
    60d2:	61 15       	cp	r22, r1
    60d4:	71 05       	cpc	r23, r1
    60d6:	81 05       	cpc	r24, r1
    60d8:	91 05       	cpc	r25, r1
    60da:	09 f0       	breq	.+2      	; 0x60de <f_write+0x3de>
    60dc:	bf ce       	rjmp	.-642    	; 0x5e5c <f_write+0x15c>
    60de:	ec 81       	ldd	r30, Y+4	; 0x04
    60e0:	fd 81       	ldd	r31, Y+5	; 0x05
    60e2:	86 80       	ldd	r8, Z+6	; 0x06
    60e4:	97 80       	ldd	r9, Z+7	; 0x07
    60e6:	a0 84       	ldd	r10, Z+8	; 0x08
    60e8:	b1 84       	ldd	r11, Z+9	; 0x09
    60ea:	84 81       	ldd	r24, Z+4	; 0x04
    60ec:	76 ce       	rjmp	.-788    	; 0x5dda <f_write+0xda>
    60ee:	f6 01       	movw	r30, r12
    60f0:	86 cf       	rjmp	.-244    	; 0x5ffe <f_write+0x2fe>
    60f2:	40 e0       	ldi	r20, 0x00	; 0
    60f4:	50 e0       	ldi	r21, 0x00	; 0
    60f6:	ba 01       	movw	r22, r20
    60f8:	cf 01       	movw	r24, r30
    60fa:	0e 94 bb 19 	call	0x3376	; 0x3376 <create_chain>
    60fe:	e9 cf       	rjmp	.-46     	; 0x60d2 <f_write+0x3d2>
    6100:	01 e0       	ldi	r16, 0x01	; 1
    6102:	10 e0       	ldi	r17, 0x00	; 0
    6104:	a3 01       	movw	r20, r6
    6106:	92 01       	movw	r18, r4
    6108:	6a 81       	ldd	r22, Y+2	; 0x02
    610a:	7b 81       	ldd	r23, Y+3	; 0x03
    610c:	81 81       	ldd	r24, Z+1	; 0x01
    610e:	0e 94 ef 33 	call	0x67de	; 0x67de <disk_read>
    6112:	81 11       	cpse	r24, r1
    6114:	ce cf       	rjmp	.-100    	; 0x60b2 <f_write+0x3b2>
    6116:	ec 81       	ldd	r30, Y+4	; 0x04
    6118:	fd 81       	ldd	r31, Y+5	; 0x05
    611a:	86 80       	ldd	r8, Z+6	; 0x06
    611c:	97 80       	ldd	r9, Z+7	; 0x07
    611e:	a0 84       	ldd	r10, Z+8	; 0x08
    6120:	b1 84       	ldd	r11, Z+9	; 0x09
    6122:	a0 cf       	rjmp	.-192    	; 0x6064 <f_write+0x364>
    6124:	84 81       	ldd	r24, Z+4	; 0x04
    6126:	59 ce       	rjmp	.-846    	; 0x5dda <f_write+0xda>
    6128:	82 e0       	ldi	r24, 0x02	; 2
    612a:	ac 81       	ldd	r26, Y+4	; 0x04
    612c:	bd 81       	ldd	r27, Y+5	; 0x05
    612e:	15 96       	adiw	r26, 0x05	; 5
    6130:	8c 93       	st	X, r24
    6132:	11 ce       	rjmp	.-990    	; 0x5d56 <f_write+0x56>

00006134 <f_close>:
    6134:	2f 92       	push	r2
    6136:	3f 92       	push	r3
    6138:	4f 92       	push	r4
    613a:	5f 92       	push	r5
    613c:	6f 92       	push	r6
    613e:	7f 92       	push	r7
    6140:	8f 92       	push	r8
    6142:	9f 92       	push	r9
    6144:	af 92       	push	r10
    6146:	bf 92       	push	r11
    6148:	cf 92       	push	r12
    614a:	df 92       	push	r13
    614c:	ef 92       	push	r14
    614e:	ff 92       	push	r15
    6150:	0f 93       	push	r16
    6152:	1f 93       	push	r17
    6154:	cf 93       	push	r28
    6156:	df 93       	push	r29
    6158:	00 97       	sbiw	r24, 0x00	; 0
    615a:	49 f0       	breq	.+18     	; 0x616e <f_close+0x3a>
    615c:	dc 01       	movw	r26, r24
    615e:	ed 91       	ld	r30, X+
    6160:	fc 91       	ld	r31, X
    6162:	11 97       	sbiw	r26, 0x01	; 1
    6164:	30 97       	sbiw	r30, 0x00	; 0
    6166:	19 f0       	breq	.+6      	; 0x616e <f_close+0x3a>
    6168:	20 81       	ld	r18, Z
    616a:	21 11       	cpse	r18, r1
    616c:	14 c0       	rjmp	.+40     	; 0x6196 <f_close+0x62>
    616e:	89 e0       	ldi	r24, 0x09	; 9
    6170:	df 91       	pop	r29
    6172:	cf 91       	pop	r28
    6174:	1f 91       	pop	r17
    6176:	0f 91       	pop	r16
    6178:	ff 90       	pop	r15
    617a:	ef 90       	pop	r14
    617c:	df 90       	pop	r13
    617e:	cf 90       	pop	r12
    6180:	bf 90       	pop	r11
    6182:	af 90       	pop	r10
    6184:	9f 90       	pop	r9
    6186:	8f 90       	pop	r8
    6188:	7f 90       	pop	r7
    618a:	6f 90       	pop	r6
    618c:	5f 90       	pop	r5
    618e:	4f 90       	pop	r4
    6190:	3f 90       	pop	r3
    6192:	2f 90       	pop	r2
    6194:	08 95       	ret
    6196:	46 81       	ldd	r20, Z+6	; 0x06
    6198:	57 81       	ldd	r21, Z+7	; 0x07
    619a:	12 96       	adiw	r26, 0x02	; 2
    619c:	2d 91       	ld	r18, X+
    619e:	3c 91       	ld	r19, X
    61a0:	13 97       	sbiw	r26, 0x03	; 3
    61a2:	42 17       	cp	r20, r18
    61a4:	53 07       	cpc	r21, r19
    61a6:	19 f7       	brne	.-58     	; 0x616e <f_close+0x3a>
    61a8:	ec 01       	movw	r28, r24
    61aa:	81 81       	ldd	r24, Z+1	; 0x01
    61ac:	0e 94 06 33 	call	0x660c	; 0x660c <disk_status>
    61b0:	80 fd       	sbrc	r24, 0
    61b2:	dd cf       	rjmp	.-70     	; 0x616e <f_close+0x3a>
    61b4:	8c 81       	ldd	r24, Y+4	; 0x04
    61b6:	85 fd       	sbrc	r24, 5
    61b8:	17 c0       	rjmp	.+46     	; 0x61e8 <f_close+0xb4>
    61ba:	e8 81       	ld	r30, Y
    61bc:	f9 81       	ldd	r31, Y+1	; 0x01
    61be:	30 97       	sbiw	r30, 0x00	; 0
    61c0:	b1 f2       	breq	.-84     	; 0x616e <f_close+0x3a>
    61c2:	80 81       	ld	r24, Z
    61c4:	88 23       	and	r24, r24
    61c6:	99 f2       	breq	.-90     	; 0x616e <f_close+0x3a>
    61c8:	26 81       	ldd	r18, Z+6	; 0x06
    61ca:	37 81       	ldd	r19, Z+7	; 0x07
    61cc:	8a 81       	ldd	r24, Y+2	; 0x02
    61ce:	9b 81       	ldd	r25, Y+3	; 0x03
    61d0:	28 17       	cp	r18, r24
    61d2:	39 07       	cpc	r19, r25
    61d4:	61 f6       	brne	.-104    	; 0x616e <f_close+0x3a>
    61d6:	81 81       	ldd	r24, Z+1	; 0x01
    61d8:	0e 94 06 33 	call	0x660c	; 0x660c <disk_status>
    61dc:	80 fd       	sbrc	r24, 0
    61de:	c7 cf       	rjmp	.-114    	; 0x616e <f_close+0x3a>
    61e0:	19 82       	std	Y+1, r1	; 0x01
    61e2:	18 82       	st	Y, r1
    61e4:	80 e0       	ldi	r24, 0x00	; 0
    61e6:	c4 cf       	rjmp	.-120    	; 0x6170 <f_close+0x3c>
    61e8:	86 ff       	sbrs	r24, 6
    61ea:	13 c0       	rjmp	.+38     	; 0x6212 <f_close+0xde>
    61ec:	2e 89       	ldd	r18, Y+22	; 0x16
    61ee:	3f 89       	ldd	r19, Y+23	; 0x17
    61f0:	48 8d       	ldd	r20, Y+24	; 0x18
    61f2:	59 8d       	ldd	r21, Y+25	; 0x19
    61f4:	e8 81       	ld	r30, Y
    61f6:	f9 81       	ldd	r31, Y+1	; 0x01
    61f8:	01 e0       	ldi	r16, 0x01	; 1
    61fa:	10 e0       	ldi	r17, 0x00	; 0
    61fc:	be 01       	movw	r22, r28
    61fe:	60 5e       	subi	r22, 0xE0	; 224
    6200:	7f 4f       	sbci	r23, 0xFF	; 255
    6202:	81 81       	ldd	r24, Z+1	; 0x01
    6204:	0e 94 74 34 	call	0x68e8	; 0x68e8 <disk_write>
    6208:	81 11       	cpse	r24, r1
    620a:	2d c0       	rjmp	.+90     	; 0x6266 <f_close+0x132>
    620c:	8c 81       	ldd	r24, Y+4	; 0x04
    620e:	8f 7b       	andi	r24, 0xBF	; 191
    6210:	8c 83       	std	Y+4, r24	; 0x04
    6212:	4a 8c       	ldd	r4, Y+26	; 0x1a
    6214:	5b 8c       	ldd	r5, Y+27	; 0x1b
    6216:	6c 8c       	ldd	r6, Y+28	; 0x1c
    6218:	7d 8c       	ldd	r7, Y+29	; 0x1d
    621a:	e8 80       	ld	r14, Y
    621c:	f9 80       	ldd	r15, Y+1	; 0x01
    621e:	f7 01       	movw	r30, r14
    6220:	82 a4       	ldd	r8, Z+42	; 0x2a
    6222:	93 a4       	ldd	r9, Z+43	; 0x2b
    6224:	a4 a4       	ldd	r10, Z+44	; 0x2c
    6226:	b5 a4       	ldd	r11, Z+45	; 0x2d
    6228:	48 14       	cp	r4, r8
    622a:	59 04       	cpc	r5, r9
    622c:	6a 04       	cpc	r6, r10
    622e:	7b 04       	cpc	r7, r11
    6230:	19 f1       	breq	.+70     	; 0x6278 <f_close+0x144>
    6232:	84 81       	ldd	r24, Z+4	; 0x04
    6234:	17 01       	movw	r2, r14
    6236:	81 11       	cpse	r24, r1
    6238:	5f c0       	rjmp	.+190    	; 0x62f8 <f_close+0x1c4>
    623a:	be e2       	ldi	r27, 0x2E	; 46
    623c:	2b 0e       	add	r2, r27
    623e:	31 1c       	adc	r3, r1
    6240:	01 e0       	ldi	r16, 0x01	; 1
    6242:	10 e0       	ldi	r17, 0x00	; 0
    6244:	a3 01       	movw	r20, r6
    6246:	92 01       	movw	r18, r4
    6248:	b1 01       	movw	r22, r2
    624a:	f7 01       	movw	r30, r14
    624c:	81 81       	ldd	r24, Z+1	; 0x01
    624e:	0e 94 ef 33 	call	0x67de	; 0x67de <disk_read>
    6252:	88 23       	and	r24, r24
    6254:	51 f0       	breq	.+20     	; 0x626a <f_close+0x136>
    6256:	8f ef       	ldi	r24, 0xFF	; 255
    6258:	9f ef       	ldi	r25, 0xFF	; 255
    625a:	dc 01       	movw	r26, r24
    625c:	f7 01       	movw	r30, r14
    625e:	82 a7       	std	Z+42, r24	; 0x2a
    6260:	93 a7       	std	Z+43, r25	; 0x2b
    6262:	a4 a7       	std	Z+44, r26	; 0x2c
    6264:	b5 a7       	std	Z+45, r27	; 0x2d
    6266:	81 e0       	ldi	r24, 0x01	; 1
    6268:	83 cf       	rjmp	.-250    	; 0x6170 <f_close+0x3c>
    626a:	d7 01       	movw	r26, r14
    626c:	9a 96       	adiw	r26, 0x2a	; 42
    626e:	4d 92       	st	X+, r4
    6270:	5d 92       	st	X+, r5
    6272:	6d 92       	st	X+, r6
    6274:	7c 92       	st	X, r7
    6276:	9d 97       	sbiw	r26, 0x2d	; 45
    6278:	ee 8d       	ldd	r30, Y+30	; 0x1e
    627a:	ff 8d       	ldd	r31, Y+31	; 0x1f
    627c:	83 85       	ldd	r24, Z+11	; 0x0b
    627e:	80 62       	ori	r24, 0x20	; 32
    6280:	83 87       	std	Z+11, r24	; 0x0b
    6282:	8a 85       	ldd	r24, Y+10	; 0x0a
    6284:	9b 85       	ldd	r25, Y+11	; 0x0b
    6286:	ac 85       	ldd	r26, Y+12	; 0x0c
    6288:	bd 85       	ldd	r27, Y+13	; 0x0d
    628a:	84 8f       	std	Z+28, r24	; 0x1c
    628c:	95 8f       	std	Z+29, r25	; 0x1d
    628e:	a6 8f       	std	Z+30, r26	; 0x1e
    6290:	b7 8f       	std	Z+31, r27	; 0x1f
    6292:	8e 85       	ldd	r24, Y+14	; 0x0e
    6294:	9f 85       	ldd	r25, Y+15	; 0x0f
    6296:	a8 89       	ldd	r26, Y+16	; 0x10
    6298:	b9 89       	ldd	r27, Y+17	; 0x11
    629a:	93 8f       	std	Z+27, r25	; 0x1b
    629c:	82 8f       	std	Z+26, r24	; 0x1a
    629e:	b5 8b       	std	Z+21, r27	; 0x15
    62a0:	a4 8b       	std	Z+20, r26	; 0x14
    62a2:	80 e0       	ldi	r24, 0x00	; 0
    62a4:	90 e0       	ldi	r25, 0x00	; 0
    62a6:	a1 e2       	ldi	r26, 0x21	; 33
    62a8:	b6 e4       	ldi	r27, 0x46	; 70
    62aa:	86 8b       	std	Z+22, r24	; 0x16
    62ac:	97 8b       	std	Z+23, r25	; 0x17
    62ae:	a0 8f       	std	Z+24, r26	; 0x18
    62b0:	b1 8f       	std	Z+25, r27	; 0x19
    62b2:	13 8a       	std	Z+19, r1	; 0x13
    62b4:	12 8a       	std	Z+18, r1	; 0x12
    62b6:	8c 81       	ldd	r24, Y+4	; 0x04
    62b8:	8f 7d       	andi	r24, 0xDF	; 223
    62ba:	8c 83       	std	Y+4, r24	; 0x04
    62bc:	e8 81       	ld	r30, Y
    62be:	f9 81       	ldd	r31, Y+1	; 0x01
    62c0:	81 e0       	ldi	r24, 0x01	; 1
    62c2:	84 83       	std	Z+4, r24	; 0x04
    62c4:	e8 80       	ld	r14, Y
    62c6:	f9 80       	ldd	r15, Y+1	; 0x01
    62c8:	d7 01       	movw	r26, r14
    62ca:	14 96       	adiw	r26, 0x04	; 4
    62cc:	8c 91       	ld	r24, X
    62ce:	14 97       	sbiw	r26, 0x04	; 4
    62d0:	81 11       	cpse	r24, r1
    62d2:	59 c0       	rjmp	.+178    	; 0x6386 <f_close+0x252>
    62d4:	d7 01       	movw	r26, r14
    62d6:	8c 91       	ld	r24, X
    62d8:	83 30       	cpi	r24, 0x03	; 3
    62da:	09 f4       	brne	.+2      	; 0x62de <f_close+0x1aa>
    62dc:	a6 c0       	rjmp	.+332    	; 0x642a <f_close+0x2f6>
    62de:	40 e0       	ldi	r20, 0x00	; 0
    62e0:	50 e0       	ldi	r21, 0x00	; 0
    62e2:	60 e0       	ldi	r22, 0x00	; 0
    62e4:	d7 01       	movw	r26, r14
    62e6:	11 96       	adiw	r26, 0x01	; 1
    62e8:	8c 91       	ld	r24, X
    62ea:	0e 94 6d 35 	call	0x6ada	; 0x6ada <disk_ioctl>
    62ee:	88 23       	and	r24, r24
    62f0:	09 f4       	brne	.+2      	; 0x62f4 <f_close+0x1c0>
    62f2:	63 cf       	rjmp	.-314    	; 0x61ba <f_close+0x86>
    62f4:	81 e0       	ldi	r24, 0x01	; 1
    62f6:	3c cf       	rjmp	.-392    	; 0x6170 <f_close+0x3c>
    62f8:	fe e2       	ldi	r31, 0x2E	; 46
    62fa:	2f 0e       	add	r2, r31
    62fc:	31 1c       	adc	r3, r1
    62fe:	01 e0       	ldi	r16, 0x01	; 1
    6300:	10 e0       	ldi	r17, 0x00	; 0
    6302:	a5 01       	movw	r20, r10
    6304:	94 01       	movw	r18, r8
    6306:	b1 01       	movw	r22, r2
    6308:	d7 01       	movw	r26, r14
    630a:	11 96       	adiw	r26, 0x01	; 1
    630c:	8c 91       	ld	r24, X
    630e:	0e 94 74 34 	call	0x68e8	; 0x68e8 <disk_write>
    6312:	81 11       	cpse	r24, r1
    6314:	a8 cf       	rjmp	.-176    	; 0x6266 <f_close+0x132>
    6316:	f7 01       	movw	r30, r14
    6318:	14 82       	std	Z+4, r1	; 0x04
    631a:	86 89       	ldd	r24, Z+22	; 0x16
    631c:	97 89       	ldd	r25, Z+23	; 0x17
    631e:	a0 8d       	ldd	r26, Z+24	; 0x18
    6320:	b1 8d       	ldd	r27, Z+25	; 0x19
    6322:	46 8d       	ldd	r20, Z+30	; 0x1e
    6324:	57 8d       	ldd	r21, Z+31	; 0x1f
    6326:	60 a1       	ldd	r22, Z+32	; 0x20
    6328:	71 a1       	ldd	r23, Z+33	; 0x21
    632a:	95 01       	movw	r18, r10
    632c:	84 01       	movw	r16, r8
    632e:	04 1b       	sub	r16, r20
    6330:	15 0b       	sbc	r17, r21
    6332:	26 0b       	sbc	r18, r22
    6334:	37 0b       	sbc	r19, r23
    6336:	08 17       	cp	r16, r24
    6338:	19 07       	cpc	r17, r25
    633a:	2a 07       	cpc	r18, r26
    633c:	3b 07       	cpc	r19, r27
    633e:	08 f0       	brcs	.+2      	; 0x6342 <f_close+0x20e>
    6340:	7f cf       	rjmp	.-258    	; 0x6240 <f_close+0x10c>
    6342:	c3 80       	ldd	r12, Z+3	; 0x03
    6344:	d1 2c       	mov	r13, r1
    6346:	12 e0       	ldi	r17, 0x02	; 2
    6348:	c1 16       	cp	r12, r17
    634a:	d1 04       	cpc	r13, r1
    634c:	30 f4       	brcc	.+12     	; 0x635a <f_close+0x226>
    634e:	78 cf       	rjmp	.-272    	; 0x6240 <f_close+0x10c>
    6350:	f7 01       	movw	r30, r14
    6352:	86 89       	ldd	r24, Z+22	; 0x16
    6354:	97 89       	ldd	r25, Z+23	; 0x17
    6356:	a0 8d       	ldd	r26, Z+24	; 0x18
    6358:	b1 8d       	ldd	r27, Z+25	; 0x19
    635a:	88 0e       	add	r8, r24
    635c:	99 1e       	adc	r9, r25
    635e:	aa 1e       	adc	r10, r26
    6360:	bb 1e       	adc	r11, r27
    6362:	01 e0       	ldi	r16, 0x01	; 1
    6364:	10 e0       	ldi	r17, 0x00	; 0
    6366:	a5 01       	movw	r20, r10
    6368:	94 01       	movw	r18, r8
    636a:	b1 01       	movw	r22, r2
    636c:	d7 01       	movw	r26, r14
    636e:	11 96       	adiw	r26, 0x01	; 1
    6370:	8c 91       	ld	r24, X
    6372:	0e 94 74 34 	call	0x68e8	; 0x68e8 <disk_write>
    6376:	b1 e0       	ldi	r27, 0x01	; 1
    6378:	cb 1a       	sub	r12, r27
    637a:	d1 08       	sbc	r13, r1
    637c:	e1 e0       	ldi	r30, 0x01	; 1
    637e:	ce 16       	cp	r12, r30
    6380:	d1 04       	cpc	r13, r1
    6382:	31 f7       	brne	.-52     	; 0x6350 <f_close+0x21c>
    6384:	5d cf       	rjmp	.-326    	; 0x6240 <f_close+0x10c>
    6386:	9a 96       	adiw	r26, 0x2a	; 42
    6388:	4d 90       	ld	r4, X+
    638a:	5d 90       	ld	r5, X+
    638c:	6d 90       	ld	r6, X+
    638e:	7c 90       	ld	r7, X
    6390:	9d 97       	sbiw	r26, 0x2d	; 45
    6392:	57 01       	movw	r10, r14
    6394:	be e2       	ldi	r27, 0x2E	; 46
    6396:	ab 0e       	add	r10, r27
    6398:	b1 1c       	adc	r11, r1
    639a:	01 e0       	ldi	r16, 0x01	; 1
    639c:	10 e0       	ldi	r17, 0x00	; 0
    639e:	a3 01       	movw	r20, r6
    63a0:	92 01       	movw	r18, r4
    63a2:	b5 01       	movw	r22, r10
    63a4:	f7 01       	movw	r30, r14
    63a6:	81 81       	ldd	r24, Z+1	; 0x01
    63a8:	0e 94 74 34 	call	0x68e8	; 0x68e8 <disk_write>
    63ac:	81 11       	cpse	r24, r1
    63ae:	5b cf       	rjmp	.-330    	; 0x6266 <f_close+0x132>
    63b0:	d7 01       	movw	r26, r14
    63b2:	14 96       	adiw	r26, 0x04	; 4
    63b4:	1c 92       	st	X, r1
    63b6:	14 97       	sbiw	r26, 0x04	; 4
    63b8:	56 96       	adiw	r26, 0x16	; 22
    63ba:	8d 91       	ld	r24, X+
    63bc:	9d 91       	ld	r25, X+
    63be:	0d 90       	ld	r0, X+
    63c0:	bc 91       	ld	r27, X
    63c2:	a0 2d       	mov	r26, r0
    63c4:	f7 01       	movw	r30, r14
    63c6:	46 8d       	ldd	r20, Z+30	; 0x1e
    63c8:	57 8d       	ldd	r21, Z+31	; 0x1f
    63ca:	60 a1       	ldd	r22, Z+32	; 0x20
    63cc:	71 a1       	ldd	r23, Z+33	; 0x21
    63ce:	93 01       	movw	r18, r6
    63d0:	82 01       	movw	r16, r4
    63d2:	04 1b       	sub	r16, r20
    63d4:	15 0b       	sbc	r17, r21
    63d6:	26 0b       	sbc	r18, r22
    63d8:	37 0b       	sbc	r19, r23
    63da:	08 17       	cp	r16, r24
    63dc:	19 07       	cpc	r17, r25
    63de:	2a 07       	cpc	r18, r26
    63e0:	3b 07       	cpc	r19, r27
    63e2:	08 f0       	brcs	.+2      	; 0x63e6 <f_close+0x2b2>
    63e4:	77 cf       	rjmp	.-274    	; 0x62d4 <f_close+0x1a0>
    63e6:	c3 80       	ldd	r12, Z+3	; 0x03
    63e8:	d1 2c       	mov	r13, r1
    63ea:	12 e0       	ldi	r17, 0x02	; 2
    63ec:	c1 16       	cp	r12, r17
    63ee:	d1 04       	cpc	r13, r1
    63f0:	30 f4       	brcc	.+12     	; 0x63fe <f_close+0x2ca>
    63f2:	70 cf       	rjmp	.-288    	; 0x62d4 <f_close+0x1a0>
    63f4:	f7 01       	movw	r30, r14
    63f6:	86 89       	ldd	r24, Z+22	; 0x16
    63f8:	97 89       	ldd	r25, Z+23	; 0x17
    63fa:	a0 8d       	ldd	r26, Z+24	; 0x18
    63fc:	b1 8d       	ldd	r27, Z+25	; 0x19
    63fe:	48 0e       	add	r4, r24
    6400:	59 1e       	adc	r5, r25
    6402:	6a 1e       	adc	r6, r26
    6404:	7b 1e       	adc	r7, r27
    6406:	01 e0       	ldi	r16, 0x01	; 1
    6408:	10 e0       	ldi	r17, 0x00	; 0
    640a:	a3 01       	movw	r20, r6
    640c:	92 01       	movw	r18, r4
    640e:	b5 01       	movw	r22, r10
    6410:	d7 01       	movw	r26, r14
    6412:	11 96       	adiw	r26, 0x01	; 1
    6414:	8c 91       	ld	r24, X
    6416:	0e 94 74 34 	call	0x68e8	; 0x68e8 <disk_write>
    641a:	b1 e0       	ldi	r27, 0x01	; 1
    641c:	cb 1a       	sub	r12, r27
    641e:	d1 08       	sbc	r13, r1
    6420:	e1 e0       	ldi	r30, 0x01	; 1
    6422:	ce 16       	cp	r12, r30
    6424:	d1 04       	cpc	r13, r1
    6426:	31 f7       	brne	.-52     	; 0x63f4 <f_close+0x2c0>
    6428:	55 cf       	rjmp	.-342    	; 0x62d4 <f_close+0x1a0>
    642a:	d7 01       	movw	r26, r14
    642c:	15 96       	adiw	r26, 0x05	; 5
    642e:	8c 91       	ld	r24, X
    6430:	81 30       	cpi	r24, 0x01	; 1
    6432:	09 f0       	breq	.+2      	; 0x6436 <f_close+0x302>
    6434:	54 cf       	rjmp	.-344    	; 0x62de <f_close+0x1aa>
    6436:	80 e0       	ldi	r24, 0x00	; 0
    6438:	92 e0       	ldi	r25, 0x02	; 2
    643a:	b7 01       	movw	r22, r14
    643c:	62 5d       	subi	r22, 0xD2	; 210
    643e:	7f 4f       	sbci	r23, 0xFF	; 255
    6440:	fb 01       	movw	r30, r22
    6442:	8c 01       	movw	r16, r24
    6444:	11 92       	st	Z+, r1
    6446:	01 50       	subi	r16, 0x01	; 1
    6448:	10 40       	sbci	r17, 0x00	; 0
    644a:	e1 f7       	brne	.-8      	; 0x6444 <f_close+0x310>
    644c:	85 e5       	ldi	r24, 0x55	; 85
    644e:	9a ea       	ldi	r25, 0xAA	; 170
    6450:	f7 01       	movw	r30, r14
    6452:	e4 5d       	subi	r30, 0xD4	; 212
    6454:	fd 4f       	sbci	r31, 0xFD	; 253
    6456:	91 83       	std	Z+1, r25	; 0x01
    6458:	80 83       	st	Z, r24
    645a:	82 e5       	ldi	r24, 0x52	; 82
    645c:	92 e5       	ldi	r25, 0x52	; 82
    645e:	a1 e6       	ldi	r26, 0x61	; 97
    6460:	b1 e4       	ldi	r27, 0x41	; 65
    6462:	f7 01       	movw	r30, r14
    6464:	86 a7       	std	Z+46, r24	; 0x2e
    6466:	97 a7       	std	Z+47, r25	; 0x2f
    6468:	a0 ab       	std	Z+48, r26	; 0x30
    646a:	b1 ab       	std	Z+49, r27	; 0x31
    646c:	82 e7       	ldi	r24, 0x72	; 114
    646e:	92 e7       	ldi	r25, 0x72	; 114
    6470:	a1 e4       	ldi	r26, 0x41	; 65
    6472:	b1 e6       	ldi	r27, 0x61	; 97
    6474:	ee 5e       	subi	r30, 0xEE	; 238
    6476:	fd 4f       	sbci	r31, 0xFD	; 253
    6478:	80 83       	st	Z, r24
    647a:	91 83       	std	Z+1, r25	; 0x01
    647c:	a2 83       	std	Z+2, r26	; 0x02
    647e:	b3 83       	std	Z+3, r27	; 0x03
    6480:	f7 01       	movw	r30, r14
    6482:	86 85       	ldd	r24, Z+14	; 0x0e
    6484:	97 85       	ldd	r25, Z+15	; 0x0f
    6486:	a0 89       	ldd	r26, Z+16	; 0x10
    6488:	b1 89       	ldd	r27, Z+17	; 0x11
    648a:	ea 5e       	subi	r30, 0xEA	; 234
    648c:	fd 4f       	sbci	r31, 0xFD	; 253
    648e:	80 83       	st	Z, r24
    6490:	91 83       	std	Z+1, r25	; 0x01
    6492:	a2 83       	std	Z+2, r26	; 0x02
    6494:	b3 83       	std	Z+3, r27	; 0x03
    6496:	f7 01       	movw	r30, r14
    6498:	82 85       	ldd	r24, Z+10	; 0x0a
    649a:	93 85       	ldd	r25, Z+11	; 0x0b
    649c:	a4 85       	ldd	r26, Z+12	; 0x0c
    649e:	b5 85       	ldd	r27, Z+13	; 0x0d
    64a0:	e6 5e       	subi	r30, 0xE6	; 230
    64a2:	fd 4f       	sbci	r31, 0xFD	; 253
    64a4:	80 83       	st	Z, r24
    64a6:	91 83       	std	Z+1, r25	; 0x01
    64a8:	a2 83       	std	Z+2, r26	; 0x02
    64aa:	b3 83       	std	Z+3, r27	; 0x03
    64ac:	f7 01       	movw	r30, r14
    64ae:	82 8d       	ldd	r24, Z+26	; 0x1a
    64b0:	93 8d       	ldd	r25, Z+27	; 0x1b
    64b2:	a4 8d       	ldd	r26, Z+28	; 0x1c
    64b4:	b5 8d       	ldd	r27, Z+29	; 0x1d
    64b6:	9c 01       	movw	r18, r24
    64b8:	ad 01       	movw	r20, r26
    64ba:	2f 5f       	subi	r18, 0xFF	; 255
    64bc:	3f 4f       	sbci	r19, 0xFF	; 255
    64be:	4f 4f       	sbci	r20, 0xFF	; 255
    64c0:	5f 4f       	sbci	r21, 0xFF	; 255
    64c2:	22 a7       	std	Z+42, r18	; 0x2a
    64c4:	33 a7       	std	Z+43, r19	; 0x2b
    64c6:	44 a7       	std	Z+44, r20	; 0x2c
    64c8:	55 a7       	std	Z+45, r21	; 0x2d
    64ca:	01 e0       	ldi	r16, 0x01	; 1
    64cc:	10 e0       	ldi	r17, 0x00	; 0
    64ce:	81 81       	ldd	r24, Z+1	; 0x01
    64d0:	0e 94 74 34 	call	0x68e8	; 0x68e8 <disk_write>
    64d4:	f7 01       	movw	r30, r14
    64d6:	15 82       	std	Z+5, r1	; 0x05
    64d8:	02 cf       	rjmp	.-508    	; 0x62de <f_close+0x1aa>

000064da <send_cmd>:
    64da:	df 92       	push	r13
    64dc:	ef 92       	push	r14
    64de:	ff 92       	push	r15
    64e0:	0f 93       	push	r16
    64e2:	1f 93       	push	r17
    64e4:	cf 93       	push	r28
    64e6:	df 93       	push	r29
    64e8:	00 d0       	rcall	.+0      	; 0x64ea <send_cmd+0x10>
    64ea:	00 d0       	rcall	.+0      	; 0x64ec <send_cmd+0x12>
    64ec:	00 d0       	rcall	.+0      	; 0x64ee <send_cmd+0x14>
    64ee:	cd b7       	in	r28, 0x3d	; 61
    64f0:	de b7       	in	r29, 0x3e	; 62
    64f2:	18 2f       	mov	r17, r24
    64f4:	04 2f       	mov	r16, r20
    64f6:	f5 2e       	mov	r15, r21
    64f8:	e6 2e       	mov	r14, r22
    64fa:	d7 2e       	mov	r13, r23
    64fc:	87 fd       	sbrc	r24, 7
    64fe:	77 c0       	rjmp	.+238    	; 0x65ee <send_cmd+0x114>
    6500:	1c 30       	cpi	r17, 0x0C	; 12
    6502:	09 f4       	brne	.+2      	; 0x6506 <send_cmd+0x2c>
    6504:	3e c0       	rjmp	.+124    	; 0x6582 <send_cmd+0xa8>
    6506:	28 9a       	sbi	0x05, 0	; 5
    6508:	8f ef       	ldi	r24, 0xFF	; 255
    650a:	8e bd       	out	0x2e, r24	; 46
    650c:	0d b4       	in	r0, 0x2d	; 45
    650e:	07 fe       	sbrs	r0, 7
    6510:	fd cf       	rjmp	.-6      	; 0x650c <send_cmd+0x32>
    6512:	8e b5       	in	r24, 0x2e	; 46
    6514:	28 98       	cbi	0x05, 0	; 5
    6516:	8f ef       	ldi	r24, 0xFF	; 255
    6518:	8e bd       	out	0x2e, r24	; 46
    651a:	0d b4       	in	r0, 0x2d	; 45
    651c:	07 fe       	sbrs	r0, 7
    651e:	fd cf       	rjmp	.-6      	; 0x651a <send_cmd+0x40>
    6520:	8e b5       	in	r24, 0x2e	; 46
    6522:	40 e5       	ldi	r20, 0x50	; 80
    6524:	53 ec       	ldi	r21, 0xC3	; 195
    6526:	3f ef       	ldi	r19, 0xFF	; 255
    6528:	3e bd       	out	0x2e, r19	; 46
    652a:	0d b4       	in	r0, 0x2d	; 45
    652c:	07 fe       	sbrs	r0, 7
    652e:	fd cf       	rjmp	.-6      	; 0x652a <send_cmd+0x50>
    6530:	8e b5       	in	r24, 0x2e	; 46
    6532:	8f 3f       	cpi	r24, 0xFF	; 255
    6534:	09 f4       	brne	.+2      	; 0x6538 <send_cmd+0x5e>
    6536:	49 c0       	rjmp	.+146    	; 0x65ca <send_cmd+0xf0>
    6538:	84 e6       	ldi	r24, 0x64	; 100
    653a:	90 e0       	ldi	r25, 0x00	; 0
    653c:	26 b1       	in	r18, 0x06	; 6
    653e:	26 b1       	in	r18, 0x06	; 6
    6540:	26 b1       	in	r18, 0x06	; 6
    6542:	26 b1       	in	r18, 0x06	; 6
    6544:	26 b1       	in	r18, 0x06	; 6
    6546:	26 b1       	in	r18, 0x06	; 6
    6548:	26 b1       	in	r18, 0x06	; 6
    654a:	26 b1       	in	r18, 0x06	; 6
    654c:	01 97       	sbiw	r24, 0x01	; 1
    654e:	b1 f7       	brne	.-20     	; 0x653c <send_cmd+0x62>
    6550:	41 50       	subi	r20, 0x01	; 1
    6552:	51 09       	sbc	r21, r1
    6554:	49 f7       	brne	.-46     	; 0x6528 <send_cmd+0x4e>
    6556:	28 9a       	sbi	0x05, 0	; 5
    6558:	8f ef       	ldi	r24, 0xFF	; 255
    655a:	8e bd       	out	0x2e, r24	; 46
    655c:	0d b4       	in	r0, 0x2d	; 45
    655e:	07 fe       	sbrs	r0, 7
    6560:	fd cf       	rjmp	.-6      	; 0x655c <send_cmd+0x82>
    6562:	8e b5       	in	r24, 0x2e	; 46
    6564:	8f ef       	ldi	r24, 0xFF	; 255
    6566:	26 96       	adiw	r28, 0x06	; 6
    6568:	0f b6       	in	r0, 0x3f	; 63
    656a:	f8 94       	cli
    656c:	de bf       	out	0x3e, r29	; 62
    656e:	0f be       	out	0x3f, r0	; 63
    6570:	cd bf       	out	0x3d, r28	; 61
    6572:	df 91       	pop	r29
    6574:	cf 91       	pop	r28
    6576:	1f 91       	pop	r17
    6578:	0f 91       	pop	r16
    657a:	ff 90       	pop	r15
    657c:	ef 90       	pop	r14
    657e:	df 90       	pop	r13
    6580:	08 95       	ret
    6582:	8c e4       	ldi	r24, 0x4C	; 76
    6584:	89 83       	std	Y+1, r24	; 0x01
    6586:	da 82       	std	Y+2, r13	; 0x02
    6588:	eb 82       	std	Y+3, r14	; 0x03
    658a:	fc 82       	std	Y+4, r15	; 0x04
    658c:	0d 83       	std	Y+5, r16	; 0x05
    658e:	81 e0       	ldi	r24, 0x01	; 1
    6590:	8e 83       	std	Y+6, r24	; 0x06
    6592:	fe 01       	movw	r30, r28
    6594:	31 96       	adiw	r30, 0x01	; 1
    6596:	9e 01       	movw	r18, r28
    6598:	29 5f       	subi	r18, 0xF9	; 249
    659a:	3f 4f       	sbci	r19, 0xFF	; 255
    659c:	81 91       	ld	r24, Z+
    659e:	8e bd       	out	0x2e, r24	; 46
    65a0:	0d b4       	in	r0, 0x2d	; 45
    65a2:	07 fe       	sbrs	r0, 7
    65a4:	fd cf       	rjmp	.-6      	; 0x65a0 <send_cmd+0xc6>
    65a6:	8e b5       	in	r24, 0x2e	; 46
    65a8:	2e 17       	cp	r18, r30
    65aa:	3f 07       	cpc	r19, r31
    65ac:	b9 f7       	brne	.-18     	; 0x659c <send_cmd+0xc2>
    65ae:	1c 30       	cpi	r17, 0x0C	; 12
    65b0:	b9 f0       	breq	.+46     	; 0x65e0 <send_cmd+0x106>
    65b2:	9a e0       	ldi	r25, 0x0A	; 10
    65b4:	2f ef       	ldi	r18, 0xFF	; 255
    65b6:	2e bd       	out	0x2e, r18	; 46
    65b8:	0d b4       	in	r0, 0x2d	; 45
    65ba:	07 fe       	sbrs	r0, 7
    65bc:	fd cf       	rjmp	.-6      	; 0x65b8 <send_cmd+0xde>
    65be:	8e b5       	in	r24, 0x2e	; 46
    65c0:	87 ff       	sbrs	r24, 7
    65c2:	d1 cf       	rjmp	.-94     	; 0x6566 <send_cmd+0x8c>
    65c4:	91 50       	subi	r25, 0x01	; 1
    65c6:	b9 f7       	brne	.-18     	; 0x65b6 <send_cmd+0xdc>
    65c8:	ce cf       	rjmp	.-100    	; 0x6566 <send_cmd+0x8c>
    65ca:	81 2f       	mov	r24, r17
    65cc:	80 64       	ori	r24, 0x40	; 64
    65ce:	89 83       	std	Y+1, r24	; 0x01
    65d0:	da 82       	std	Y+2, r13	; 0x02
    65d2:	eb 82       	std	Y+3, r14	; 0x03
    65d4:	fc 82       	std	Y+4, r15	; 0x04
    65d6:	0d 83       	std	Y+5, r16	; 0x05
    65d8:	11 11       	cpse	r17, r1
    65da:	14 c0       	rjmp	.+40     	; 0x6604 <send_cmd+0x12a>
    65dc:	85 e9       	ldi	r24, 0x95	; 149
    65de:	d8 cf       	rjmp	.-80     	; 0x6590 <send_cmd+0xb6>
    65e0:	8f ef       	ldi	r24, 0xFF	; 255
    65e2:	8e bd       	out	0x2e, r24	; 46
    65e4:	0d b4       	in	r0, 0x2d	; 45
    65e6:	07 fe       	sbrs	r0, 7
    65e8:	fd cf       	rjmp	.-6      	; 0x65e4 <send_cmd+0x10a>
    65ea:	8e b5       	in	r24, 0x2e	; 46
    65ec:	e2 cf       	rjmp	.-60     	; 0x65b2 <send_cmd+0xd8>
    65ee:	40 e0       	ldi	r20, 0x00	; 0
    65f0:	50 e0       	ldi	r21, 0x00	; 0
    65f2:	ba 01       	movw	r22, r20
    65f4:	87 e3       	ldi	r24, 0x37	; 55
    65f6:	0e 94 6d 32 	call	0x64da	; 0x64da <send_cmd>
    65fa:	82 30       	cpi	r24, 0x02	; 2
    65fc:	08 f0       	brcs	.+2      	; 0x6600 <send_cmd+0x126>
    65fe:	b3 cf       	rjmp	.-154    	; 0x6566 <send_cmd+0x8c>
    6600:	1f 77       	andi	r17, 0x7F	; 127
    6602:	7e cf       	rjmp	.-260    	; 0x6500 <send_cmd+0x26>
    6604:	18 30       	cpi	r17, 0x08	; 8
    6606:	19 f6       	brne	.-122    	; 0x658e <send_cmd+0xb4>
    6608:	87 e8       	ldi	r24, 0x87	; 135
    660a:	c2 cf       	rjmp	.-124    	; 0x6590 <send_cmd+0xb6>

0000660c <disk_status>:
    660c:	81 11       	cpse	r24, r1
    660e:	03 c0       	rjmp	.+6      	; 0x6616 <disk_status+0xa>
    6610:	80 91 08 01 	lds	r24, 0x0108	; 0x800108 <Stat>
    6614:	08 95       	ret
    6616:	81 e0       	ldi	r24, 0x01	; 1
    6618:	08 95       	ret

0000661a <disk_initialize>:
    661a:	cf 92       	push	r12
    661c:	df 92       	push	r13
    661e:	ef 92       	push	r14
    6620:	ff 92       	push	r15
    6622:	0f 93       	push	r16
    6624:	1f 93       	push	r17
    6626:	cf 93       	push	r28
    6628:	df 93       	push	r29
    662a:	00 d0       	rcall	.+0      	; 0x662c <disk_initialize+0x12>
    662c:	00 d0       	rcall	.+0      	; 0x662e <disk_initialize+0x14>
    662e:	cd b7       	in	r28, 0x3d	; 61
    6630:	de b7       	in	r29, 0x3e	; 62
    6632:	88 23       	and	r24, r24
    6634:	71 f0       	breq	.+28     	; 0x6652 <disk_initialize+0x38>
    6636:	83 e0       	ldi	r24, 0x03	; 3
    6638:	0f 90       	pop	r0
    663a:	0f 90       	pop	r0
    663c:	0f 90       	pop	r0
    663e:	0f 90       	pop	r0
    6640:	df 91       	pop	r29
    6642:	cf 91       	pop	r28
    6644:	1f 91       	pop	r17
    6646:	0f 91       	pop	r16
    6648:	ff 90       	pop	r15
    664a:	ef 90       	pop	r14
    664c:	df 90       	pop	r13
    664e:	cf 90       	pop	r12
    6650:	08 95       	ret
    6652:	80 e1       	ldi	r24, 0x10	; 16
    6654:	97 e2       	ldi	r25, 0x27	; 39
    6656:	26 b1       	in	r18, 0x06	; 6
    6658:	26 b1       	in	r18, 0x06	; 6
    665a:	26 b1       	in	r18, 0x06	; 6
    665c:	26 b1       	in	r18, 0x06	; 6
    665e:	26 b1       	in	r18, 0x06	; 6
    6660:	26 b1       	in	r18, 0x06	; 6
    6662:	26 b1       	in	r18, 0x06	; 6
    6664:	26 b1       	in	r18, 0x06	; 6
    6666:	01 97       	sbiw	r24, 0x01	; 1
    6668:	b1 f7       	brne	.-20     	; 0x6656 <disk_initialize+0x3c>
    666a:	41 e0       	ldi	r20, 0x01	; 1
    666c:	60 e0       	ldi	r22, 0x00	; 0
    666e:	81 e0       	ldi	r24, 0x01	; 1
    6670:	0e 94 73 36 	call	0x6ce6	; 0x6ce6 <SetPinDir>
    6674:	28 9a       	sbi	0x05, 0	; 5
    6676:	8a e0       	ldi	r24, 0x0A	; 10
    6678:	2f ef       	ldi	r18, 0xFF	; 255
    667a:	2e bd       	out	0x2e, r18	; 46
    667c:	0d b4       	in	r0, 0x2d	; 45
    667e:	07 fe       	sbrs	r0, 7
    6680:	fd cf       	rjmp	.-6      	; 0x667c <disk_initialize+0x62>
    6682:	9e b5       	in	r25, 0x2e	; 46
    6684:	99 83       	std	Y+1, r25	; 0x01
    6686:	81 50       	subi	r24, 0x01	; 1
    6688:	c1 f7       	brne	.-16     	; 0x667a <disk_initialize+0x60>
    668a:	40 e0       	ldi	r20, 0x00	; 0
    668c:	50 e0       	ldi	r21, 0x00	; 0
    668e:	ba 01       	movw	r22, r20
    6690:	0e 94 6d 32 	call	0x64da	; 0x64da <send_cmd>
    6694:	81 30       	cpi	r24, 0x01	; 1
    6696:	71 f0       	breq	.+28     	; 0x66b4 <disk_initialize+0x9a>
    6698:	81 e0       	ldi	r24, 0x01	; 1
    669a:	f1 2c       	mov	r15, r1
    669c:	f0 92 c8 01 	sts	0x01C8, r15	; 0x8001c8 <CardType>
    66a0:	80 93 08 01 	sts	0x0108, r24	; 0x800108 <Stat>
    66a4:	28 9a       	sbi	0x05, 0	; 5
    66a6:	9f ef       	ldi	r25, 0xFF	; 255
    66a8:	9e bd       	out	0x2e, r25	; 46
    66aa:	0d b4       	in	r0, 0x2d	; 45
    66ac:	07 fe       	sbrs	r0, 7
    66ae:	fd cf       	rjmp	.-6      	; 0x66aa <disk_initialize+0x90>
    66b0:	9e b5       	in	r25, 0x2e	; 46
    66b2:	c2 cf       	rjmp	.-124    	; 0x6638 <disk_initialize+0x1e>
    66b4:	4a ea       	ldi	r20, 0xAA	; 170
    66b6:	51 e0       	ldi	r21, 0x01	; 1
    66b8:	60 e0       	ldi	r22, 0x00	; 0
    66ba:	70 e0       	ldi	r23, 0x00	; 0
    66bc:	88 e0       	ldi	r24, 0x08	; 8
    66be:	0e 94 6d 32 	call	0x64da	; 0x64da <send_cmd>
    66c2:	81 30       	cpi	r24, 0x01	; 1
    66c4:	b9 f5       	brne	.+110    	; 0x6734 <disk_initialize+0x11a>
    66c6:	8e 01       	movw	r16, r28
    66c8:	0f 5f       	subi	r16, 0xFF	; 255
    66ca:	1f 4f       	sbci	r17, 0xFF	; 255
    66cc:	7e 01       	movw	r14, r28
    66ce:	85 e0       	ldi	r24, 0x05	; 5
    66d0:	e8 0e       	add	r14, r24
    66d2:	f1 1c       	adc	r15, r1
    66d4:	f8 01       	movw	r30, r16
    66d6:	9f ef       	ldi	r25, 0xFF	; 255
    66d8:	9e bd       	out	0x2e, r25	; 46
    66da:	0d b4       	in	r0, 0x2d	; 45
    66dc:	07 fe       	sbrs	r0, 7
    66de:	fd cf       	rjmp	.-6      	; 0x66da <disk_initialize+0xc0>
    66e0:	8e b5       	in	r24, 0x2e	; 46
    66e2:	81 93       	st	Z+, r24
    66e4:	ee 16       	cp	r14, r30
    66e6:	ff 06       	cpc	r15, r31
    66e8:	b9 f7       	brne	.-18     	; 0x66d8 <disk_initialize+0xbe>
    66ea:	8b 81       	ldd	r24, Y+3	; 0x03
    66ec:	81 30       	cpi	r24, 0x01	; 1
    66ee:	a1 f6       	brne	.-88     	; 0x6698 <disk_initialize+0x7e>
    66f0:	8c 81       	ldd	r24, Y+4	; 0x04
    66f2:	8a 3a       	cpi	r24, 0xAA	; 170
    66f4:	89 f6       	brne	.-94     	; 0x6698 <disk_initialize+0x7e>
    66f6:	50 e1       	ldi	r21, 0x10	; 16
    66f8:	c5 2e       	mov	r12, r21
    66fa:	57 e2       	ldi	r21, 0x27	; 39
    66fc:	d5 2e       	mov	r13, r21
    66fe:	40 e0       	ldi	r20, 0x00	; 0
    6700:	50 e0       	ldi	r21, 0x00	; 0
    6702:	60 e0       	ldi	r22, 0x00	; 0
    6704:	70 e4       	ldi	r23, 0x40	; 64
    6706:	89 ea       	ldi	r24, 0xA9	; 169
    6708:	0e 94 6d 32 	call	0x64da	; 0x64da <send_cmd>
    670c:	88 23       	and	r24, r24
    670e:	09 f4       	brne	.+2      	; 0x6712 <disk_initialize+0xf8>
    6710:	46 c0       	rjmp	.+140    	; 0x679e <disk_initialize+0x184>
    6712:	88 ee       	ldi	r24, 0xE8	; 232
    6714:	93 e0       	ldi	r25, 0x03	; 3
    6716:	26 b1       	in	r18, 0x06	; 6
    6718:	26 b1       	in	r18, 0x06	; 6
    671a:	26 b1       	in	r18, 0x06	; 6
    671c:	26 b1       	in	r18, 0x06	; 6
    671e:	26 b1       	in	r18, 0x06	; 6
    6720:	26 b1       	in	r18, 0x06	; 6
    6722:	26 b1       	in	r18, 0x06	; 6
    6724:	26 b1       	in	r18, 0x06	; 6
    6726:	01 97       	sbiw	r24, 0x01	; 1
    6728:	b1 f7       	brne	.-20     	; 0x6716 <disk_initialize+0xfc>
    672a:	e1 e0       	ldi	r30, 0x01	; 1
    672c:	ce 1a       	sub	r12, r30
    672e:	d1 08       	sbc	r13, r1
    6730:	31 f7       	brne	.-52     	; 0x66fe <disk_initialize+0xe4>
    6732:	b2 cf       	rjmp	.-156    	; 0x6698 <disk_initialize+0x7e>
    6734:	40 e0       	ldi	r20, 0x00	; 0
    6736:	50 e0       	ldi	r21, 0x00	; 0
    6738:	ba 01       	movw	r22, r20
    673a:	89 ea       	ldi	r24, 0xA9	; 169
    673c:	0e 94 6d 32 	call	0x64da	; 0x64da <send_cmd>
    6740:	82 30       	cpi	r24, 0x02	; 2
    6742:	40 f1       	brcs	.+80     	; 0x6794 <disk_initialize+0x17a>
    6744:	ee 24       	eor	r14, r14
    6746:	e3 94       	inc	r14
    6748:	ff 24       	eor	r15, r15
    674a:	f3 94       	inc	r15
    674c:	00 e1       	ldi	r16, 0x10	; 16
    674e:	17 e2       	ldi	r17, 0x27	; 39
    6750:	40 e0       	ldi	r20, 0x00	; 0
    6752:	50 e0       	ldi	r21, 0x00	; 0
    6754:	ba 01       	movw	r22, r20
    6756:	8e 2d       	mov	r24, r14
    6758:	0e 94 6d 32 	call	0x64da	; 0x64da <send_cmd>
    675c:	88 23       	and	r24, r24
    675e:	81 f0       	breq	.+32     	; 0x6780 <disk_initialize+0x166>
    6760:	88 ee       	ldi	r24, 0xE8	; 232
    6762:	93 e0       	ldi	r25, 0x03	; 3
    6764:	26 b1       	in	r18, 0x06	; 6
    6766:	26 b1       	in	r18, 0x06	; 6
    6768:	26 b1       	in	r18, 0x06	; 6
    676a:	26 b1       	in	r18, 0x06	; 6
    676c:	26 b1       	in	r18, 0x06	; 6
    676e:	26 b1       	in	r18, 0x06	; 6
    6770:	26 b1       	in	r18, 0x06	; 6
    6772:	26 b1       	in	r18, 0x06	; 6
    6774:	01 97       	sbiw	r24, 0x01	; 1
    6776:	b1 f7       	brne	.-20     	; 0x6764 <disk_initialize+0x14a>
    6778:	01 50       	subi	r16, 0x01	; 1
    677a:	11 09       	sbc	r17, r1
    677c:	49 f7       	brne	.-46     	; 0x6750 <disk_initialize+0x136>
    677e:	8c cf       	rjmp	.-232    	; 0x6698 <disk_initialize+0x7e>
    6780:	40 e0       	ldi	r20, 0x00	; 0
    6782:	52 e0       	ldi	r21, 0x02	; 2
    6784:	60 e0       	ldi	r22, 0x00	; 0
    6786:	70 e0       	ldi	r23, 0x00	; 0
    6788:	80 e1       	ldi	r24, 0x10	; 16
    678a:	0e 94 6d 32 	call	0x64da	; 0x64da <send_cmd>
    678e:	81 11       	cpse	r24, r1
    6790:	83 cf       	rjmp	.-250    	; 0x6698 <disk_initialize+0x7e>
    6792:	84 cf       	rjmp	.-248    	; 0x669c <disk_initialize+0x82>
    6794:	29 ea       	ldi	r18, 0xA9	; 169
    6796:	e2 2e       	mov	r14, r18
    6798:	32 e0       	ldi	r19, 0x02	; 2
    679a:	f3 2e       	mov	r15, r19
    679c:	d7 cf       	rjmp	.-82     	; 0x674c <disk_initialize+0x132>
    679e:	40 e0       	ldi	r20, 0x00	; 0
    67a0:	50 e0       	ldi	r21, 0x00	; 0
    67a2:	ba 01       	movw	r22, r20
    67a4:	8a e3       	ldi	r24, 0x3A	; 58
    67a6:	0e 94 6d 32 	call	0x64da	; 0x64da <send_cmd>
    67aa:	81 11       	cpse	r24, r1
    67ac:	75 cf       	rjmp	.-278    	; 0x6698 <disk_initialize+0x7e>
    67ae:	8f ef       	ldi	r24, 0xFF	; 255
    67b0:	8e bd       	out	0x2e, r24	; 46
    67b2:	0d b4       	in	r0, 0x2d	; 45
    67b4:	07 fe       	sbrs	r0, 7
    67b6:	fd cf       	rjmp	.-6      	; 0x67b2 <disk_initialize+0x198>
    67b8:	9e b5       	in	r25, 0x2e	; 46
    67ba:	f8 01       	movw	r30, r16
    67bc:	91 93       	st	Z+, r25
    67be:	8f 01       	movw	r16, r30
    67c0:	ee 16       	cp	r14, r30
    67c2:	ff 06       	cpc	r15, r31
    67c4:	a9 f7       	brne	.-22     	; 0x67b0 <disk_initialize+0x196>
    67c6:	99 81       	ldd	r25, Y+1	; 0x01
    67c8:	89 2f       	mov	r24, r25
    67ca:	80 74       	andi	r24, 0x40	; 64
    67cc:	96 ff       	sbrs	r25, 6
    67ce:	04 c0       	rjmp	.+8      	; 0x67d8 <disk_initialize+0x1be>
    67d0:	80 e0       	ldi	r24, 0x00	; 0
    67d2:	4c e0       	ldi	r20, 0x0C	; 12
    67d4:	f4 2e       	mov	r15, r20
    67d6:	62 cf       	rjmp	.-316    	; 0x669c <disk_initialize+0x82>
    67d8:	94 e0       	ldi	r25, 0x04	; 4
    67da:	f9 2e       	mov	r15, r25
    67dc:	5f cf       	rjmp	.-322    	; 0x669c <disk_initialize+0x82>

000067de <disk_read>:
    67de:	ff 92       	push	r15
    67e0:	0f 93       	push	r16
    67e2:	1f 93       	push	r17
    67e4:	cf 93       	push	r28
    67e6:	df 93       	push	r29
    67e8:	eb 01       	movw	r28, r22
    67ea:	ba 01       	movw	r22, r20
    67ec:	a9 01       	movw	r20, r18
    67ee:	81 11       	cpse	r24, r1
    67f0:	2c c0       	rjmp	.+88     	; 0x684a <disk_read+0x6c>
    67f2:	80 91 08 01 	lds	r24, 0x0108	; 0x800108 <Stat>
    67f6:	80 fd       	sbrc	r24, 0
    67f8:	28 c0       	rjmp	.+80     	; 0x684a <disk_read+0x6c>
    67fa:	80 91 c8 01 	lds	r24, 0x01C8	; 0x8001c8 <CardType>
    67fe:	83 fd       	sbrc	r24, 3
    6800:	07 c0       	rjmp	.+14     	; 0x6810 <disk_read+0x32>
    6802:	29 e0       	ldi	r18, 0x09	; 9
    6804:	44 0f       	add	r20, r20
    6806:	55 1f       	adc	r21, r21
    6808:	66 1f       	adc	r22, r22
    680a:	77 1f       	adc	r23, r23
    680c:	2a 95       	dec	r18
    680e:	d1 f7       	brne	.-12     	; 0x6804 <disk_read+0x26>
    6810:	02 30       	cpi	r16, 0x02	; 2
    6812:	11 05       	cpc	r17, r1
    6814:	08 f4       	brcc	.+2      	; 0x6818 <disk_read+0x3a>
    6816:	65 c0       	rjmp	.+202    	; 0x68e2 <disk_read+0x104>
    6818:	92 e1       	ldi	r25, 0x12	; 18
    681a:	f9 2e       	mov	r15, r25
    681c:	8f 2d       	mov	r24, r15
    681e:	0e 94 6d 32 	call	0x64da	; 0x64da <send_cmd>
    6822:	88 23       	and	r24, r24
    6824:	d1 f0       	breq	.+52     	; 0x685a <disk_read+0x7c>
    6826:	c1 e0       	ldi	r28, 0x01	; 1
    6828:	01 2b       	or	r16, r17
    682a:	09 f4       	brne	.+2      	; 0x682e <disk_read+0x50>
    682c:	c0 e0       	ldi	r28, 0x00	; 0
    682e:	28 9a       	sbi	0x05, 0	; 5
    6830:	8f ef       	ldi	r24, 0xFF	; 255
    6832:	8e bd       	out	0x2e, r24	; 46
    6834:	0d b4       	in	r0, 0x2d	; 45
    6836:	07 fe       	sbrs	r0, 7
    6838:	fd cf       	rjmp	.-6      	; 0x6834 <disk_read+0x56>
    683a:	8e b5       	in	r24, 0x2e	; 46
    683c:	8c 2f       	mov	r24, r28
    683e:	df 91       	pop	r29
    6840:	cf 91       	pop	r28
    6842:	1f 91       	pop	r17
    6844:	0f 91       	pop	r16
    6846:	ff 90       	pop	r15
    6848:	08 95       	ret
    684a:	c3 e0       	ldi	r28, 0x03	; 3
    684c:	8c 2f       	mov	r24, r28
    684e:	df 91       	pop	r29
    6850:	cf 91       	pop	r28
    6852:	1f 91       	pop	r17
    6854:	0f 91       	pop	r16
    6856:	ff 90       	pop	r15
    6858:	08 95       	ret
    685a:	6f ef       	ldi	r22, 0xFF	; 255
    685c:	3f ef       	ldi	r19, 0xFF	; 255
    685e:	40 e1       	ldi	r20, 0x10	; 16
    6860:	57 e2       	ldi	r21, 0x27	; 39
    6862:	3e bd       	out	0x2e, r19	; 46
    6864:	0d b4       	in	r0, 0x2d	; 45
    6866:	07 fe       	sbrs	r0, 7
    6868:	fd cf       	rjmp	.-6      	; 0x6864 <disk_read+0x86>
    686a:	8e b5       	in	r24, 0x2e	; 46
    686c:	8f 3f       	cpi	r24, 0xFF	; 255
    686e:	e1 f4       	brne	.+56     	; 0x68a8 <disk_read+0xca>
    6870:	84 e6       	ldi	r24, 0x64	; 100
    6872:	90 e0       	ldi	r25, 0x00	; 0
    6874:	26 b1       	in	r18, 0x06	; 6
    6876:	26 b1       	in	r18, 0x06	; 6
    6878:	26 b1       	in	r18, 0x06	; 6
    687a:	26 b1       	in	r18, 0x06	; 6
    687c:	26 b1       	in	r18, 0x06	; 6
    687e:	26 b1       	in	r18, 0x06	; 6
    6880:	26 b1       	in	r18, 0x06	; 6
    6882:	26 b1       	in	r18, 0x06	; 6
    6884:	01 97       	sbiw	r24, 0x01	; 1
    6886:	b1 f7       	brne	.-20     	; 0x6874 <disk_read+0x96>
    6888:	41 50       	subi	r20, 0x01	; 1
    688a:	51 09       	sbc	r21, r1
    688c:	51 f7       	brne	.-44     	; 0x6862 <disk_read+0x84>
    688e:	c1 e0       	ldi	r28, 0x01	; 1
    6890:	01 2b       	or	r16, r17
    6892:	29 f1       	breq	.+74     	; 0x68de <disk_read+0x100>
    6894:	82 e1       	ldi	r24, 0x12	; 18
    6896:	f8 12       	cpse	r15, r24
    6898:	ca cf       	rjmp	.-108    	; 0x682e <disk_read+0x50>
    689a:	40 e0       	ldi	r20, 0x00	; 0
    689c:	50 e0       	ldi	r21, 0x00	; 0
    689e:	ba 01       	movw	r22, r20
    68a0:	8c e0       	ldi	r24, 0x0C	; 12
    68a2:	0e 94 6d 32 	call	0x64da	; 0x64da <send_cmd>
    68a6:	c3 cf       	rjmp	.-122    	; 0x682e <disk_read+0x50>
    68a8:	8e 3f       	cpi	r24, 0xFE	; 254
    68aa:	89 f7       	brne	.-30     	; 0x688e <disk_read+0xb0>
    68ac:	fe 01       	movw	r30, r28
    68ae:	de 5f       	subi	r29, 0xFE	; 254
    68b0:	6e bd       	out	0x2e, r22	; 46
    68b2:	0d b4       	in	r0, 0x2d	; 45
    68b4:	07 fe       	sbrs	r0, 7
    68b6:	fd cf       	rjmp	.-6      	; 0x68b2 <disk_read+0xd4>
    68b8:	8e b5       	in	r24, 0x2e	; 46
    68ba:	81 93       	st	Z+, r24
    68bc:	ce 17       	cp	r28, r30
    68be:	df 07       	cpc	r29, r31
    68c0:	b9 f7       	brne	.-18     	; 0x68b0 <disk_read+0xd2>
    68c2:	6e bd       	out	0x2e, r22	; 46
    68c4:	0d b4       	in	r0, 0x2d	; 45
    68c6:	07 fe       	sbrs	r0, 7
    68c8:	fd cf       	rjmp	.-6      	; 0x68c4 <disk_read+0xe6>
    68ca:	8e b5       	in	r24, 0x2e	; 46
    68cc:	6e bd       	out	0x2e, r22	; 46
    68ce:	0d b4       	in	r0, 0x2d	; 45
    68d0:	07 fe       	sbrs	r0, 7
    68d2:	fd cf       	rjmp	.-6      	; 0x68ce <disk_read+0xf0>
    68d4:	8e b5       	in	r24, 0x2e	; 46
    68d6:	01 50       	subi	r16, 0x01	; 1
    68d8:	11 09       	sbc	r17, r1
    68da:	09 f0       	breq	.+2      	; 0x68de <disk_read+0x100>
    68dc:	c0 cf       	rjmp	.-128    	; 0x685e <disk_read+0x80>
    68de:	c0 e0       	ldi	r28, 0x00	; 0
    68e0:	d9 cf       	rjmp	.-78     	; 0x6894 <disk_read+0xb6>
    68e2:	81 e1       	ldi	r24, 0x11	; 17
    68e4:	f8 2e       	mov	r15, r24
    68e6:	9a cf       	rjmp	.-204    	; 0x681c <disk_read+0x3e>

000068e8 <disk_write>:
    68e8:	cf 92       	push	r12
    68ea:	df 92       	push	r13
    68ec:	ef 92       	push	r14
    68ee:	ff 92       	push	r15
    68f0:	0f 93       	push	r16
    68f2:	1f 93       	push	r17
    68f4:	cf 93       	push	r28
    68f6:	df 93       	push	r29
    68f8:	eb 01       	movw	r28, r22
    68fa:	69 01       	movw	r12, r18
    68fc:	7a 01       	movw	r14, r20
    68fe:	81 11       	cpse	r24, r1
    6900:	54 c0       	rjmp	.+168    	; 0x69aa <disk_write+0xc2>
    6902:	80 91 08 01 	lds	r24, 0x0108	; 0x800108 <Stat>
    6906:	80 fd       	sbrc	r24, 0
    6908:	50 c0       	rjmp	.+160    	; 0x69aa <disk_write+0xc2>
    690a:	80 91 c8 01 	lds	r24, 0x01C8	; 0x8001c8 <CardType>
    690e:	83 fd       	sbrc	r24, 3
    6910:	07 c0       	rjmp	.+14     	; 0x6920 <disk_write+0x38>
    6912:	99 e0       	ldi	r25, 0x09	; 9
    6914:	cc 0c       	add	r12, r12
    6916:	dd 1c       	adc	r13, r13
    6918:	ee 1c       	adc	r14, r14
    691a:	ff 1c       	adc	r15, r15
    691c:	9a 95       	dec	r25
    691e:	d1 f7       	brne	.-12     	; 0x6914 <disk_write+0x2c>
    6920:	01 30       	cpi	r16, 0x01	; 1
    6922:	11 05       	cpc	r17, r1
    6924:	09 f4       	brne	.+2      	; 0x6928 <disk_write+0x40>
    6926:	b7 c0       	rjmp	.+366    	; 0x6a96 <disk_write+0x1ae>
    6928:	86 70       	andi	r24, 0x06	; 6
    692a:	09 f0       	breq	.+2      	; 0x692e <disk_write+0x46>
    692c:	ad c0       	rjmp	.+346    	; 0x6a88 <disk_write+0x1a0>
    692e:	b7 01       	movw	r22, r14
    6930:	a6 01       	movw	r20, r12
    6932:	89 e1       	ldi	r24, 0x19	; 25
    6934:	0e 94 6d 32 	call	0x64da	; 0x64da <send_cmd>
    6938:	81 11       	cpse	r24, r1
    693a:	72 c0       	rjmp	.+228    	; 0x6a20 <disk_write+0x138>
    693c:	6f ef       	ldi	r22, 0xFF	; 255
    693e:	3f ef       	ldi	r19, 0xFF	; 255
    6940:	7c ef       	ldi	r23, 0xFC	; 252
    6942:	40 e5       	ldi	r20, 0x50	; 80
    6944:	53 ec       	ldi	r21, 0xC3	; 195
    6946:	3e bd       	out	0x2e, r19	; 46
    6948:	0d b4       	in	r0, 0x2d	; 45
    694a:	07 fe       	sbrs	r0, 7
    694c:	fd cf       	rjmp	.-6      	; 0x6948 <disk_write+0x60>
    694e:	8e b5       	in	r24, 0x2e	; 46
    6950:	8f 3f       	cpi	r24, 0xFF	; 255
    6952:	a9 f1       	breq	.+106    	; 0x69be <disk_write+0xd6>
    6954:	84 e6       	ldi	r24, 0x64	; 100
    6956:	90 e0       	ldi	r25, 0x00	; 0
    6958:	26 b1       	in	r18, 0x06	; 6
    695a:	26 b1       	in	r18, 0x06	; 6
    695c:	26 b1       	in	r18, 0x06	; 6
    695e:	26 b1       	in	r18, 0x06	; 6
    6960:	26 b1       	in	r18, 0x06	; 6
    6962:	26 b1       	in	r18, 0x06	; 6
    6964:	26 b1       	in	r18, 0x06	; 6
    6966:	26 b1       	in	r18, 0x06	; 6
    6968:	01 97       	sbiw	r24, 0x01	; 1
    696a:	b1 f7       	brne	.-20     	; 0x6958 <disk_write+0x70>
    696c:	41 50       	subi	r20, 0x01	; 1
    696e:	51 09       	sbc	r21, r1
    6970:	51 f7       	brne	.-44     	; 0x6946 <disk_write+0x5e>
    6972:	40 e5       	ldi	r20, 0x50	; 80
    6974:	53 ec       	ldi	r21, 0xC3	; 195
    6976:	3f ef       	ldi	r19, 0xFF	; 255
    6978:	3e bd       	out	0x2e, r19	; 46
    697a:	0d b4       	in	r0, 0x2d	; 45
    697c:	07 fe       	sbrs	r0, 7
    697e:	fd cf       	rjmp	.-6      	; 0x697a <disk_write+0x92>
    6980:	8e b5       	in	r24, 0x2e	; 46
    6982:	8f 3f       	cpi	r24, 0xFF	; 255
    6984:	09 f4       	brne	.+2      	; 0x6988 <disk_write+0xa0>
    6986:	46 c0       	rjmp	.+140    	; 0x6a14 <disk_write+0x12c>
    6988:	84 e6       	ldi	r24, 0x64	; 100
    698a:	90 e0       	ldi	r25, 0x00	; 0
    698c:	26 b1       	in	r18, 0x06	; 6
    698e:	26 b1       	in	r18, 0x06	; 6
    6990:	26 b1       	in	r18, 0x06	; 6
    6992:	26 b1       	in	r18, 0x06	; 6
    6994:	26 b1       	in	r18, 0x06	; 6
    6996:	26 b1       	in	r18, 0x06	; 6
    6998:	26 b1       	in	r18, 0x06	; 6
    699a:	26 b1       	in	r18, 0x06	; 6
    699c:	01 97       	sbiw	r24, 0x01	; 1
    699e:	b1 f7       	brne	.-20     	; 0x698c <disk_write+0xa4>
    69a0:	41 50       	subi	r20, 0x01	; 1
    69a2:	51 09       	sbc	r21, r1
    69a4:	49 f7       	brne	.-46     	; 0x6978 <disk_write+0x90>
    69a6:	81 e0       	ldi	r24, 0x01	; 1
    69a8:	3e c0       	rjmp	.+124    	; 0x6a26 <disk_write+0x13e>
    69aa:	83 e0       	ldi	r24, 0x03	; 3
    69ac:	df 91       	pop	r29
    69ae:	cf 91       	pop	r28
    69b0:	1f 91       	pop	r17
    69b2:	0f 91       	pop	r16
    69b4:	ff 90       	pop	r15
    69b6:	ef 90       	pop	r14
    69b8:	df 90       	pop	r13
    69ba:	cf 90       	pop	r12
    69bc:	08 95       	ret
    69be:	7e bd       	out	0x2e, r23	; 46
    69c0:	0d b4       	in	r0, 0x2d	; 45
    69c2:	07 fe       	sbrs	r0, 7
    69c4:	fd cf       	rjmp	.-6      	; 0x69c0 <disk_write+0xd8>
    69c6:	8e b5       	in	r24, 0x2e	; 46
    69c8:	fe 01       	movw	r30, r28
    69ca:	de 5f       	subi	r29, 0xFE	; 254
    69cc:	81 91       	ld	r24, Z+
    69ce:	8e bd       	out	0x2e, r24	; 46
    69d0:	0d b4       	in	r0, 0x2d	; 45
    69d2:	07 fe       	sbrs	r0, 7
    69d4:	fd cf       	rjmp	.-6      	; 0x69d0 <disk_write+0xe8>
    69d6:	8e b5       	in	r24, 0x2e	; 46
    69d8:	ec 17       	cp	r30, r28
    69da:	fd 07       	cpc	r31, r29
    69dc:	b9 f7       	brne	.-18     	; 0x69cc <disk_write+0xe4>
    69de:	6e bd       	out	0x2e, r22	; 46
    69e0:	0d b4       	in	r0, 0x2d	; 45
    69e2:	07 fe       	sbrs	r0, 7
    69e4:	fd cf       	rjmp	.-6      	; 0x69e0 <disk_write+0xf8>
    69e6:	8e b5       	in	r24, 0x2e	; 46
    69e8:	6e bd       	out	0x2e, r22	; 46
    69ea:	0d b4       	in	r0, 0x2d	; 45
    69ec:	07 fe       	sbrs	r0, 7
    69ee:	fd cf       	rjmp	.-6      	; 0x69ea <disk_write+0x102>
    69f0:	8e b5       	in	r24, 0x2e	; 46
    69f2:	6e bd       	out	0x2e, r22	; 46
    69f4:	0d b4       	in	r0, 0x2d	; 45
    69f6:	07 fe       	sbrs	r0, 7
    69f8:	fd cf       	rjmp	.-6      	; 0x69f4 <disk_write+0x10c>
    69fa:	8e b5       	in	r24, 0x2e	; 46
    69fc:	8f 71       	andi	r24, 0x1F	; 31
    69fe:	85 30       	cpi	r24, 0x05	; 5
    6a00:	09 f0       	breq	.+2      	; 0x6a04 <disk_write+0x11c>
    6a02:	b7 cf       	rjmp	.-146    	; 0x6972 <disk_write+0x8a>
    6a04:	01 50       	subi	r16, 0x01	; 1
    6a06:	11 09       	sbc	r17, r1
    6a08:	09 f0       	breq	.+2      	; 0x6a0c <disk_write+0x124>
    6a0a:	9b cf       	rjmp	.-202    	; 0x6942 <disk_write+0x5a>
    6a0c:	40 e5       	ldi	r20, 0x50	; 80
    6a0e:	53 ec       	ldi	r21, 0xC3	; 195
    6a10:	3f ef       	ldi	r19, 0xFF	; 255
    6a12:	b2 cf       	rjmp	.-156    	; 0x6978 <disk_write+0x90>
    6a14:	8d ef       	ldi	r24, 0xFD	; 253
    6a16:	8e bd       	out	0x2e, r24	; 46
    6a18:	0d b4       	in	r0, 0x2d	; 45
    6a1a:	07 fe       	sbrs	r0, 7
    6a1c:	fd cf       	rjmp	.-6      	; 0x6a18 <disk_write+0x130>
    6a1e:	8e b5       	in	r24, 0x2e	; 46
    6a20:	81 e0       	ldi	r24, 0x01	; 1
    6a22:	01 2b       	or	r16, r17
    6a24:	79 f1       	breq	.+94     	; 0x6a84 <disk_write+0x19c>
    6a26:	28 9a       	sbi	0x05, 0	; 5
    6a28:	9f ef       	ldi	r25, 0xFF	; 255
    6a2a:	9e bd       	out	0x2e, r25	; 46
    6a2c:	0d b4       	in	r0, 0x2d	; 45
    6a2e:	07 fe       	sbrs	r0, 7
    6a30:	fd cf       	rjmp	.-6      	; 0x6a2c <disk_write+0x144>
    6a32:	9e b5       	in	r25, 0x2e	; 46
    6a34:	bb cf       	rjmp	.-138    	; 0x69ac <disk_write+0xc4>
    6a36:	8e ef       	ldi	r24, 0xFE	; 254
    6a38:	8e bd       	out	0x2e, r24	; 46
    6a3a:	0d b4       	in	r0, 0x2d	; 45
    6a3c:	07 fe       	sbrs	r0, 7
    6a3e:	fd cf       	rjmp	.-6      	; 0x6a3a <disk_write+0x152>
    6a40:	8e b5       	in	r24, 0x2e	; 46
    6a42:	ce 01       	movw	r24, r28
    6a44:	9e 5f       	subi	r25, 0xFE	; 254
    6a46:	29 91       	ld	r18, Y+
    6a48:	2e bd       	out	0x2e, r18	; 46
    6a4a:	0d b4       	in	r0, 0x2d	; 45
    6a4c:	07 fe       	sbrs	r0, 7
    6a4e:	fd cf       	rjmp	.-6      	; 0x6a4a <disk_write+0x162>
    6a50:	2e b5       	in	r18, 0x2e	; 46
    6a52:	8c 17       	cp	r24, r28
    6a54:	9d 07       	cpc	r25, r29
    6a56:	b9 f7       	brne	.-18     	; 0x6a46 <disk_write+0x15e>
    6a58:	8f ef       	ldi	r24, 0xFF	; 255
    6a5a:	8e bd       	out	0x2e, r24	; 46
    6a5c:	0d b4       	in	r0, 0x2d	; 45
    6a5e:	07 fe       	sbrs	r0, 7
    6a60:	fd cf       	rjmp	.-6      	; 0x6a5c <disk_write+0x174>
    6a62:	8e b5       	in	r24, 0x2e	; 46
    6a64:	8f ef       	ldi	r24, 0xFF	; 255
    6a66:	8e bd       	out	0x2e, r24	; 46
    6a68:	0d b4       	in	r0, 0x2d	; 45
    6a6a:	07 fe       	sbrs	r0, 7
    6a6c:	fd cf       	rjmp	.-6      	; 0x6a68 <disk_write+0x180>
    6a6e:	8e b5       	in	r24, 0x2e	; 46
    6a70:	8f ef       	ldi	r24, 0xFF	; 255
    6a72:	8e bd       	out	0x2e, r24	; 46
    6a74:	0d b4       	in	r0, 0x2d	; 45
    6a76:	07 fe       	sbrs	r0, 7
    6a78:	fd cf       	rjmp	.-6      	; 0x6a74 <disk_write+0x18c>
    6a7a:	8e b5       	in	r24, 0x2e	; 46
    6a7c:	8f 71       	andi	r24, 0x1F	; 31
    6a7e:	85 30       	cpi	r24, 0x05	; 5
    6a80:	09 f0       	breq	.+2      	; 0x6a84 <disk_write+0x19c>
    6a82:	91 cf       	rjmp	.-222    	; 0x69a6 <disk_write+0xbe>
    6a84:	80 e0       	ldi	r24, 0x00	; 0
    6a86:	cf cf       	rjmp	.-98     	; 0x6a26 <disk_write+0x13e>
    6a88:	a8 01       	movw	r20, r16
    6a8a:	60 e0       	ldi	r22, 0x00	; 0
    6a8c:	70 e0       	ldi	r23, 0x00	; 0
    6a8e:	87 e9       	ldi	r24, 0x97	; 151
    6a90:	0e 94 6d 32 	call	0x64da	; 0x64da <send_cmd>
    6a94:	4c cf       	rjmp	.-360    	; 0x692e <disk_write+0x46>
    6a96:	b7 01       	movw	r22, r14
    6a98:	a6 01       	movw	r20, r12
    6a9a:	88 e1       	ldi	r24, 0x18	; 24
    6a9c:	0e 94 6d 32 	call	0x64da	; 0x64da <send_cmd>
    6aa0:	81 11       	cpse	r24, r1
    6aa2:	81 cf       	rjmp	.-254    	; 0x69a6 <disk_write+0xbe>
    6aa4:	40 e5       	ldi	r20, 0x50	; 80
    6aa6:	53 ec       	ldi	r21, 0xC3	; 195
    6aa8:	3f ef       	ldi	r19, 0xFF	; 255
    6aaa:	3e bd       	out	0x2e, r19	; 46
    6aac:	0d b4       	in	r0, 0x2d	; 45
    6aae:	07 fe       	sbrs	r0, 7
    6ab0:	fd cf       	rjmp	.-6      	; 0x6aac <disk_write+0x1c4>
    6ab2:	8e b5       	in	r24, 0x2e	; 46
    6ab4:	8f 3f       	cpi	r24, 0xFF	; 255
    6ab6:	09 f4       	brne	.+2      	; 0x6aba <disk_write+0x1d2>
    6ab8:	be cf       	rjmp	.-132    	; 0x6a36 <disk_write+0x14e>
    6aba:	84 e6       	ldi	r24, 0x64	; 100
    6abc:	90 e0       	ldi	r25, 0x00	; 0
    6abe:	26 b1       	in	r18, 0x06	; 6
    6ac0:	26 b1       	in	r18, 0x06	; 6
    6ac2:	26 b1       	in	r18, 0x06	; 6
    6ac4:	26 b1       	in	r18, 0x06	; 6
    6ac6:	26 b1       	in	r18, 0x06	; 6
    6ac8:	26 b1       	in	r18, 0x06	; 6
    6aca:	26 b1       	in	r18, 0x06	; 6
    6acc:	26 b1       	in	r18, 0x06	; 6
    6ace:	01 97       	sbiw	r24, 0x01	; 1
    6ad0:	b1 f7       	brne	.-20     	; 0x6abe <disk_write+0x1d6>
    6ad2:	41 50       	subi	r20, 0x01	; 1
    6ad4:	51 09       	sbc	r21, r1
    6ad6:	49 f7       	brne	.-46     	; 0x6aaa <disk_write+0x1c2>
    6ad8:	66 cf       	rjmp	.-308    	; 0x69a6 <disk_write+0xbe>

00006ada <disk_ioctl>:
    6ada:	0f 93       	push	r16
    6adc:	1f 93       	push	r17
    6ade:	cf 93       	push	r28
    6ae0:	df 93       	push	r29
    6ae2:	cd b7       	in	r28, 0x3d	; 61
    6ae4:	de b7       	in	r29, 0x3e	; 62
    6ae6:	60 97       	sbiw	r28, 0x10	; 16
    6ae8:	0f b6       	in	r0, 0x3f	; 63
    6aea:	f8 94       	cli
    6aec:	de bf       	out	0x3e, r29	; 62
    6aee:	0f be       	out	0x3f, r0	; 63
    6af0:	cd bf       	out	0x3d, r28	; 61
    6af2:	81 11       	cpse	r24, r1
    6af4:	1d c0       	rjmp	.+58     	; 0x6b30 <disk_ioctl+0x56>
    6af6:	80 91 08 01 	lds	r24, 0x0108	; 0x800108 <Stat>
    6afa:	80 fd       	sbrc	r24, 0
    6afc:	19 c0       	rjmp	.+50     	; 0x6b30 <disk_ioctl+0x56>
    6afe:	61 30       	cpi	r22, 0x01	; 1
    6b00:	09 f4       	brne	.+2      	; 0x6b04 <disk_ioctl+0x2a>
    6b02:	4d c0       	rjmp	.+154    	; 0x6b9e <disk_ioctl+0xc4>
    6b04:	08 f1       	brcs	.+66     	; 0x6b48 <disk_ioctl+0x6e>
    6b06:	63 30       	cpi	r22, 0x03	; 3
    6b08:	09 f0       	breq	.+2      	; 0x6b0c <disk_ioctl+0x32>
    6b0a:	47 c0       	rjmp	.+142    	; 0x6b9a <disk_ioctl+0xc0>
    6b0c:	80 e8       	ldi	r24, 0x80	; 128
    6b0e:	90 e0       	ldi	r25, 0x00	; 0
    6b10:	a0 e0       	ldi	r26, 0x00	; 0
    6b12:	b0 e0       	ldi	r27, 0x00	; 0
    6b14:	fa 01       	movw	r30, r20
    6b16:	80 83       	st	Z, r24
    6b18:	91 83       	std	Z+1, r25	; 0x01
    6b1a:	a2 83       	std	Z+2, r26	; 0x02
    6b1c:	b3 83       	std	Z+3, r27	; 0x03
    6b1e:	80 e0       	ldi	r24, 0x00	; 0
    6b20:	28 9a       	sbi	0x05, 0	; 5
    6b22:	9f ef       	ldi	r25, 0xFF	; 255
    6b24:	9e bd       	out	0x2e, r25	; 46
    6b26:	0d b4       	in	r0, 0x2d	; 45
    6b28:	07 fe       	sbrs	r0, 7
    6b2a:	fd cf       	rjmp	.-6      	; 0x6b26 <disk_ioctl+0x4c>
    6b2c:	9e b5       	in	r25, 0x2e	; 46
    6b2e:	01 c0       	rjmp	.+2      	; 0x6b32 <disk_ioctl+0x58>
    6b30:	83 e0       	ldi	r24, 0x03	; 3
    6b32:	60 96       	adiw	r28, 0x10	; 16
    6b34:	0f b6       	in	r0, 0x3f	; 63
    6b36:	f8 94       	cli
    6b38:	de bf       	out	0x3e, r29	; 62
    6b3a:	0f be       	out	0x3f, r0	; 63
    6b3c:	cd bf       	out	0x3d, r28	; 61
    6b3e:	df 91       	pop	r29
    6b40:	cf 91       	pop	r28
    6b42:	1f 91       	pop	r17
    6b44:	0f 91       	pop	r16
    6b46:	08 95       	ret
    6b48:	28 98       	cbi	0x05, 0	; 5
    6b4a:	8f ef       	ldi	r24, 0xFF	; 255
    6b4c:	8e bd       	out	0x2e, r24	; 46
    6b4e:	0d b4       	in	r0, 0x2d	; 45
    6b50:	07 fe       	sbrs	r0, 7
    6b52:	fd cf       	rjmp	.-6      	; 0x6b4e <disk_ioctl+0x74>
    6b54:	8e b5       	in	r24, 0x2e	; 46
    6b56:	40 e5       	ldi	r20, 0x50	; 80
    6b58:	53 ec       	ldi	r21, 0xC3	; 195
    6b5a:	3f ef       	ldi	r19, 0xFF	; 255
    6b5c:	3e bd       	out	0x2e, r19	; 46
    6b5e:	0d b4       	in	r0, 0x2d	; 45
    6b60:	07 fe       	sbrs	r0, 7
    6b62:	fd cf       	rjmp	.-6      	; 0x6b5e <disk_ioctl+0x84>
    6b64:	8e b5       	in	r24, 0x2e	; 46
    6b66:	8f 3f       	cpi	r24, 0xFF	; 255
    6b68:	29 f1       	breq	.+74     	; 0x6bb4 <disk_ioctl+0xda>
    6b6a:	84 e6       	ldi	r24, 0x64	; 100
    6b6c:	90 e0       	ldi	r25, 0x00	; 0
    6b6e:	26 b1       	in	r18, 0x06	; 6
    6b70:	26 b1       	in	r18, 0x06	; 6
    6b72:	26 b1       	in	r18, 0x06	; 6
    6b74:	26 b1       	in	r18, 0x06	; 6
    6b76:	26 b1       	in	r18, 0x06	; 6
    6b78:	26 b1       	in	r18, 0x06	; 6
    6b7a:	26 b1       	in	r18, 0x06	; 6
    6b7c:	26 b1       	in	r18, 0x06	; 6
    6b7e:	01 97       	sbiw	r24, 0x01	; 1
    6b80:	b1 f7       	brne	.-20     	; 0x6b6e <disk_ioctl+0x94>
    6b82:	41 50       	subi	r20, 0x01	; 1
    6b84:	51 09       	sbc	r21, r1
    6b86:	51 f7       	brne	.-44     	; 0x6b5c <disk_ioctl+0x82>
    6b88:	28 9a       	sbi	0x05, 0	; 5
    6b8a:	8f ef       	ldi	r24, 0xFF	; 255
    6b8c:	8e bd       	out	0x2e, r24	; 46
    6b8e:	0d b4       	in	r0, 0x2d	; 45
    6b90:	07 fe       	sbrs	r0, 7
    6b92:	fd cf       	rjmp	.-6      	; 0x6b8e <disk_ioctl+0xb4>
    6b94:	8e b5       	in	r24, 0x2e	; 46
    6b96:	81 e0       	ldi	r24, 0x01	; 1
    6b98:	c3 cf       	rjmp	.-122    	; 0x6b20 <disk_ioctl+0x46>
    6b9a:	84 e0       	ldi	r24, 0x04	; 4
    6b9c:	c1 cf       	rjmp	.-126    	; 0x6b20 <disk_ioctl+0x46>
    6b9e:	8a 01       	movw	r16, r20
    6ba0:	40 e0       	ldi	r20, 0x00	; 0
    6ba2:	50 e0       	ldi	r21, 0x00	; 0
    6ba4:	ba 01       	movw	r22, r20
    6ba6:	89 e0       	ldi	r24, 0x09	; 9
    6ba8:	0e 94 6d 32 	call	0x64da	; 0x64da <send_cmd>
    6bac:	88 23       	and	r24, r24
    6bae:	21 f0       	breq	.+8      	; 0x6bb8 <disk_ioctl+0xde>
    6bb0:	81 e0       	ldi	r24, 0x01	; 1
    6bb2:	b6 cf       	rjmp	.-148    	; 0x6b20 <disk_ioctl+0x46>
    6bb4:	80 e0       	ldi	r24, 0x00	; 0
    6bb6:	b4 cf       	rjmp	.-152    	; 0x6b20 <disk_ioctl+0x46>
    6bb8:	40 e1       	ldi	r20, 0x10	; 16
    6bba:	57 e2       	ldi	r21, 0x27	; 39
    6bbc:	3f ef       	ldi	r19, 0xFF	; 255
    6bbe:	3e bd       	out	0x2e, r19	; 46
    6bc0:	0d b4       	in	r0, 0x2d	; 45
    6bc2:	07 fe       	sbrs	r0, 7
    6bc4:	fd cf       	rjmp	.-6      	; 0x6bc0 <disk_ioctl+0xe6>
    6bc6:	8e b5       	in	r24, 0x2e	; 46
    6bc8:	8f 3f       	cpi	r24, 0xFF	; 255
    6bca:	89 f4       	brne	.+34     	; 0x6bee <disk_ioctl+0x114>
    6bcc:	84 e6       	ldi	r24, 0x64	; 100
    6bce:	90 e0       	ldi	r25, 0x00	; 0
    6bd0:	26 b1       	in	r18, 0x06	; 6
    6bd2:	26 b1       	in	r18, 0x06	; 6
    6bd4:	26 b1       	in	r18, 0x06	; 6
    6bd6:	26 b1       	in	r18, 0x06	; 6
    6bd8:	26 b1       	in	r18, 0x06	; 6
    6bda:	26 b1       	in	r18, 0x06	; 6
    6bdc:	26 b1       	in	r18, 0x06	; 6
    6bde:	26 b1       	in	r18, 0x06	; 6
    6be0:	01 97       	sbiw	r24, 0x01	; 1
    6be2:	b1 f7       	brne	.-20     	; 0x6bd0 <disk_ioctl+0xf6>
    6be4:	41 50       	subi	r20, 0x01	; 1
    6be6:	51 09       	sbc	r21, r1
    6be8:	51 f7       	brne	.-44     	; 0x6bbe <disk_ioctl+0xe4>
    6bea:	81 e0       	ldi	r24, 0x01	; 1
    6bec:	99 cf       	rjmp	.-206    	; 0x6b20 <disk_ioctl+0x46>
    6bee:	8e 3f       	cpi	r24, 0xFE	; 254
    6bf0:	f9 f6       	brne	.-66     	; 0x6bb0 <disk_ioctl+0xd6>
    6bf2:	fe 01       	movw	r30, r28
    6bf4:	31 96       	adiw	r30, 0x01	; 1
    6bf6:	9e 01       	movw	r18, r28
    6bf8:	2f 5e       	subi	r18, 0xEF	; 239
    6bfa:	3f 4f       	sbci	r19, 0xFF	; 255
    6bfc:	8f ef       	ldi	r24, 0xFF	; 255
    6bfe:	8e bd       	out	0x2e, r24	; 46
    6c00:	0d b4       	in	r0, 0x2d	; 45
    6c02:	07 fe       	sbrs	r0, 7
    6c04:	fd cf       	rjmp	.-6      	; 0x6c00 <disk_ioctl+0x126>
    6c06:	9e b5       	in	r25, 0x2e	; 46
    6c08:	91 93       	st	Z+, r25
    6c0a:	e2 17       	cp	r30, r18
    6c0c:	f3 07       	cpc	r31, r19
    6c0e:	b9 f7       	brne	.-18     	; 0x6bfe <disk_ioctl+0x124>
    6c10:	8f ef       	ldi	r24, 0xFF	; 255
    6c12:	8e bd       	out	0x2e, r24	; 46
    6c14:	0d b4       	in	r0, 0x2d	; 45
    6c16:	07 fe       	sbrs	r0, 7
    6c18:	fd cf       	rjmp	.-6      	; 0x6c14 <disk_ioctl+0x13a>
    6c1a:	8e b5       	in	r24, 0x2e	; 46
    6c1c:	8f ef       	ldi	r24, 0xFF	; 255
    6c1e:	8e bd       	out	0x2e, r24	; 46
    6c20:	0d b4       	in	r0, 0x2d	; 45
    6c22:	07 fe       	sbrs	r0, 7
    6c24:	fd cf       	rjmp	.-6      	; 0x6c20 <disk_ioctl+0x146>
    6c26:	8e b5       	in	r24, 0x2e	; 46
    6c28:	89 81       	ldd	r24, Y+1	; 0x01
    6c2a:	82 95       	swap	r24
    6c2c:	86 95       	lsr	r24
    6c2e:	86 95       	lsr	r24
    6c30:	83 70       	andi	r24, 0x03	; 3
    6c32:	81 30       	cpi	r24, 0x01	; 1
    6c34:	a1 f1       	breq	.+104    	; 0x6c9e <disk_ioctl+0x1c4>
    6c36:	89 85       	ldd	r24, Y+9	; 0x09
    6c38:	82 95       	swap	r24
    6c3a:	86 95       	lsr	r24
    6c3c:	86 95       	lsr	r24
    6c3e:	83 70       	andi	r24, 0x03	; 3
    6c40:	28 85       	ldd	r18, Y+8	; 0x08
    6c42:	90 e0       	ldi	r25, 0x00	; 0
    6c44:	f4 e0       	ldi	r31, 0x04	; 4
    6c46:	2f 9f       	mul	r18, r31
    6c48:	80 0d       	add	r24, r0
    6c4a:	91 1d       	adc	r25, r1
    6c4c:	11 24       	eor	r1, r1
    6c4e:	9c 01       	movw	r18, r24
    6c50:	2f 5f       	subi	r18, 0xFF	; 255
    6c52:	3f 4f       	sbci	r19, 0xFF	; 255
    6c54:	8f 81       	ldd	r24, Y+7	; 0x07
    6c56:	83 70       	andi	r24, 0x03	; 3
    6c58:	90 e0       	ldi	r25, 0x00	; 0
    6c5a:	98 2f       	mov	r25, r24
    6c5c:	88 27       	eor	r24, r24
    6c5e:	99 0f       	add	r25, r25
    6c60:	99 0f       	add	r25, r25
    6c62:	82 0f       	add	r24, r18
    6c64:	93 1f       	adc	r25, r19
    6c66:	a0 e0       	ldi	r26, 0x00	; 0
    6c68:	b0 e0       	ldi	r27, 0x00	; 0
    6c6a:	3e 81       	ldd	r19, Y+6	; 0x06
    6c6c:	3f 70       	andi	r19, 0x0F	; 15
    6c6e:	2b 85       	ldd	r18, Y+11	; 0x0b
    6c70:	22 1f       	adc	r18, r18
    6c72:	22 27       	eor	r18, r18
    6c74:	22 1f       	adc	r18, r18
    6c76:	32 0f       	add	r19, r18
    6c78:	2a 85       	ldd	r18, Y+10	; 0x0a
    6c7a:	23 70       	andi	r18, 0x03	; 3
    6c7c:	22 0f       	add	r18, r18
    6c7e:	23 0f       	add	r18, r19
    6c80:	27 50       	subi	r18, 0x07	; 7
    6c82:	04 c0       	rjmp	.+8      	; 0x6c8c <disk_ioctl+0x1b2>
    6c84:	88 0f       	add	r24, r24
    6c86:	99 1f       	adc	r25, r25
    6c88:	aa 1f       	adc	r26, r26
    6c8a:	bb 1f       	adc	r27, r27
    6c8c:	2a 95       	dec	r18
    6c8e:	d2 f7       	brpl	.-12     	; 0x6c84 <disk_ioctl+0x1aa>
    6c90:	f8 01       	movw	r30, r16
    6c92:	80 83       	st	Z, r24
    6c94:	91 83       	std	Z+1, r25	; 0x01
    6c96:	a2 83       	std	Z+2, r26	; 0x02
    6c98:	b3 83       	std	Z+3, r27	; 0x03
    6c9a:	80 e0       	ldi	r24, 0x00	; 0
    6c9c:	41 cf       	rjmp	.-382    	; 0x6b20 <disk_ioctl+0x46>
    6c9e:	29 85       	ldd	r18, Y+9	; 0x09
    6ca0:	30 e0       	ldi	r19, 0x00	; 0
    6ca2:	32 2f       	mov	r19, r18
    6ca4:	22 27       	eor	r18, r18
    6ca6:	8a 85       	ldd	r24, Y+10	; 0x0a
    6ca8:	28 0f       	add	r18, r24
    6caa:	31 1d       	adc	r19, r1
    6cac:	88 85       	ldd	r24, Y+8	; 0x08
    6cae:	8f 73       	andi	r24, 0x3F	; 63
    6cb0:	90 e0       	ldi	r25, 0x00	; 0
    6cb2:	a0 e0       	ldi	r26, 0x00	; 0
    6cb4:	b0 e0       	ldi	r27, 0x00	; 0
    6cb6:	dc 01       	movw	r26, r24
    6cb8:	99 27       	eor	r25, r25
    6cba:	88 27       	eor	r24, r24
    6cbc:	01 96       	adiw	r24, 0x01	; 1
    6cbe:	a1 1d       	adc	r26, r1
    6cc0:	b1 1d       	adc	r27, r1
    6cc2:	82 0f       	add	r24, r18
    6cc4:	93 1f       	adc	r25, r19
    6cc6:	a1 1d       	adc	r26, r1
    6cc8:	b1 1d       	adc	r27, r1
    6cca:	7a e0       	ldi	r23, 0x0A	; 10
    6ccc:	88 0f       	add	r24, r24
    6cce:	99 1f       	adc	r25, r25
    6cd0:	aa 1f       	adc	r26, r26
    6cd2:	bb 1f       	adc	r27, r27
    6cd4:	7a 95       	dec	r23
    6cd6:	d1 f7       	brne	.-12     	; 0x6ccc <disk_ioctl+0x1f2>
    6cd8:	f8 01       	movw	r30, r16
    6cda:	80 83       	st	Z, r24
    6cdc:	91 83       	std	Z+1, r25	; 0x01
    6cde:	a2 83       	std	Z+2, r26	; 0x02
    6ce0:	b3 83       	std	Z+3, r27	; 0x03
    6ce2:	80 e0       	ldi	r24, 0x00	; 0
    6ce4:	1d cf       	rjmp	.-454    	; 0x6b20 <disk_ioctl+0x46>

00006ce6 <SetPinDir>:
    6ce6:	41 30       	cpi	r20, 0x01	; 1
    6ce8:	39 f0       	breq	.+14     	; 0x6cf8 <SetPinDir+0x12>
    6cea:	81 30       	cpi	r24, 0x01	; 1
    6cec:	b9 f0       	breq	.+46     	; 0x6d1c <SetPinDir+0x36>
    6cee:	82 30       	cpi	r24, 0x02	; 2
    6cf0:	31 f1       	breq	.+76     	; 0x6d3e <SetPinDir+0x58>
    6cf2:	83 30       	cpi	r24, 0x03	; 3
    6cf4:	a9 f1       	breq	.+106    	; 0x6d60 <SetPinDir+0x7a>
    6cf6:	08 95       	ret
    6cf8:	81 30       	cpi	r24, 0x01	; 1
    6cfa:	09 f4       	brne	.+2      	; 0x6cfe <SetPinDir+0x18>
    6cfc:	4c c0       	rjmp	.+152    	; 0x6d96 <SetPinDir+0xb0>
    6cfe:	82 30       	cpi	r24, 0x02	; 2
    6d00:	09 f4       	brne	.+2      	; 0x6d04 <SetPinDir+0x1e>
    6d02:	3f c0       	rjmp	.+126    	; 0x6d82 <SetPinDir+0x9c>
    6d04:	83 30       	cpi	r24, 0x03	; 3
    6d06:	b9 f7       	brne	.-18     	; 0x6cf6 <SetPinDir+0x10>
    6d08:	2a b1       	in	r18, 0x0a	; 10
    6d0a:	81 e0       	ldi	r24, 0x01	; 1
    6d0c:	90 e0       	ldi	r25, 0x00	; 0
    6d0e:	01 c0       	rjmp	.+2      	; 0x6d12 <SetPinDir+0x2c>
    6d10:	88 0f       	add	r24, r24
    6d12:	6a 95       	dec	r22
    6d14:	ea f7       	brpl	.-6      	; 0x6d10 <SetPinDir+0x2a>
    6d16:	82 2b       	or	r24, r18
    6d18:	8a b9       	out	0x0a, r24	; 10
    6d1a:	08 95       	ret
    6d1c:	24 b1       	in	r18, 0x04	; 4
    6d1e:	81 e0       	ldi	r24, 0x01	; 1
    6d20:	90 e0       	ldi	r25, 0x00	; 0
    6d22:	01 c0       	rjmp	.+2      	; 0x6d26 <SetPinDir+0x40>
    6d24:	88 0f       	add	r24, r24
    6d26:	6a 95       	dec	r22
    6d28:	ea f7       	brpl	.-6      	; 0x6d24 <SetPinDir+0x3e>
    6d2a:	80 95       	com	r24
    6d2c:	92 2f       	mov	r25, r18
    6d2e:	98 23       	and	r25, r24
    6d30:	94 b9       	out	0x04, r25	; 4
    6d32:	42 30       	cpi	r20, 0x02	; 2
    6d34:	01 f7       	brne	.-64     	; 0x6cf6 <SetPinDir+0x10>
    6d36:	95 b1       	in	r25, 0x05	; 5
    6d38:	89 23       	and	r24, r25
    6d3a:	85 b9       	out	0x05, r24	; 5
    6d3c:	08 95       	ret
    6d3e:	27 b1       	in	r18, 0x07	; 7
    6d40:	81 e0       	ldi	r24, 0x01	; 1
    6d42:	90 e0       	ldi	r25, 0x00	; 0
    6d44:	01 c0       	rjmp	.+2      	; 0x6d48 <SetPinDir+0x62>
    6d46:	88 0f       	add	r24, r24
    6d48:	6a 95       	dec	r22
    6d4a:	ea f7       	brpl	.-6      	; 0x6d46 <SetPinDir+0x60>
    6d4c:	80 95       	com	r24
    6d4e:	92 2f       	mov	r25, r18
    6d50:	98 23       	and	r25, r24
    6d52:	97 b9       	out	0x07, r25	; 7
    6d54:	42 30       	cpi	r20, 0x02	; 2
    6d56:	49 f5       	brne	.+82     	; 0x6daa <SetPinDir+0xc4>
    6d58:	98 b1       	in	r25, 0x08	; 8
    6d5a:	89 23       	and	r24, r25
    6d5c:	88 b9       	out	0x08, r24	; 8
    6d5e:	08 95       	ret
    6d60:	2a b1       	in	r18, 0x0a	; 10
    6d62:	81 e0       	ldi	r24, 0x01	; 1
    6d64:	90 e0       	ldi	r25, 0x00	; 0
    6d66:	01 c0       	rjmp	.+2      	; 0x6d6a <SetPinDir+0x84>
    6d68:	88 0f       	add	r24, r24
    6d6a:	6a 95       	dec	r22
    6d6c:	ea f7       	brpl	.-6      	; 0x6d68 <SetPinDir+0x82>
    6d6e:	80 95       	com	r24
    6d70:	92 2f       	mov	r25, r18
    6d72:	98 23       	and	r25, r24
    6d74:	9a b9       	out	0x0a, r25	; 10
    6d76:	42 30       	cpi	r20, 0x02	; 2
    6d78:	c9 f4       	brne	.+50     	; 0x6dac <SetPinDir+0xc6>
    6d7a:	9b b1       	in	r25, 0x0b	; 11
    6d7c:	89 23       	and	r24, r25
    6d7e:	8b b9       	out	0x0b, r24	; 11
    6d80:	08 95       	ret
    6d82:	27 b1       	in	r18, 0x07	; 7
    6d84:	81 e0       	ldi	r24, 0x01	; 1
    6d86:	90 e0       	ldi	r25, 0x00	; 0
    6d88:	01 c0       	rjmp	.+2      	; 0x6d8c <SetPinDir+0xa6>
    6d8a:	88 0f       	add	r24, r24
    6d8c:	6a 95       	dec	r22
    6d8e:	ea f7       	brpl	.-6      	; 0x6d8a <SetPinDir+0xa4>
    6d90:	82 2b       	or	r24, r18
    6d92:	87 b9       	out	0x07, r24	; 7
    6d94:	08 95       	ret
    6d96:	24 b1       	in	r18, 0x04	; 4
    6d98:	81 e0       	ldi	r24, 0x01	; 1
    6d9a:	90 e0       	ldi	r25, 0x00	; 0
    6d9c:	01 c0       	rjmp	.+2      	; 0x6da0 <SetPinDir+0xba>
    6d9e:	88 0f       	add	r24, r24
    6da0:	6a 95       	dec	r22
    6da2:	ea f7       	brpl	.-6      	; 0x6d9e <SetPinDir+0xb8>
    6da4:	82 2b       	or	r24, r18
    6da6:	84 b9       	out	0x04, r24	; 4
    6da8:	08 95       	ret
    6daa:	08 95       	ret
    6dac:	08 95       	ret

00006dae <ReadPin>:
    6dae:	81 30       	cpi	r24, 0x01	; 1
    6db0:	79 f0       	breq	.+30     	; 0x6dd0 <ReadPin+0x22>
    6db2:	82 30       	cpi	r24, 0x02	; 2
    6db4:	b1 f0       	breq	.+44     	; 0x6de2 <ReadPin+0x34>
    6db6:	83 30       	cpi	r24, 0x03	; 3
    6db8:	11 f0       	breq	.+4      	; 0x6dbe <ReadPin+0x10>
    6dba:	80 e0       	ldi	r24, 0x00	; 0
    6dbc:	08 95       	ret
    6dbe:	89 b1       	in	r24, 0x09	; 9
    6dc0:	90 e0       	ldi	r25, 0x00	; 0
    6dc2:	02 c0       	rjmp	.+4      	; 0x6dc8 <ReadPin+0x1a>
    6dc4:	95 95       	asr	r25
    6dc6:	87 95       	ror	r24
    6dc8:	6a 95       	dec	r22
    6dca:	e2 f7       	brpl	.-8      	; 0x6dc4 <ReadPin+0x16>
    6dcc:	81 70       	andi	r24, 0x01	; 1
    6dce:	08 95       	ret
    6dd0:	83 b1       	in	r24, 0x03	; 3
    6dd2:	90 e0       	ldi	r25, 0x00	; 0
    6dd4:	02 c0       	rjmp	.+4      	; 0x6dda <ReadPin+0x2c>
    6dd6:	95 95       	asr	r25
    6dd8:	87 95       	ror	r24
    6dda:	6a 95       	dec	r22
    6ddc:	e2 f7       	brpl	.-8      	; 0x6dd6 <ReadPin+0x28>
    6dde:	81 70       	andi	r24, 0x01	; 1
    6de0:	08 95       	ret
    6de2:	86 b1       	in	r24, 0x06	; 6
    6de4:	90 e0       	ldi	r25, 0x00	; 0
    6de6:	02 c0       	rjmp	.+4      	; 0x6dec <ReadPin+0x3e>
    6de8:	95 95       	asr	r25
    6dea:	87 95       	ror	r24
    6dec:	6a 95       	dec	r22
    6dee:	e2 f7       	brpl	.-8      	; 0x6de8 <ReadPin+0x3a>
    6df0:	81 70       	andi	r24, 0x01	; 1
    6df2:	08 95       	ret

00006df4 <WritePin>:
    6df4:	44 23       	and	r20, r20
    6df6:	39 f0       	breq	.+14     	; 0x6e06 <WritePin+0x12>
    6df8:	81 30       	cpi	r24, 0x01	; 1
    6dfa:	b1 f0       	breq	.+44     	; 0x6e28 <WritePin+0x34>
    6dfc:	82 30       	cpi	r24, 0x02	; 2
    6dfe:	f1 f1       	breq	.+124    	; 0x6e7c <WritePin+0x88>
    6e00:	83 30       	cpi	r24, 0x03	; 3
    6e02:	39 f1       	breq	.+78     	; 0x6e52 <WritePin+0x5e>
    6e04:	08 95       	ret
    6e06:	81 30       	cpi	r24, 0x01	; 1
    6e08:	c9 f0       	breq	.+50     	; 0x6e3c <WritePin+0x48>
    6e0a:	82 30       	cpi	r24, 0x02	; 2
    6e0c:	61 f1       	breq	.+88     	; 0x6e66 <WritePin+0x72>
    6e0e:	83 30       	cpi	r24, 0x03	; 3
    6e10:	c9 f7       	brne	.-14     	; 0x6e04 <WritePin+0x10>
    6e12:	2b b1       	in	r18, 0x0b	; 11
    6e14:	81 e0       	ldi	r24, 0x01	; 1
    6e16:	90 e0       	ldi	r25, 0x00	; 0
    6e18:	01 c0       	rjmp	.+2      	; 0x6e1c <WritePin+0x28>
    6e1a:	88 0f       	add	r24, r24
    6e1c:	6a 95       	dec	r22
    6e1e:	ea f7       	brpl	.-6      	; 0x6e1a <WritePin+0x26>
    6e20:	80 95       	com	r24
    6e22:	82 23       	and	r24, r18
    6e24:	8b b9       	out	0x0b, r24	; 11
    6e26:	08 95       	ret
    6e28:	25 b1       	in	r18, 0x05	; 5
    6e2a:	81 e0       	ldi	r24, 0x01	; 1
    6e2c:	90 e0       	ldi	r25, 0x00	; 0
    6e2e:	01 c0       	rjmp	.+2      	; 0x6e32 <WritePin+0x3e>
    6e30:	88 0f       	add	r24, r24
    6e32:	6a 95       	dec	r22
    6e34:	ea f7       	brpl	.-6      	; 0x6e30 <WritePin+0x3c>
    6e36:	82 2b       	or	r24, r18
    6e38:	85 b9       	out	0x05, r24	; 5
    6e3a:	08 95       	ret
    6e3c:	25 b1       	in	r18, 0x05	; 5
    6e3e:	81 e0       	ldi	r24, 0x01	; 1
    6e40:	90 e0       	ldi	r25, 0x00	; 0
    6e42:	01 c0       	rjmp	.+2      	; 0x6e46 <WritePin+0x52>
    6e44:	88 0f       	add	r24, r24
    6e46:	6a 95       	dec	r22
    6e48:	ea f7       	brpl	.-6      	; 0x6e44 <WritePin+0x50>
    6e4a:	80 95       	com	r24
    6e4c:	82 23       	and	r24, r18
    6e4e:	85 b9       	out	0x05, r24	; 5
    6e50:	08 95       	ret
    6e52:	2b b1       	in	r18, 0x0b	; 11
    6e54:	81 e0       	ldi	r24, 0x01	; 1
    6e56:	90 e0       	ldi	r25, 0x00	; 0
    6e58:	01 c0       	rjmp	.+2      	; 0x6e5c <WritePin+0x68>
    6e5a:	88 0f       	add	r24, r24
    6e5c:	6a 95       	dec	r22
    6e5e:	ea f7       	brpl	.-6      	; 0x6e5a <WritePin+0x66>
    6e60:	82 2b       	or	r24, r18
    6e62:	8b b9       	out	0x0b, r24	; 11
    6e64:	08 95       	ret
    6e66:	28 b1       	in	r18, 0x08	; 8
    6e68:	81 e0       	ldi	r24, 0x01	; 1
    6e6a:	90 e0       	ldi	r25, 0x00	; 0
    6e6c:	01 c0       	rjmp	.+2      	; 0x6e70 <WritePin+0x7c>
    6e6e:	88 0f       	add	r24, r24
    6e70:	6a 95       	dec	r22
    6e72:	ea f7       	brpl	.-6      	; 0x6e6e <WritePin+0x7a>
    6e74:	80 95       	com	r24
    6e76:	82 23       	and	r24, r18
    6e78:	88 b9       	out	0x08, r24	; 8
    6e7a:	08 95       	ret
    6e7c:	28 b1       	in	r18, 0x08	; 8
    6e7e:	81 e0       	ldi	r24, 0x01	; 1
    6e80:	90 e0       	ldi	r25, 0x00	; 0
    6e82:	01 c0       	rjmp	.+2      	; 0x6e86 <WritePin+0x92>
    6e84:	88 0f       	add	r24, r24
    6e86:	6a 95       	dec	r22
    6e88:	ea f7       	brpl	.-6      	; 0x6e84 <WritePin+0x90>
    6e8a:	82 2b       	or	r24, r18
    6e8c:	88 b9       	out	0x08, r24	; 8
    6e8e:	08 95       	ret

00006e90 <lcd_write.constprop.0>:
    6e90:	cf 93       	push	r28
    6e92:	c8 2f       	mov	r28, r24
    6e94:	41 e0       	ldi	r20, 0x01	; 1
    6e96:	63 e0       	ldi	r22, 0x03	; 3
    6e98:	83 e0       	ldi	r24, 0x03	; 3
    6e9a:	0e 94 fa 36 	call	0x6df4	; 0x6df4 <WritePin>
    6e9e:	c7 fd       	sbrc	r28, 7
    6ea0:	9a c0       	rjmp	.+308    	; 0x6fd6 <lcd_write.constprop.0+0x146>
    6ea2:	40 e0       	ldi	r20, 0x00	; 0
    6ea4:	63 e0       	ldi	r22, 0x03	; 3
    6ea6:	82 e0       	ldi	r24, 0x02	; 2
    6ea8:	0e 94 fa 36 	call	0x6df4	; 0x6df4 <WritePin>
    6eac:	c6 ff       	sbrs	r28, 6
    6eae:	67 c0       	rjmp	.+206    	; 0x6f7e <lcd_write.constprop.0+0xee>
    6eb0:	41 e0       	ldi	r20, 0x01	; 1
    6eb2:	62 e0       	ldi	r22, 0x02	; 2
    6eb4:	82 e0       	ldi	r24, 0x02	; 2
    6eb6:	0e 94 fa 36 	call	0x6df4	; 0x6df4 <WritePin>
    6eba:	c5 ff       	sbrs	r28, 5
    6ebc:	67 c0       	rjmp	.+206    	; 0x6f8c <lcd_write.constprop.0+0xfc>
    6ebe:	41 e0       	ldi	r20, 0x01	; 1
    6ec0:	61 e0       	ldi	r22, 0x01	; 1
    6ec2:	82 e0       	ldi	r24, 0x02	; 2
    6ec4:	0e 94 fa 36 	call	0x6df4	; 0x6df4 <WritePin>
    6ec8:	c4 ff       	sbrs	r28, 4
    6eca:	67 c0       	rjmp	.+206    	; 0x6f9a <lcd_write.constprop.0+0x10a>
    6ecc:	41 e0       	ldi	r20, 0x01	; 1
    6ece:	60 e0       	ldi	r22, 0x00	; 0
    6ed0:	82 e0       	ldi	r24, 0x02	; 2
    6ed2:	0e 94 fa 36 	call	0x6df4	; 0x6df4 <WritePin>
    6ed6:	00 c0       	rjmp	.+0      	; 0x6ed8 <lcd_write.constprop.0+0x48>
    6ed8:	41 e0       	ldi	r20, 0x01	; 1
    6eda:	65 e0       	ldi	r22, 0x05	; 5
    6edc:	82 e0       	ldi	r24, 0x02	; 2
    6ede:	0e 94 fa 36 	call	0x6df4	; 0x6df4 <WritePin>
    6ee2:	82 e0       	ldi	r24, 0x02	; 2
    6ee4:	8a 95       	dec	r24
    6ee6:	f1 f7       	brne	.-4      	; 0x6ee4 <lcd_write.constprop.0+0x54>
    6ee8:	00 c0       	rjmp	.+0      	; 0x6eea <lcd_write.constprop.0+0x5a>
    6eea:	40 e0       	ldi	r20, 0x00	; 0
    6eec:	65 e0       	ldi	r22, 0x05	; 5
    6eee:	82 e0       	ldi	r24, 0x02	; 2
    6ef0:	0e 94 fa 36 	call	0x6df4	; 0x6df4 <WritePin>
    6ef4:	c3 ff       	sbrs	r28, 3
    6ef6:	69 c0       	rjmp	.+210    	; 0x6fca <lcd_write.constprop.0+0x13a>
    6ef8:	41 e0       	ldi	r20, 0x01	; 1
    6efa:	63 e0       	ldi	r22, 0x03	; 3
    6efc:	82 e0       	ldi	r24, 0x02	; 2
    6efe:	0e 94 fa 36 	call	0x6df4	; 0x6df4 <WritePin>
    6f02:	c2 ff       	sbrs	r28, 2
    6f04:	5c c0       	rjmp	.+184    	; 0x6fbe <lcd_write.constprop.0+0x12e>
    6f06:	41 e0       	ldi	r20, 0x01	; 1
    6f08:	62 e0       	ldi	r22, 0x02	; 2
    6f0a:	82 e0       	ldi	r24, 0x02	; 2
    6f0c:	0e 94 fa 36 	call	0x6df4	; 0x6df4 <WritePin>
    6f10:	c1 ff       	sbrs	r28, 1
    6f12:	4f c0       	rjmp	.+158    	; 0x6fb2 <lcd_write.constprop.0+0x122>
    6f14:	41 e0       	ldi	r20, 0x01	; 1
    6f16:	61 e0       	ldi	r22, 0x01	; 1
    6f18:	82 e0       	ldi	r24, 0x02	; 2
    6f1a:	0e 94 fa 36 	call	0x6df4	; 0x6df4 <WritePin>
    6f1e:	c0 ff       	sbrs	r28, 0
    6f20:	42 c0       	rjmp	.+132    	; 0x6fa6 <lcd_write.constprop.0+0x116>
    6f22:	41 e0       	ldi	r20, 0x01	; 1
    6f24:	60 e0       	ldi	r22, 0x00	; 0
    6f26:	82 e0       	ldi	r24, 0x02	; 2
    6f28:	0e 94 fa 36 	call	0x6df4	; 0x6df4 <WritePin>
    6f2c:	00 c0       	rjmp	.+0      	; 0x6f2e <lcd_write.constprop.0+0x9e>
    6f2e:	41 e0       	ldi	r20, 0x01	; 1
    6f30:	65 e0       	ldi	r22, 0x05	; 5
    6f32:	82 e0       	ldi	r24, 0x02	; 2
    6f34:	0e 94 fa 36 	call	0x6df4	; 0x6df4 <WritePin>
    6f38:	82 e0       	ldi	r24, 0x02	; 2
    6f3a:	8a 95       	dec	r24
    6f3c:	f1 f7       	brne	.-4      	; 0x6f3a <lcd_write.constprop.0+0xaa>
    6f3e:	00 c0       	rjmp	.+0      	; 0x6f40 <lcd_write.constprop.0+0xb0>
    6f40:	40 e0       	ldi	r20, 0x00	; 0
    6f42:	65 e0       	ldi	r22, 0x05	; 5
    6f44:	82 e0       	ldi	r24, 0x02	; 2
    6f46:	0e 94 fa 36 	call	0x6df4	; 0x6df4 <WritePin>
    6f4a:	41 e0       	ldi	r20, 0x01	; 1
    6f4c:	63 e0       	ldi	r22, 0x03	; 3
    6f4e:	82 e0       	ldi	r24, 0x02	; 2
    6f50:	0e 94 fa 36 	call	0x6df4	; 0x6df4 <WritePin>
    6f54:	41 e0       	ldi	r20, 0x01	; 1
    6f56:	62 e0       	ldi	r22, 0x02	; 2
    6f58:	82 e0       	ldi	r24, 0x02	; 2
    6f5a:	0e 94 fa 36 	call	0x6df4	; 0x6df4 <WritePin>
    6f5e:	41 e0       	ldi	r20, 0x01	; 1
    6f60:	61 e0       	ldi	r22, 0x01	; 1
    6f62:	82 e0       	ldi	r24, 0x02	; 2
    6f64:	0e 94 fa 36 	call	0x6df4	; 0x6df4 <WritePin>
    6f68:	41 e0       	ldi	r20, 0x01	; 1
    6f6a:	60 e0       	ldi	r22, 0x00	; 0
    6f6c:	82 e0       	ldi	r24, 0x02	; 2
    6f6e:	0e 94 fa 36 	call	0x6df4	; 0x6df4 <WritePin>
    6f72:	85 ed       	ldi	r24, 0xD5	; 213
    6f74:	8a 95       	dec	r24
    6f76:	f1 f7       	brne	.-4      	; 0x6f74 <lcd_write.constprop.0+0xe4>
    6f78:	00 00       	nop
    6f7a:	cf 91       	pop	r28
    6f7c:	08 95       	ret
    6f7e:	40 e0       	ldi	r20, 0x00	; 0
    6f80:	62 e0       	ldi	r22, 0x02	; 2
    6f82:	82 e0       	ldi	r24, 0x02	; 2
    6f84:	0e 94 fa 36 	call	0x6df4	; 0x6df4 <WritePin>
    6f88:	c5 fd       	sbrc	r28, 5
    6f8a:	99 cf       	rjmp	.-206    	; 0x6ebe <lcd_write.constprop.0+0x2e>
    6f8c:	40 e0       	ldi	r20, 0x00	; 0
    6f8e:	61 e0       	ldi	r22, 0x01	; 1
    6f90:	82 e0       	ldi	r24, 0x02	; 2
    6f92:	0e 94 fa 36 	call	0x6df4	; 0x6df4 <WritePin>
    6f96:	c4 fd       	sbrc	r28, 4
    6f98:	99 cf       	rjmp	.-206    	; 0x6ecc <lcd_write.constprop.0+0x3c>
    6f9a:	40 e0       	ldi	r20, 0x00	; 0
    6f9c:	60 e0       	ldi	r22, 0x00	; 0
    6f9e:	82 e0       	ldi	r24, 0x02	; 2
    6fa0:	0e 94 fa 36 	call	0x6df4	; 0x6df4 <WritePin>
    6fa4:	98 cf       	rjmp	.-208    	; 0x6ed6 <lcd_write.constprop.0+0x46>
    6fa6:	40 e0       	ldi	r20, 0x00	; 0
    6fa8:	60 e0       	ldi	r22, 0x00	; 0
    6faa:	82 e0       	ldi	r24, 0x02	; 2
    6fac:	0e 94 fa 36 	call	0x6df4	; 0x6df4 <WritePin>
    6fb0:	bd cf       	rjmp	.-134    	; 0x6f2c <lcd_write.constprop.0+0x9c>
    6fb2:	40 e0       	ldi	r20, 0x00	; 0
    6fb4:	61 e0       	ldi	r22, 0x01	; 1
    6fb6:	82 e0       	ldi	r24, 0x02	; 2
    6fb8:	0e 94 fa 36 	call	0x6df4	; 0x6df4 <WritePin>
    6fbc:	b0 cf       	rjmp	.-160    	; 0x6f1e <lcd_write.constprop.0+0x8e>
    6fbe:	40 e0       	ldi	r20, 0x00	; 0
    6fc0:	62 e0       	ldi	r22, 0x02	; 2
    6fc2:	82 e0       	ldi	r24, 0x02	; 2
    6fc4:	0e 94 fa 36 	call	0x6df4	; 0x6df4 <WritePin>
    6fc8:	a3 cf       	rjmp	.-186    	; 0x6f10 <lcd_write.constprop.0+0x80>
    6fca:	40 e0       	ldi	r20, 0x00	; 0
    6fcc:	63 e0       	ldi	r22, 0x03	; 3
    6fce:	82 e0       	ldi	r24, 0x02	; 2
    6fd0:	0e 94 fa 36 	call	0x6df4	; 0x6df4 <WritePin>
    6fd4:	96 cf       	rjmp	.-212    	; 0x6f02 <lcd_write.constprop.0+0x72>
    6fd6:	41 e0       	ldi	r20, 0x01	; 1
    6fd8:	63 e0       	ldi	r22, 0x03	; 3
    6fda:	82 e0       	ldi	r24, 0x02	; 2
    6fdc:	0e 94 fa 36 	call	0x6df4	; 0x6df4 <WritePin>
    6fe0:	65 cf       	rjmp	.-310    	; 0x6eac <lcd_write.constprop.0+0x1c>

00006fe2 <lcd_write.constprop.1>:
    6fe2:	cf 93       	push	r28
    6fe4:	c8 2f       	mov	r28, r24
    6fe6:	40 e0       	ldi	r20, 0x00	; 0
    6fe8:	63 e0       	ldi	r22, 0x03	; 3
    6fea:	83 e0       	ldi	r24, 0x03	; 3
    6fec:	0e 94 fa 36 	call	0x6df4	; 0x6df4 <WritePin>
    6ff0:	c7 fd       	sbrc	r28, 7
    6ff2:	9c c0       	rjmp	.+312    	; 0x712c <lcd_write.constprop.1+0x14a>
    6ff4:	40 e0       	ldi	r20, 0x00	; 0
    6ff6:	63 e0       	ldi	r22, 0x03	; 3
    6ff8:	82 e0       	ldi	r24, 0x02	; 2
    6ffa:	0e 94 fa 36 	call	0x6df4	; 0x6df4 <WritePin>
    6ffe:	c6 ff       	sbrs	r28, 6
    7000:	69 c0       	rjmp	.+210    	; 0x70d4 <lcd_write.constprop.1+0xf2>
    7002:	41 e0       	ldi	r20, 0x01	; 1
    7004:	62 e0       	ldi	r22, 0x02	; 2
    7006:	82 e0       	ldi	r24, 0x02	; 2
    7008:	0e 94 fa 36 	call	0x6df4	; 0x6df4 <WritePin>
    700c:	c5 ff       	sbrs	r28, 5
    700e:	69 c0       	rjmp	.+210    	; 0x70e2 <lcd_write.constprop.1+0x100>
    7010:	41 e0       	ldi	r20, 0x01	; 1
    7012:	61 e0       	ldi	r22, 0x01	; 1
    7014:	82 e0       	ldi	r24, 0x02	; 2
    7016:	0e 94 fa 36 	call	0x6df4	; 0x6df4 <WritePin>
    701a:	c4 ff       	sbrs	r28, 4
    701c:	69 c0       	rjmp	.+210    	; 0x70f0 <lcd_write.constprop.1+0x10e>
    701e:	41 e0       	ldi	r20, 0x01	; 1
    7020:	60 e0       	ldi	r22, 0x00	; 0
    7022:	82 e0       	ldi	r24, 0x02	; 2
    7024:	0e 94 fa 36 	call	0x6df4	; 0x6df4 <WritePin>
    7028:	00 c0       	rjmp	.+0      	; 0x702a <lcd_write.constprop.1+0x48>
    702a:	41 e0       	ldi	r20, 0x01	; 1
    702c:	65 e0       	ldi	r22, 0x05	; 5
    702e:	82 e0       	ldi	r24, 0x02	; 2
    7030:	0e 94 fa 36 	call	0x6df4	; 0x6df4 <WritePin>
    7034:	82 e0       	ldi	r24, 0x02	; 2
    7036:	8a 95       	dec	r24
    7038:	f1 f7       	brne	.-4      	; 0x7036 <lcd_write.constprop.1+0x54>
    703a:	00 c0       	rjmp	.+0      	; 0x703c <lcd_write.constprop.1+0x5a>
    703c:	40 e0       	ldi	r20, 0x00	; 0
    703e:	65 e0       	ldi	r22, 0x05	; 5
    7040:	82 e0       	ldi	r24, 0x02	; 2
    7042:	0e 94 fa 36 	call	0x6df4	; 0x6df4 <WritePin>
    7046:	c3 ff       	sbrs	r28, 3
    7048:	6b c0       	rjmp	.+214    	; 0x7120 <lcd_write.constprop.1+0x13e>
    704a:	41 e0       	ldi	r20, 0x01	; 1
    704c:	63 e0       	ldi	r22, 0x03	; 3
    704e:	82 e0       	ldi	r24, 0x02	; 2
    7050:	0e 94 fa 36 	call	0x6df4	; 0x6df4 <WritePin>
    7054:	c2 ff       	sbrs	r28, 2
    7056:	5e c0       	rjmp	.+188    	; 0x7114 <lcd_write.constprop.1+0x132>
    7058:	41 e0       	ldi	r20, 0x01	; 1
    705a:	62 e0       	ldi	r22, 0x02	; 2
    705c:	82 e0       	ldi	r24, 0x02	; 2
    705e:	0e 94 fa 36 	call	0x6df4	; 0x6df4 <WritePin>
    7062:	c1 ff       	sbrs	r28, 1
    7064:	51 c0       	rjmp	.+162    	; 0x7108 <lcd_write.constprop.1+0x126>
    7066:	41 e0       	ldi	r20, 0x01	; 1
    7068:	61 e0       	ldi	r22, 0x01	; 1
    706a:	82 e0       	ldi	r24, 0x02	; 2
    706c:	0e 94 fa 36 	call	0x6df4	; 0x6df4 <WritePin>
    7070:	c0 ff       	sbrs	r28, 0
    7072:	44 c0       	rjmp	.+136    	; 0x70fc <lcd_write.constprop.1+0x11a>
    7074:	41 e0       	ldi	r20, 0x01	; 1
    7076:	60 e0       	ldi	r22, 0x00	; 0
    7078:	82 e0       	ldi	r24, 0x02	; 2
    707a:	0e 94 fa 36 	call	0x6df4	; 0x6df4 <WritePin>
    707e:	00 c0       	rjmp	.+0      	; 0x7080 <lcd_write.constprop.1+0x9e>
    7080:	41 e0       	ldi	r20, 0x01	; 1
    7082:	65 e0       	ldi	r22, 0x05	; 5
    7084:	82 e0       	ldi	r24, 0x02	; 2
    7086:	0e 94 fa 36 	call	0x6df4	; 0x6df4 <WritePin>
    708a:	92 e0       	ldi	r25, 0x02	; 2
    708c:	9a 95       	dec	r25
    708e:	f1 f7       	brne	.-4      	; 0x708c <lcd_write.constprop.1+0xaa>
    7090:	00 c0       	rjmp	.+0      	; 0x7092 <lcd_write.constprop.1+0xb0>
    7092:	40 e0       	ldi	r20, 0x00	; 0
    7094:	65 e0       	ldi	r22, 0x05	; 5
    7096:	82 e0       	ldi	r24, 0x02	; 2
    7098:	0e 94 fa 36 	call	0x6df4	; 0x6df4 <WritePin>
    709c:	41 e0       	ldi	r20, 0x01	; 1
    709e:	63 e0       	ldi	r22, 0x03	; 3
    70a0:	82 e0       	ldi	r24, 0x02	; 2
    70a2:	0e 94 fa 36 	call	0x6df4	; 0x6df4 <WritePin>
    70a6:	41 e0       	ldi	r20, 0x01	; 1
    70a8:	62 e0       	ldi	r22, 0x02	; 2
    70aa:	82 e0       	ldi	r24, 0x02	; 2
    70ac:	0e 94 fa 36 	call	0x6df4	; 0x6df4 <WritePin>
    70b0:	41 e0       	ldi	r20, 0x01	; 1
    70b2:	61 e0       	ldi	r22, 0x01	; 1
    70b4:	82 e0       	ldi	r24, 0x02	; 2
    70b6:	0e 94 fa 36 	call	0x6df4	; 0x6df4 <WritePin>
    70ba:	41 e0       	ldi	r20, 0x01	; 1
    70bc:	60 e0       	ldi	r22, 0x00	; 0
    70be:	82 e0       	ldi	r24, 0x02	; 2
    70c0:	0e 94 fa 36 	call	0x6df4	; 0x6df4 <WritePin>
    70c4:	c4 30       	cpi	r28, 0x04	; 4
    70c6:	c0 f1       	brcs	.+112    	; 0x7138 <lcd_write.constprop.1+0x156>
    70c8:	95 ed       	ldi	r25, 0xD5	; 213
    70ca:	9a 95       	dec	r25
    70cc:	f1 f7       	brne	.-4      	; 0x70ca <lcd_write.constprop.1+0xe8>
    70ce:	00 00       	nop
    70d0:	cf 91       	pop	r28
    70d2:	08 95       	ret
    70d4:	40 e0       	ldi	r20, 0x00	; 0
    70d6:	62 e0       	ldi	r22, 0x02	; 2
    70d8:	82 e0       	ldi	r24, 0x02	; 2
    70da:	0e 94 fa 36 	call	0x6df4	; 0x6df4 <WritePin>
    70de:	c5 fd       	sbrc	r28, 5
    70e0:	97 cf       	rjmp	.-210    	; 0x7010 <lcd_write.constprop.1+0x2e>
    70e2:	40 e0       	ldi	r20, 0x00	; 0
    70e4:	61 e0       	ldi	r22, 0x01	; 1
    70e6:	82 e0       	ldi	r24, 0x02	; 2
    70e8:	0e 94 fa 36 	call	0x6df4	; 0x6df4 <WritePin>
    70ec:	c4 fd       	sbrc	r28, 4
    70ee:	97 cf       	rjmp	.-210    	; 0x701e <lcd_write.constprop.1+0x3c>
    70f0:	40 e0       	ldi	r20, 0x00	; 0
    70f2:	60 e0       	ldi	r22, 0x00	; 0
    70f4:	82 e0       	ldi	r24, 0x02	; 2
    70f6:	0e 94 fa 36 	call	0x6df4	; 0x6df4 <WritePin>
    70fa:	96 cf       	rjmp	.-212    	; 0x7028 <lcd_write.constprop.1+0x46>
    70fc:	40 e0       	ldi	r20, 0x00	; 0
    70fe:	60 e0       	ldi	r22, 0x00	; 0
    7100:	82 e0       	ldi	r24, 0x02	; 2
    7102:	0e 94 fa 36 	call	0x6df4	; 0x6df4 <WritePin>
    7106:	bb cf       	rjmp	.-138    	; 0x707e <lcd_write.constprop.1+0x9c>
    7108:	40 e0       	ldi	r20, 0x00	; 0
    710a:	61 e0       	ldi	r22, 0x01	; 1
    710c:	82 e0       	ldi	r24, 0x02	; 2
    710e:	0e 94 fa 36 	call	0x6df4	; 0x6df4 <WritePin>
    7112:	ae cf       	rjmp	.-164    	; 0x7070 <lcd_write.constprop.1+0x8e>
    7114:	40 e0       	ldi	r20, 0x00	; 0
    7116:	62 e0       	ldi	r22, 0x02	; 2
    7118:	82 e0       	ldi	r24, 0x02	; 2
    711a:	0e 94 fa 36 	call	0x6df4	; 0x6df4 <WritePin>
    711e:	a1 cf       	rjmp	.-190    	; 0x7062 <lcd_write.constprop.1+0x80>
    7120:	40 e0       	ldi	r20, 0x00	; 0
    7122:	63 e0       	ldi	r22, 0x03	; 3
    7124:	82 e0       	ldi	r24, 0x02	; 2
    7126:	0e 94 fa 36 	call	0x6df4	; 0x6df4 <WritePin>
    712a:	94 cf       	rjmp	.-216    	; 0x7054 <lcd_write.constprop.1+0x72>
    712c:	41 e0       	ldi	r20, 0x01	; 1
    712e:	63 e0       	ldi	r22, 0x03	; 3
    7130:	82 e0       	ldi	r24, 0x02	; 2
    7132:	0e 94 fa 36 	call	0x6df4	; 0x6df4 <WritePin>
    7136:	63 cf       	rjmp	.-314    	; 0x6ffe <lcd_write.constprop.1+0x1c>
    7138:	8f e9       	ldi	r24, 0x9F	; 159
    713a:	99 e1       	ldi	r25, 0x19	; 25
    713c:	01 97       	sbiw	r24, 0x01	; 1
    713e:	f1 f7       	brne	.-4      	; 0x713c <lcd_write.constprop.1+0x15a>
    7140:	00 c0       	rjmp	.+0      	; 0x7142 <lcd_write.constprop.1+0x160>
    7142:	00 00       	nop
    7144:	cf 91       	pop	r28
    7146:	08 95       	ret

00007148 <lcd_goto>:
    7148:	80 58       	subi	r24, 0x80	; 128
    714a:	0c 94 f1 37 	jmp	0x6fe2	; 0x6fe2 <lcd_write.constprop.1>

0000714e <lcd_clrscr>:
    714e:	40 e0       	ldi	r20, 0x00	; 0
    7150:	63 e0       	ldi	r22, 0x03	; 3
    7152:	83 e0       	ldi	r24, 0x03	; 3
    7154:	0e 94 fa 36 	call	0x6df4	; 0x6df4 <WritePin>
    7158:	40 e0       	ldi	r20, 0x00	; 0
    715a:	63 e0       	ldi	r22, 0x03	; 3
    715c:	82 e0       	ldi	r24, 0x02	; 2
    715e:	0e 94 fa 36 	call	0x6df4	; 0x6df4 <WritePin>
    7162:	40 e0       	ldi	r20, 0x00	; 0
    7164:	62 e0       	ldi	r22, 0x02	; 2
    7166:	82 e0       	ldi	r24, 0x02	; 2
    7168:	0e 94 fa 36 	call	0x6df4	; 0x6df4 <WritePin>
    716c:	40 e0       	ldi	r20, 0x00	; 0
    716e:	61 e0       	ldi	r22, 0x01	; 1
    7170:	82 e0       	ldi	r24, 0x02	; 2
    7172:	0e 94 fa 36 	call	0x6df4	; 0x6df4 <WritePin>
    7176:	40 e0       	ldi	r20, 0x00	; 0
    7178:	60 e0       	ldi	r22, 0x00	; 0
    717a:	82 e0       	ldi	r24, 0x02	; 2
    717c:	0e 94 fa 36 	call	0x6df4	; 0x6df4 <WritePin>
    7180:	00 c0       	rjmp	.+0      	; 0x7182 <lcd_clrscr+0x34>
    7182:	41 e0       	ldi	r20, 0x01	; 1
    7184:	65 e0       	ldi	r22, 0x05	; 5
    7186:	82 e0       	ldi	r24, 0x02	; 2
    7188:	0e 94 fa 36 	call	0x6df4	; 0x6df4 <WritePin>
    718c:	82 e0       	ldi	r24, 0x02	; 2
    718e:	8a 95       	dec	r24
    7190:	f1 f7       	brne	.-4      	; 0x718e <lcd_clrscr+0x40>
    7192:	00 c0       	rjmp	.+0      	; 0x7194 <lcd_clrscr+0x46>
    7194:	40 e0       	ldi	r20, 0x00	; 0
    7196:	65 e0       	ldi	r22, 0x05	; 5
    7198:	82 e0       	ldi	r24, 0x02	; 2
    719a:	0e 94 fa 36 	call	0x6df4	; 0x6df4 <WritePin>
    719e:	40 e0       	ldi	r20, 0x00	; 0
    71a0:	63 e0       	ldi	r22, 0x03	; 3
    71a2:	82 e0       	ldi	r24, 0x02	; 2
    71a4:	0e 94 fa 36 	call	0x6df4	; 0x6df4 <WritePin>
    71a8:	40 e0       	ldi	r20, 0x00	; 0
    71aa:	62 e0       	ldi	r22, 0x02	; 2
    71ac:	82 e0       	ldi	r24, 0x02	; 2
    71ae:	0e 94 fa 36 	call	0x6df4	; 0x6df4 <WritePin>
    71b2:	40 e0       	ldi	r20, 0x00	; 0
    71b4:	61 e0       	ldi	r22, 0x01	; 1
    71b6:	82 e0       	ldi	r24, 0x02	; 2
    71b8:	0e 94 fa 36 	call	0x6df4	; 0x6df4 <WritePin>
    71bc:	41 e0       	ldi	r20, 0x01	; 1
    71be:	60 e0       	ldi	r22, 0x00	; 0
    71c0:	82 e0       	ldi	r24, 0x02	; 2
    71c2:	0e 94 fa 36 	call	0x6df4	; 0x6df4 <WritePin>
    71c6:	00 c0       	rjmp	.+0      	; 0x71c8 <lcd_clrscr+0x7a>
    71c8:	41 e0       	ldi	r20, 0x01	; 1
    71ca:	65 e0       	ldi	r22, 0x05	; 5
    71cc:	82 e0       	ldi	r24, 0x02	; 2
    71ce:	0e 94 fa 36 	call	0x6df4	; 0x6df4 <WritePin>
    71d2:	92 e0       	ldi	r25, 0x02	; 2
    71d4:	9a 95       	dec	r25
    71d6:	f1 f7       	brne	.-4      	; 0x71d4 <lcd_clrscr+0x86>
    71d8:	00 c0       	rjmp	.+0      	; 0x71da <lcd_clrscr+0x8c>
    71da:	40 e0       	ldi	r20, 0x00	; 0
    71dc:	65 e0       	ldi	r22, 0x05	; 5
    71de:	82 e0       	ldi	r24, 0x02	; 2
    71e0:	0e 94 fa 36 	call	0x6df4	; 0x6df4 <WritePin>
    71e4:	41 e0       	ldi	r20, 0x01	; 1
    71e6:	63 e0       	ldi	r22, 0x03	; 3
    71e8:	82 e0       	ldi	r24, 0x02	; 2
    71ea:	0e 94 fa 36 	call	0x6df4	; 0x6df4 <WritePin>
    71ee:	41 e0       	ldi	r20, 0x01	; 1
    71f0:	62 e0       	ldi	r22, 0x02	; 2
    71f2:	82 e0       	ldi	r24, 0x02	; 2
    71f4:	0e 94 fa 36 	call	0x6df4	; 0x6df4 <WritePin>
    71f8:	41 e0       	ldi	r20, 0x01	; 1
    71fa:	61 e0       	ldi	r22, 0x01	; 1
    71fc:	82 e0       	ldi	r24, 0x02	; 2
    71fe:	0e 94 fa 36 	call	0x6df4	; 0x6df4 <WritePin>
    7202:	41 e0       	ldi	r20, 0x01	; 1
    7204:	60 e0       	ldi	r22, 0x00	; 0
    7206:	82 e0       	ldi	r24, 0x02	; 2
    7208:	0e 94 fa 36 	call	0x6df4	; 0x6df4 <WritePin>
    720c:	8f e9       	ldi	r24, 0x9F	; 159
    720e:	99 e1       	ldi	r25, 0x19	; 25
    7210:	01 97       	sbiw	r24, 0x01	; 1
    7212:	f1 f7       	brne	.-4      	; 0x7210 <lcd_clrscr+0xc2>
    7214:	00 c0       	rjmp	.+0      	; 0x7216 <lcd_clrscr+0xc8>
    7216:	00 00       	nop
    7218:	08 95       	ret

0000721a <lcd_puts>:
    721a:	0f 93       	push	r16
    721c:	1f 93       	push	r17
    721e:	cf 93       	push	r28
    7220:	df 93       	push	r29
    7222:	ec 01       	movw	r28, r24
    7224:	66 23       	and	r22, r22
    7226:	a9 f0       	breq	.+42     	; 0x7252 <lcd_puts+0x38>
    7228:	61 50       	subi	r22, 0x01	; 1
    722a:	06 2f       	mov	r16, r22
    722c:	10 e0       	ldi	r17, 0x00	; 0
    722e:	0f 5f       	subi	r16, 0xFF	; 255
    7230:	1f 4f       	sbci	r17, 0xFF	; 255
    7232:	08 0f       	add	r16, r24
    7234:	19 1f       	adc	r17, r25
    7236:	05 c0       	rjmp	.+10     	; 0x7242 <lcd_puts+0x28>
    7238:	0e 94 48 37 	call	0x6e90	; 0x6e90 <lcd_write.constprop.0>
    723c:	c0 17       	cp	r28, r16
    723e:	d1 07       	cpc	r29, r17
    7240:	19 f0       	breq	.+6      	; 0x7248 <lcd_puts+0x2e>
    7242:	89 91       	ld	r24, Y+
    7244:	81 11       	cpse	r24, r1
    7246:	f8 cf       	rjmp	.-16     	; 0x7238 <lcd_puts+0x1e>
    7248:	df 91       	pop	r29
    724a:	cf 91       	pop	r28
    724c:	1f 91       	pop	r17
    724e:	0f 91       	pop	r16
    7250:	08 95       	ret
    7252:	21 96       	adiw	r28, 0x01	; 1
    7254:	fc 01       	movw	r30, r24
    7256:	80 81       	ld	r24, Z
    7258:	88 23       	and	r24, r24
    725a:	b1 f3       	breq	.-20     	; 0x7248 <lcd_puts+0x2e>
    725c:	0e 94 48 37 	call	0x6e90	; 0x6e90 <lcd_write.constprop.0>
    7260:	89 91       	ld	r24, Y+
    7262:	88 23       	and	r24, r24
    7264:	89 f3       	breq	.-30     	; 0x7248 <lcd_puts+0x2e>
    7266:	0e 94 48 37 	call	0x6e90	; 0x6e90 <lcd_write.constprop.0>
    726a:	89 91       	ld	r24, Y+
    726c:	81 11       	cpse	r24, r1
    726e:	f6 cf       	rjmp	.-20     	; 0x725c <lcd_puts+0x42>
    7270:	eb cf       	rjmp	.-42     	; 0x7248 <lcd_puts+0x2e>

00007272 <lcd_init>:
    7272:	41 e0       	ldi	r20, 0x01	; 1
    7274:	65 e0       	ldi	r22, 0x05	; 5
    7276:	82 e0       	ldi	r24, 0x02	; 2
    7278:	0e 94 73 36 	call	0x6ce6	; 0x6ce6 <SetPinDir>
    727c:	41 e0       	ldi	r20, 0x01	; 1
    727e:	63 e0       	ldi	r22, 0x03	; 3
    7280:	83 e0       	ldi	r24, 0x03	; 3
    7282:	0e 94 73 36 	call	0x6ce6	; 0x6ce6 <SetPinDir>
    7286:	41 e0       	ldi	r20, 0x01	; 1
    7288:	63 e0       	ldi	r22, 0x03	; 3
    728a:	82 e0       	ldi	r24, 0x02	; 2
    728c:	0e 94 73 36 	call	0x6ce6	; 0x6ce6 <SetPinDir>
    7290:	41 e0       	ldi	r20, 0x01	; 1
    7292:	62 e0       	ldi	r22, 0x02	; 2
    7294:	82 e0       	ldi	r24, 0x02	; 2
    7296:	0e 94 73 36 	call	0x6ce6	; 0x6ce6 <SetPinDir>
    729a:	41 e0       	ldi	r20, 0x01	; 1
    729c:	61 e0       	ldi	r22, 0x01	; 1
    729e:	82 e0       	ldi	r24, 0x02	; 2
    72a0:	0e 94 73 36 	call	0x6ce6	; 0x6ce6 <SetPinDir>
    72a4:	41 e0       	ldi	r20, 0x01	; 1
    72a6:	60 e0       	ldi	r22, 0x00	; 0
    72a8:	82 e0       	ldi	r24, 0x02	; 2
    72aa:	0e 94 73 36 	call	0x6ce6	; 0x6ce6 <SetPinDir>
    72ae:	40 e0       	ldi	r20, 0x00	; 0
    72b0:	65 e0       	ldi	r22, 0x05	; 5
    72b2:	82 e0       	ldi	r24, 0x02	; 2
    72b4:	0e 94 fa 36 	call	0x6df4	; 0x6df4 <WritePin>
    72b8:	40 e0       	ldi	r20, 0x00	; 0
    72ba:	63 e0       	ldi	r22, 0x03	; 3
    72bc:	83 e0       	ldi	r24, 0x03	; 3
    72be:	0e 94 fa 36 	call	0x6df4	; 0x6df4 <WritePin>
    72c2:	41 e0       	ldi	r20, 0x01	; 1
    72c4:	63 e0       	ldi	r22, 0x03	; 3
    72c6:	82 e0       	ldi	r24, 0x02	; 2
    72c8:	0e 94 fa 36 	call	0x6df4	; 0x6df4 <WritePin>
    72cc:	41 e0       	ldi	r20, 0x01	; 1
    72ce:	62 e0       	ldi	r22, 0x02	; 2
    72d0:	82 e0       	ldi	r24, 0x02	; 2
    72d2:	0e 94 fa 36 	call	0x6df4	; 0x6df4 <WritePin>
    72d6:	41 e0       	ldi	r20, 0x01	; 1
    72d8:	61 e0       	ldi	r22, 0x01	; 1
    72da:	82 e0       	ldi	r24, 0x02	; 2
    72dc:	0e 94 fa 36 	call	0x6df4	; 0x6df4 <WritePin>
    72e0:	41 e0       	ldi	r20, 0x01	; 1
    72e2:	60 e0       	ldi	r22, 0x00	; 0
    72e4:	82 e0       	ldi	r24, 0x02	; 2
    72e6:	0e 94 fa 36 	call	0x6df4	; 0x6df4 <WritePin>
    72ea:	2f ef       	ldi	r18, 0xFF	; 255
    72ec:	86 e7       	ldi	r24, 0x76	; 118
    72ee:	91 e0       	ldi	r25, 0x01	; 1
    72f0:	21 50       	subi	r18, 0x01	; 1
    72f2:	80 40       	sbci	r24, 0x00	; 0
    72f4:	90 40       	sbci	r25, 0x00	; 0
    72f6:	e1 f7       	brne	.-8      	; 0x72f0 <lcd_init+0x7e>
    72f8:	00 c0       	rjmp	.+0      	; 0x72fa <lcd_init+0x88>
    72fa:	00 00       	nop
    72fc:	40 e0       	ldi	r20, 0x00	; 0
    72fe:	63 e0       	ldi	r22, 0x03	; 3
    7300:	82 e0       	ldi	r24, 0x02	; 2
    7302:	0e 94 fa 36 	call	0x6df4	; 0x6df4 <WritePin>
    7306:	40 e0       	ldi	r20, 0x00	; 0
    7308:	62 e0       	ldi	r22, 0x02	; 2
    730a:	82 e0       	ldi	r24, 0x02	; 2
    730c:	0e 94 fa 36 	call	0x6df4	; 0x6df4 <WritePin>
    7310:	00 c0       	rjmp	.+0      	; 0x7312 <lcd_init+0xa0>
    7312:	41 e0       	ldi	r20, 0x01	; 1
    7314:	65 e0       	ldi	r22, 0x05	; 5
    7316:	82 e0       	ldi	r24, 0x02	; 2
    7318:	0e 94 fa 36 	call	0x6df4	; 0x6df4 <WritePin>
    731c:	22 e0       	ldi	r18, 0x02	; 2
    731e:	2a 95       	dec	r18
    7320:	f1 f7       	brne	.-4      	; 0x731e <lcd_init+0xac>
    7322:	00 c0       	rjmp	.+0      	; 0x7324 <lcd_init+0xb2>
    7324:	40 e0       	ldi	r20, 0x00	; 0
    7326:	65 e0       	ldi	r22, 0x05	; 5
    7328:	82 e0       	ldi	r24, 0x02	; 2
    732a:	0e 94 fa 36 	call	0x6df4	; 0x6df4 <WritePin>
    732e:	8f e0       	ldi	r24, 0x0F	; 15
    7330:	90 e4       	ldi	r25, 0x40	; 64
    7332:	01 97       	sbiw	r24, 0x01	; 1
    7334:	f1 f7       	brne	.-4      	; 0x7332 <lcd_init+0xc0>
    7336:	00 c0       	rjmp	.+0      	; 0x7338 <lcd_init+0xc6>
    7338:	00 00       	nop
    733a:	41 e0       	ldi	r20, 0x01	; 1
    733c:	65 e0       	ldi	r22, 0x05	; 5
    733e:	82 e0       	ldi	r24, 0x02	; 2
    7340:	0e 94 fa 36 	call	0x6df4	; 0x6df4 <WritePin>
    7344:	92 e0       	ldi	r25, 0x02	; 2
    7346:	9a 95       	dec	r25
    7348:	f1 f7       	brne	.-4      	; 0x7346 <lcd_init+0xd4>
    734a:	00 c0       	rjmp	.+0      	; 0x734c <lcd_init+0xda>
    734c:	40 e0       	ldi	r20, 0x00	; 0
    734e:	65 e0       	ldi	r22, 0x05	; 5
    7350:	82 e0       	ldi	r24, 0x02	; 2
    7352:	0e 94 fa 36 	call	0x6df4	; 0x6df4 <WritePin>
    7356:	8f e8       	ldi	r24, 0x8F	; 143
    7358:	91 e0       	ldi	r25, 0x01	; 1
    735a:	01 97       	sbiw	r24, 0x01	; 1
    735c:	f1 f7       	brne	.-4      	; 0x735a <lcd_init+0xe8>
    735e:	00 c0       	rjmp	.+0      	; 0x7360 <lcd_init+0xee>
    7360:	00 00       	nop
    7362:	41 e0       	ldi	r20, 0x01	; 1
    7364:	65 e0       	ldi	r22, 0x05	; 5
    7366:	82 e0       	ldi	r24, 0x02	; 2
    7368:	0e 94 fa 36 	call	0x6df4	; 0x6df4 <WritePin>
    736c:	92 e0       	ldi	r25, 0x02	; 2
    736e:	9a 95       	dec	r25
    7370:	f1 f7       	brne	.-4      	; 0x736e <lcd_init+0xfc>
    7372:	00 c0       	rjmp	.+0      	; 0x7374 <lcd_init+0x102>
    7374:	40 e0       	ldi	r20, 0x00	; 0
    7376:	65 e0       	ldi	r22, 0x05	; 5
    7378:	82 e0       	ldi	r24, 0x02	; 2
    737a:	0e 94 fa 36 	call	0x6df4	; 0x6df4 <WritePin>
    737e:	25 ed       	ldi	r18, 0xD5	; 213
    7380:	2a 95       	dec	r18
    7382:	f1 f7       	brne	.-4      	; 0x7380 <lcd_init+0x10e>
    7384:	00 00       	nop
    7386:	40 e0       	ldi	r20, 0x00	; 0
    7388:	60 e0       	ldi	r22, 0x00	; 0
    738a:	82 e0       	ldi	r24, 0x02	; 2
    738c:	0e 94 fa 36 	call	0x6df4	; 0x6df4 <WritePin>
    7390:	00 c0       	rjmp	.+0      	; 0x7392 <lcd_init+0x120>
    7392:	41 e0       	ldi	r20, 0x01	; 1
    7394:	65 e0       	ldi	r22, 0x05	; 5
    7396:	82 e0       	ldi	r24, 0x02	; 2
    7398:	0e 94 fa 36 	call	0x6df4	; 0x6df4 <WritePin>
    739c:	82 e0       	ldi	r24, 0x02	; 2
    739e:	8a 95       	dec	r24
    73a0:	f1 f7       	brne	.-4      	; 0x739e <lcd_init+0x12c>
    73a2:	00 c0       	rjmp	.+0      	; 0x73a4 <lcd_init+0x132>
    73a4:	40 e0       	ldi	r20, 0x00	; 0
    73a6:	65 e0       	ldi	r22, 0x05	; 5
    73a8:	82 e0       	ldi	r24, 0x02	; 2
    73aa:	0e 94 fa 36 	call	0x6df4	; 0x6df4 <WritePin>
    73ae:	95 ed       	ldi	r25, 0xD5	; 213
    73b0:	9a 95       	dec	r25
    73b2:	f1 f7       	brne	.-4      	; 0x73b0 <lcd_init+0x13e>
    73b4:	00 00       	nop
    73b6:	40 e0       	ldi	r20, 0x00	; 0
    73b8:	60 e0       	ldi	r22, 0x00	; 0
    73ba:	82 e0       	ldi	r24, 0x02	; 2
    73bc:	0e 94 fa 36 	call	0x6df4	; 0x6df4 <WritePin>
    73c0:	00 c0       	rjmp	.+0      	; 0x73c2 <lcd_init+0x150>
    73c2:	41 e0       	ldi	r20, 0x01	; 1
    73c4:	65 e0       	ldi	r22, 0x05	; 5
    73c6:	82 e0       	ldi	r24, 0x02	; 2
    73c8:	0e 94 fa 36 	call	0x6df4	; 0x6df4 <WritePin>
    73cc:	22 e0       	ldi	r18, 0x02	; 2
    73ce:	2a 95       	dec	r18
    73d0:	f1 f7       	brne	.-4      	; 0x73ce <lcd_init+0x15c>
    73d2:	00 c0       	rjmp	.+0      	; 0x73d4 <lcd_init+0x162>
    73d4:	40 e0       	ldi	r20, 0x00	; 0
    73d6:	65 e0       	ldi	r22, 0x05	; 5
    73d8:	82 e0       	ldi	r24, 0x02	; 2
    73da:	0e 94 fa 36 	call	0x6df4	; 0x6df4 <WritePin>
    73de:	82 e0       	ldi	r24, 0x02	; 2
    73e0:	8a 95       	dec	r24
    73e2:	f1 f7       	brne	.-4      	; 0x73e0 <lcd_init+0x16e>
    73e4:	00 c0       	rjmp	.+0      	; 0x73e6 <lcd_init+0x174>
    73e6:	41 e0       	ldi	r20, 0x01	; 1
    73e8:	63 e0       	ldi	r22, 0x03	; 3
    73ea:	82 e0       	ldi	r24, 0x02	; 2
    73ec:	0e 94 fa 36 	call	0x6df4	; 0x6df4 <WritePin>
    73f0:	00 c0       	rjmp	.+0      	; 0x73f2 <lcd_init+0x180>
    73f2:	41 e0       	ldi	r20, 0x01	; 1
    73f4:	65 e0       	ldi	r22, 0x05	; 5
    73f6:	82 e0       	ldi	r24, 0x02	; 2
    73f8:	0e 94 fa 36 	call	0x6df4	; 0x6df4 <WritePin>
    73fc:	92 e0       	ldi	r25, 0x02	; 2
    73fe:	9a 95       	dec	r25
    7400:	f1 f7       	brne	.-4      	; 0x73fe <lcd_init+0x18c>
    7402:	00 c0       	rjmp	.+0      	; 0x7404 <lcd_init+0x192>
    7404:	40 e0       	ldi	r20, 0x00	; 0
    7406:	65 e0       	ldi	r22, 0x05	; 5
    7408:	82 e0       	ldi	r24, 0x02	; 2
    740a:	0e 94 fa 36 	call	0x6df4	; 0x6df4 <WritePin>
    740e:	25 ed       	ldi	r18, 0xD5	; 213
    7410:	2a 95       	dec	r18
    7412:	f1 f7       	brne	.-4      	; 0x7410 <lcd_init+0x19e>
    7414:	00 00       	nop
    7416:	88 e0       	ldi	r24, 0x08	; 8
    7418:	0e 94 f1 37 	call	0x6fe2	; 0x6fe2 <lcd_write.constprop.1>
    741c:	81 e0       	ldi	r24, 0x01	; 1
    741e:	0e 94 f1 37 	call	0x6fe2	; 0x6fe2 <lcd_write.constprop.1>
    7422:	86 e0       	ldi	r24, 0x06	; 6
    7424:	0e 94 f1 37 	call	0x6fe2	; 0x6fe2 <lcd_write.constprop.1>
    7428:	8c e0       	ldi	r24, 0x0C	; 12
    742a:	0c 94 f1 37 	jmp	0x6fe2	; 0x6fe2 <lcd_write.constprop.1>

0000742e <EnableGlobalInt>:
    742e:	78 94       	sei
    7430:	08 95       	ret

00007432 <main>:
    7432:	82 e0       	ldi	r24, 0x02	; 2
    7434:	84 bd       	out	0x24, r24	; 36
    7436:	94 e0       	ldi	r25, 0x04	; 4
    7438:	95 bd       	out	0x25, r25	; 37
    743a:	9e e3       	ldi	r25, 0x3E	; 62
    743c:	97 bd       	out	0x27, r25	; 39
    743e:	80 93 6e 00 	sts	0x006E, r24	; 0x80006e <__TEXT_REGION_LENGTH__+0x7e006e>
    7442:	0e 94 17 3a 	call	0x742e	; 0x742e <EnableGlobalInt>
    7446:	0e 94 27 04 	call	0x84e	; 0x84e <InitBDMpins>
    744a:	0e 94 39 39 	call	0x7272	; 0x7272 <lcd_init>
    744e:	0e 94 a7 38 	call	0x714e	; 0x714e <lcd_clrscr>
    7452:	60 e0       	ldi	r22, 0x00	; 0
    7454:	8b e9       	ldi	r24, 0x9B	; 155
    7456:	91 e0       	ldi	r25, 0x01	; 1
    7458:	0e 94 0d 39 	call	0x721a	; 0x721a <lcd_puts>
    745c:	40 e0       	ldi	r20, 0x00	; 0
    745e:	63 e4       	ldi	r22, 0x43	; 67
    7460:	71 e0       	ldi	r23, 0x01	; 1
    7462:	80 ed       	ldi	r24, 0xD0	; 208
    7464:	91 e0       	ldi	r25, 0x01	; 1
    7466:	0e 94 96 22 	call	0x452c	; 0x452c <f_mount>
    746a:	80 e5       	ldi	r24, 0x50	; 80
    746c:	8c bd       	out	0x2c, r24	; 44
    746e:	81 e0       	ldi	r24, 0x01	; 1
    7470:	8d bd       	out	0x2d, r24	; 45
    7472:	41 e0       	ldi	r20, 0x01	; 1
    7474:	62 e0       	ldi	r22, 0x02	; 2
    7476:	0e 94 73 36 	call	0x6ce6	; 0x6ce6 <SetPinDir>
    747a:	41 e0       	ldi	r20, 0x01	; 1
    747c:	62 e0       	ldi	r22, 0x02	; 2
    747e:	81 e0       	ldi	r24, 0x01	; 1
    7480:	0e 94 fa 36 	call	0x6df4	; 0x6df4 <WritePin>
    7484:	41 e0       	ldi	r20, 0x01	; 1
    7486:	60 e0       	ldi	r22, 0x00	; 0
    7488:	81 e0       	ldi	r24, 0x01	; 1
    748a:	0e 94 73 36 	call	0x6ce6	; 0x6ce6 <SetPinDir>
    748e:	41 e0       	ldi	r20, 0x01	; 1
    7490:	60 e0       	ldi	r22, 0x00	; 0
    7492:	81 e0       	ldi	r24, 0x01	; 1
    7494:	0e 94 fa 36 	call	0x6df4	; 0x6df4 <WritePin>
    7498:	41 e0       	ldi	r20, 0x01	; 1
    749a:	63 e0       	ldi	r22, 0x03	; 3
    749c:	81 e0       	ldi	r24, 0x01	; 1
    749e:	0e 94 73 36 	call	0x6ce6	; 0x6ce6 <SetPinDir>
    74a2:	40 e0       	ldi	r20, 0x00	; 0
    74a4:	64 e0       	ldi	r22, 0x04	; 4
    74a6:	81 e0       	ldi	r24, 0x01	; 1
    74a8:	0e 94 73 36 	call	0x6ce6	; 0x6ce6 <SetPinDir>
    74ac:	41 e0       	ldi	r20, 0x01	; 1
    74ae:	65 e0       	ldi	r22, 0x05	; 5
    74b0:	81 e0       	ldi	r24, 0x01	; 1
    74b2:	0e 94 73 36 	call	0x6ce6	; 0x6ce6 <SetPinDir>
    74b6:	10 92 29 06 	sts	0x0629, r1	; 0x800629 <Systype>
    74ba:	0e 94 49 04 	call	0x892	; 0x892 <ResetTarget>
    74be:	81 11       	cpse	r24, r1
    74c0:	4c c0       	rjmp	.+152    	; 0x755a <main+0x128>
    74c2:	10 92 29 06 	sts	0x0629, r1	; 0x800629 <Systype>
    74c6:	89 e0       	ldi	r24, 0x09	; 9
    74c8:	94 e0       	ldi	r25, 0x04	; 4
    74ca:	0e 94 9a 30 	call	0x6134	; 0x6134 <f_close>
    74ce:	80 ed       	ldi	r24, 0xD0	; 208
    74d0:	97 e0       	ldi	r25, 0x07	; 7
    74d2:	90 93 01 04 	sts	0x0401, r25	; 0x800401 <MiscTime+0x1>
    74d6:	80 93 00 04 	sts	0x0400, r24	; 0x800400 <MiscTime>
    74da:	80 91 00 04 	lds	r24, 0x0400	; 0x800400 <MiscTime>
    74de:	90 91 01 04 	lds	r25, 0x0401	; 0x800401 <MiscTime+0x1>
    74e2:	89 2b       	or	r24, r25
    74e4:	d1 f7       	brne	.-12     	; 0x74da <main+0xa8>
    74e6:	0e 94 49 04 	call	0x892	; 0x892 <ResetTarget>
    74ea:	88 23       	and	r24, r24
    74ec:	09 f4       	brne	.+2      	; 0x74f0 <main+0xbe>
    74ee:	56 c0       	rjmp	.+172    	; 0x759c <main+0x16a>
    74f0:	0e 94 9f 04 	call	0x93e	; 0x93e <StopTarget>
    74f4:	88 23       	and	r24, r24
    74f6:	09 f4       	brne	.+2      	; 0x74fa <main+0xc8>
    74f8:	51 c0       	rjmp	.+162    	; 0x759c <main+0x16a>
    74fa:	0e 94 39 03 	call	0x672	; 0x672 <PrepT>
    74fe:	90 91 29 06 	lds	r25, 0x0629	; 0x800629 <Systype>
    7502:	89 2f       	mov	r24, r25
    7504:	8b 7f       	andi	r24, 0xFB	; 251
    7506:	09 f4       	brne	.+2      	; 0x750a <main+0xd8>
    7508:	49 c0       	rjmp	.+146    	; 0x759c <main+0x16a>
    750a:	80 e0       	ldi	r24, 0x00	; 0
    750c:	0e 94 e9 10 	call	0x21d2	; 0x21d2 <DumpFlash>
    7510:	c1 e0       	ldi	r28, 0x01	; 1
    7512:	81 11       	cpse	r24, r1
    7514:	c0 e0       	ldi	r28, 0x00	; 0
    7516:	89 e0       	ldi	r24, 0x09	; 9
    7518:	94 e0       	ldi	r25, 0x04	; 4
    751a:	0e 94 9a 30 	call	0x6134	; 0x6134 <f_close>
    751e:	1c bc       	out	0x2c, r1	; 44
    7520:	0e 94 49 04 	call	0x892	; 0x892 <ResetTarget>
    7524:	2a ef       	ldi	r18, 0xFA	; 250
    7526:	30 e0       	ldi	r19, 0x00	; 0
    7528:	30 93 01 04 	sts	0x0401, r19	; 0x800401 <MiscTime+0x1>
    752c:	20 93 00 04 	sts	0x0400, r18	; 0x800400 <MiscTime>
    7530:	80 91 00 04 	lds	r24, 0x0400	; 0x800400 <MiscTime>
    7534:	90 91 01 04 	lds	r25, 0x0401	; 0x800401 <MiscTime+0x1>
    7538:	89 2b       	or	r24, r25
    753a:	d1 f7       	brne	.-12     	; 0x7530 <main+0xfe>
    753c:	2d 9a       	sbi	0x05, 5	; 5
    753e:	30 93 01 04 	sts	0x0401, r19	; 0x800401 <MiscTime+0x1>
    7542:	20 93 00 04 	sts	0x0400, r18	; 0x800400 <MiscTime>
    7546:	80 91 00 04 	lds	r24, 0x0400	; 0x800400 <MiscTime>
    754a:	90 91 01 04 	lds	r25, 0x0401	; 0x800401 <MiscTime+0x1>
    754e:	89 2b       	or	r24, r25
    7550:	d1 f7       	brne	.-12     	; 0x7546 <main+0x114>
    7552:	cc 23       	and	r28, r28
    7554:	49 f3       	breq	.-46     	; 0x7528 <main+0xf6>
    7556:	2d 98       	cbi	0x05, 5	; 5
    7558:	e7 cf       	rjmp	.-50     	; 0x7528 <main+0xf6>
    755a:	0e 94 9f 04 	call	0x93e	; 0x93e <StopTarget>
    755e:	88 23       	and	r24, r24
    7560:	09 f4       	brne	.+2      	; 0x7564 <main+0x132>
    7562:	af cf       	rjmp	.-162    	; 0x74c2 <main+0x90>
    7564:	0e 94 39 03 	call	0x672	; 0x672 <PrepT>
    7568:	e0 91 29 06 	lds	r30, 0x0629	; 0x800629 <Systype>
    756c:	8f ef       	ldi	r24, 0xFF	; 255
    756e:	8e 0f       	add	r24, r30
    7570:	83 30       	cpi	r24, 0x03	; 3
    7572:	b0 f0       	brcs	.+44     	; 0x75a0 <main+0x16e>
    7574:	e4 30       	cpi	r30, 0x04	; 4
    7576:	09 f0       	breq	.+2      	; 0x757a <main+0x148>
    7578:	a6 cf       	rjmp	.-180    	; 0x74c6 <main+0x94>
    757a:	0e 94 c3 0f 	call	0x1f86	; 0x1f86 <FlashMCP>
    757e:	81 11       	cpse	r24, r1
    7580:	a2 cf       	rjmp	.-188    	; 0x74c6 <main+0x94>
    7582:	60 e0       	ldi	r22, 0x00	; 0
    7584:	81 ea       	ldi	r24, 0xA1	; 161
    7586:	91 e0       	ldi	r25, 0x01	; 1
    7588:	0e 94 0d 39 	call	0x721a	; 0x721a <lcd_puts>
    758c:	60 91 2c 06 	lds	r22, 0x062C	; 0x80062c <bdmresp16>
    7590:	70 91 2d 06 	lds	r23, 0x062D	; 0x80062d <bdmresp16+0x1>
    7594:	81 e0       	ldi	r24, 0x01	; 1
    7596:	0e 94 e7 3b 	call	0x77ce	; 0x77ce <ShowAddr>
    759a:	ff cf       	rjmp	.-2      	; 0x759a <main+0x168>
    759c:	c1 e0       	ldi	r28, 0x01	; 1
    759e:	bb cf       	rjmp	.-138    	; 0x7516 <main+0xe4>
    75a0:	f0 e0       	ldi	r31, 0x00	; 0
    75a2:	ee 0f       	add	r30, r30
    75a4:	ff 1f       	adc	r31, r31
    75a6:	e7 5f       	subi	r30, 0xF7	; 247
    75a8:	fe 4f       	sbci	r31, 0xFE	; 254
    75aa:	60 81       	ld	r22, Z
    75ac:	71 81       	ldd	r23, Z+1	; 0x01
    75ae:	41 e0       	ldi	r20, 0x01	; 1
    75b0:	89 e0       	ldi	r24, 0x09	; 9
    75b2:	94 e0       	ldi	r25, 0x04	; 4
    75b4:	0e 94 f0 22 	call	0x45e0	; 0x45e0 <f_open>
    75b8:	81 11       	cpse	r24, r1
    75ba:	13 c0       	rjmp	.+38     	; 0x75e2 <main+0x1b0>
    75bc:	90 91 29 06 	lds	r25, 0x0629	; 0x800629 <Systype>
    75c0:	0e 94 db 0d 	call	0x1bb6	; 0x1bb6 <Flash>
    75c4:	81 11       	cpse	r24, r1
    75c6:	7f cf       	rjmp	.-258    	; 0x74c6 <main+0x94>
    75c8:	60 e0       	ldi	r22, 0x00	; 0
    75ca:	81 ea       	ldi	r24, 0xA1	; 161
    75cc:	91 e0       	ldi	r25, 0x01	; 1
    75ce:	0e 94 0d 39 	call	0x721a	; 0x721a <lcd_puts>
    75d2:	60 91 2c 06 	lds	r22, 0x062C	; 0x80062c <bdmresp16>
    75d6:	70 91 2d 06 	lds	r23, 0x062D	; 0x80062d <bdmresp16+0x1>
    75da:	81 e0       	ldi	r24, 0x01	; 1
    75dc:	0e 94 e7 3b 	call	0x77ce	; 0x77ce <ShowAddr>
    75e0:	ff cf       	rjmp	.-2      	; 0x75e0 <main+0x1ae>
    75e2:	60 e0       	ldi	r22, 0x00	; 0
    75e4:	86 ea       	ldi	r24, 0xA6	; 166
    75e6:	91 e0       	ldi	r25, 0x01	; 1
    75e8:	0e 94 0d 39 	call	0x721a	; 0x721a <lcd_puts>
    75ec:	6c cf       	rjmp	.-296    	; 0x74c6 <main+0x94>

000075ee <sleep>:
    75ee:	90 93 01 04 	sts	0x0401, r25	; 0x800401 <MiscTime+0x1>
    75f2:	80 93 00 04 	sts	0x0400, r24	; 0x800400 <MiscTime>
    75f6:	80 91 00 04 	lds	r24, 0x0400	; 0x800400 <MiscTime>
    75fa:	90 91 01 04 	lds	r25, 0x0401	; 0x800401 <MiscTime+0x1>
    75fe:	89 2b       	or	r24, r25
    7600:	d1 f7       	brne	.-12     	; 0x75f6 <sleep+0x8>
    7602:	08 95       	ret

00007604 <__vector_14>:
    7604:	1f 92       	push	r1
    7606:	0f 92       	push	r0
    7608:	0f b6       	in	r0, 0x3f	; 63
    760a:	0f 92       	push	r0
    760c:	11 24       	eor	r1, r1
    760e:	8f 93       	push	r24
    7610:	9f 93       	push	r25
    7612:	80 91 2a 06 	lds	r24, 0x062A	; 0x80062a <BenchTime>
    7616:	90 91 2b 06 	lds	r25, 0x062B	; 0x80062b <BenchTime+0x1>
    761a:	89 2b       	or	r24, r25
    761c:	49 f0       	breq	.+18     	; 0x7630 <__vector_14+0x2c>
    761e:	80 91 2a 06 	lds	r24, 0x062A	; 0x80062a <BenchTime>
    7622:	90 91 2b 06 	lds	r25, 0x062B	; 0x80062b <BenchTime+0x1>
    7626:	01 97       	sbiw	r24, 0x01	; 1
    7628:	90 93 2b 06 	sts	0x062B, r25	; 0x80062b <BenchTime+0x1>
    762c:	80 93 2a 06 	sts	0x062A, r24	; 0x80062a <BenchTime>
    7630:	80 91 00 04 	lds	r24, 0x0400	; 0x800400 <MiscTime>
    7634:	90 91 01 04 	lds	r25, 0x0401	; 0x800401 <MiscTime+0x1>
    7638:	89 2b       	or	r24, r25
    763a:	49 f0       	breq	.+18     	; 0x764e <__vector_14+0x4a>
    763c:	80 91 00 04 	lds	r24, 0x0400	; 0x800400 <MiscTime>
    7640:	90 91 01 04 	lds	r25, 0x0401	; 0x800401 <MiscTime+0x1>
    7644:	01 97       	sbiw	r24, 0x01	; 1
    7646:	90 93 01 04 	sts	0x0401, r25	; 0x800401 <MiscTime+0x1>
    764a:	80 93 00 04 	sts	0x0400, r24	; 0x800400 <MiscTime>
    764e:	9f 91       	pop	r25
    7650:	8f 91       	pop	r24
    7652:	0f 90       	pop	r0
    7654:	0f be       	out	0x3f, r0	; 63
    7656:	0f 90       	pop	r0
    7658:	1f 90       	pop	r1
    765a:	18 95       	reti

0000765c <showval>:
    765c:	cf 93       	push	r28
    765e:	df 93       	push	r29
    7660:	ac 01       	movw	r20, r24
    7662:	c9 ec       	ldi	r28, 0xC9	; 201
    7664:	d1 e0       	ldi	r29, 0x01	; 1
    7666:	9c 01       	movw	r18, r24
    7668:	32 95       	swap	r19
    766a:	22 95       	swap	r18
    766c:	2f 70       	andi	r18, 0x0F	; 15
    766e:	23 27       	eor	r18, r19
    7670:	3f 70       	andi	r19, 0x0F	; 15
    7672:	23 27       	eor	r18, r19
    7674:	a7 e4       	ldi	r26, 0x47	; 71
    7676:	b3 e0       	ldi	r27, 0x03	; 3
    7678:	0e 94 59 3c 	call	0x78b2	; 0x78b2 <__umulhisi3>
    767c:	96 95       	lsr	r25
    767e:	87 95       	ror	r24
    7680:	96 95       	lsr	r25
    7682:	87 95       	ror	r24
    7684:	96 95       	lsr	r25
    7686:	87 95       	ror	r24
    7688:	80 63       	ori	r24, 0x30	; 48
    768a:	88 83       	st	Y, r24
    768c:	9a 01       	movw	r18, r20
    768e:	36 95       	lsr	r19
    7690:	27 95       	ror	r18
    7692:	36 95       	lsr	r19
    7694:	27 95       	ror	r18
    7696:	36 95       	lsr	r19
    7698:	27 95       	ror	r18
    769a:	a5 ec       	ldi	r26, 0xC5	; 197
    769c:	b0 e2       	ldi	r27, 0x20	; 32
    769e:	0e 94 59 3c 	call	0x78b2	; 0x78b2 <__umulhisi3>
    76a2:	fc 01       	movw	r30, r24
    76a4:	f2 95       	swap	r31
    76a6:	e2 95       	swap	r30
    76a8:	ef 70       	andi	r30, 0x0F	; 15
    76aa:	ef 27       	eor	r30, r31
    76ac:	ff 70       	andi	r31, 0x0F	; 15
    76ae:	ef 27       	eor	r30, r31
    76b0:	9f 01       	movw	r18, r30
    76b2:	ad ec       	ldi	r26, 0xCD	; 205
    76b4:	bc ec       	ldi	r27, 0xCC	; 204
    76b6:	0e 94 59 3c 	call	0x78b2	; 0x78b2 <__umulhisi3>
    76ba:	96 95       	lsr	r25
    76bc:	87 95       	ror	r24
    76be:	96 95       	lsr	r25
    76c0:	87 95       	ror	r24
    76c2:	96 95       	lsr	r25
    76c4:	87 95       	ror	r24
    76c6:	9c 01       	movw	r18, r24
    76c8:	22 0f       	add	r18, r18
    76ca:	33 1f       	adc	r19, r19
    76cc:	88 0f       	add	r24, r24
    76ce:	99 1f       	adc	r25, r25
    76d0:	88 0f       	add	r24, r24
    76d2:	99 1f       	adc	r25, r25
    76d4:	88 0f       	add	r24, r24
    76d6:	99 1f       	adc	r25, r25
    76d8:	82 0f       	add	r24, r18
    76da:	93 1f       	adc	r25, r19
    76dc:	e8 1b       	sub	r30, r24
    76de:	f9 0b       	sbc	r31, r25
    76e0:	e0 63       	ori	r30, 0x30	; 48
    76e2:	e9 83       	std	Y+1, r30	; 0x01
    76e4:	9a 01       	movw	r18, r20
    76e6:	36 95       	lsr	r19
    76e8:	27 95       	ror	r18
    76ea:	36 95       	lsr	r19
    76ec:	27 95       	ror	r18
    76ee:	ab e7       	ldi	r26, 0x7B	; 123
    76f0:	b4 e1       	ldi	r27, 0x14	; 20
    76f2:	0e 94 59 3c 	call	0x78b2	; 0x78b2 <__umulhisi3>
    76f6:	fc 01       	movw	r30, r24
    76f8:	f6 95       	lsr	r31
    76fa:	e7 95       	ror	r30
    76fc:	9f 01       	movw	r18, r30
    76fe:	ad ec       	ldi	r26, 0xCD	; 205
    7700:	bc ec       	ldi	r27, 0xCC	; 204
    7702:	0e 94 59 3c 	call	0x78b2	; 0x78b2 <__umulhisi3>
    7706:	96 95       	lsr	r25
    7708:	87 95       	ror	r24
    770a:	96 95       	lsr	r25
    770c:	87 95       	ror	r24
    770e:	96 95       	lsr	r25
    7710:	87 95       	ror	r24
    7712:	9c 01       	movw	r18, r24
    7714:	22 0f       	add	r18, r18
    7716:	33 1f       	adc	r19, r19
    7718:	88 0f       	add	r24, r24
    771a:	99 1f       	adc	r25, r25
    771c:	88 0f       	add	r24, r24
    771e:	99 1f       	adc	r25, r25
    7720:	88 0f       	add	r24, r24
    7722:	99 1f       	adc	r25, r25
    7724:	82 0f       	add	r24, r18
    7726:	93 1f       	adc	r25, r19
    7728:	e8 1b       	sub	r30, r24
    772a:	f9 0b       	sbc	r31, r25
    772c:	e0 63       	ori	r30, 0x30	; 48
    772e:	ea 83       	std	Y+2, r30	; 0x02
    7730:	9a 01       	movw	r18, r20
    7732:	0e 94 59 3c 	call	0x78b2	; 0x78b2 <__umulhisi3>
    7736:	fc 01       	movw	r30, r24
    7738:	f6 95       	lsr	r31
    773a:	e7 95       	ror	r30
    773c:	f6 95       	lsr	r31
    773e:	e7 95       	ror	r30
    7740:	f6 95       	lsr	r31
    7742:	e7 95       	ror	r30
    7744:	9f 01       	movw	r18, r30
    7746:	0e 94 59 3c 	call	0x78b2	; 0x78b2 <__umulhisi3>
    774a:	96 95       	lsr	r25
    774c:	87 95       	ror	r24
    774e:	96 95       	lsr	r25
    7750:	87 95       	ror	r24
    7752:	96 95       	lsr	r25
    7754:	87 95       	ror	r24
    7756:	9c 01       	movw	r18, r24
    7758:	22 0f       	add	r18, r18
    775a:	33 1f       	adc	r19, r19
    775c:	88 0f       	add	r24, r24
    775e:	99 1f       	adc	r25, r25
    7760:	88 0f       	add	r24, r24
    7762:	99 1f       	adc	r25, r25
    7764:	88 0f       	add	r24, r24
    7766:	99 1f       	adc	r25, r25
    7768:	82 0f       	add	r24, r18
    776a:	93 1f       	adc	r25, r19
    776c:	9f 01       	movw	r18, r30
    776e:	28 1b       	sub	r18, r24
    7770:	39 0b       	sbc	r19, r25
    7772:	c9 01       	movw	r24, r18
    7774:	80 63       	ori	r24, 0x30	; 48
    7776:	8b 83       	std	Y+3, r24	; 0x03
    7778:	cf 01       	movw	r24, r30
    777a:	88 0f       	add	r24, r24
    777c:	99 1f       	adc	r25, r25
    777e:	ee 0f       	add	r30, r30
    7780:	ff 1f       	adc	r31, r31
    7782:	ee 0f       	add	r30, r30
    7784:	ff 1f       	adc	r31, r31
    7786:	ee 0f       	add	r30, r30
    7788:	ff 1f       	adc	r31, r31
    778a:	e8 0f       	add	r30, r24
    778c:	f9 1f       	adc	r31, r25
    778e:	4e 1b       	sub	r20, r30
    7790:	5f 0b       	sbc	r21, r31
    7792:	40 63       	ori	r20, 0x30	; 48
    7794:	4c 83       	std	Y+4, r20	; 0x04
    7796:	80 e4       	ldi	r24, 0x40	; 64
    7798:	0e 94 a4 38 	call	0x7148	; 0x7148 <lcd_goto>
    779c:	60 e0       	ldi	r22, 0x00	; 0
    779e:	8f eb       	ldi	r24, 0xBF	; 191
    77a0:	91 e0       	ldi	r25, 0x01	; 1
    77a2:	0e 94 0d 39 	call	0x721a	; 0x721a <lcd_puts>
    77a6:	85 e4       	ldi	r24, 0x45	; 69
    77a8:	0e 94 a4 38 	call	0x7148	; 0x7148 <lcd_goto>
    77ac:	65 e0       	ldi	r22, 0x05	; 5
    77ae:	ce 01       	movw	r24, r28
    77b0:	df 91       	pop	r29
    77b2:	cf 91       	pop	r28
    77b4:	0c 94 0d 39 	jmp	0x721a	; 0x721a <lcd_puts>

000077b8 <clrprintlcd>:
    77b8:	cf 93       	push	r28
    77ba:	df 93       	push	r29
    77bc:	ec 01       	movw	r28, r24
    77be:	0e 94 a7 38 	call	0x714e	; 0x714e <lcd_clrscr>
    77c2:	60 e0       	ldi	r22, 0x00	; 0
    77c4:	ce 01       	movw	r24, r28
    77c6:	df 91       	pop	r29
    77c8:	cf 91       	pop	r28
    77ca:	0c 94 0d 39 	jmp	0x721a	; 0x721a <lcd_puts>

000077ce <ShowAddr>:
    77ce:	cf 93       	push	r28
    77d0:	df 93       	push	r29
    77d2:	00 d0       	rcall	.+0      	; 0x77d4 <ShowAddr+0x6>
    77d4:	00 d0       	rcall	.+0      	; 0x77d6 <ShowAddr+0x8>
    77d6:	1f 92       	push	r1
    77d8:	cd b7       	in	r28, 0x3d	; 61
    77da:	de b7       	in	r29, 0x3e	; 62
    77dc:	8f 70       	andi	r24, 0x0F	; 15
    77de:	8a 30       	cpi	r24, 0x0A	; 10
    77e0:	80 f5       	brcc	.+96     	; 0x7842 <ShowAddr+0x74>
    77e2:	80 5d       	subi	r24, 0xD0	; 208
    77e4:	89 83       	std	Y+1, r24	; 0x01
    77e6:	87 2f       	mov	r24, r23
    77e8:	82 95       	swap	r24
    77ea:	8f 70       	andi	r24, 0x0F	; 15
    77ec:	8a 30       	cpi	r24, 0x0A	; 10
    77ee:	80 f5       	brcc	.+96     	; 0x7850 <ShowAddr+0x82>
    77f0:	80 5d       	subi	r24, 0xD0	; 208
    77f2:	8a 83       	std	Y+2, r24	; 0x02
    77f4:	87 2f       	mov	r24, r23
    77f6:	8f 70       	andi	r24, 0x0F	; 15
    77f8:	8a 30       	cpi	r24, 0x0A	; 10
    77fa:	80 f5       	brcc	.+96     	; 0x785c <ShowAddr+0x8e>
    77fc:	80 5d       	subi	r24, 0xD0	; 208
    77fe:	8b 83       	std	Y+3, r24	; 0x03
    7800:	cb 01       	movw	r24, r22
    7802:	92 95       	swap	r25
    7804:	82 95       	swap	r24
    7806:	8f 70       	andi	r24, 0x0F	; 15
    7808:	89 27       	eor	r24, r25
    780a:	9f 70       	andi	r25, 0x0F	; 15
    780c:	89 27       	eor	r24, r25
    780e:	8f 70       	andi	r24, 0x0F	; 15
    7810:	8a 30       	cpi	r24, 0x0A	; 10
    7812:	30 f5       	brcc	.+76     	; 0x7860 <ShowAddr+0x92>
    7814:	80 5d       	subi	r24, 0xD0	; 208
    7816:	8c 83       	std	Y+4, r24	; 0x04
    7818:	6f 70       	andi	r22, 0x0F	; 15
    781a:	6a 30       	cpi	r22, 0x0A	; 10
    781c:	30 f1       	brcs	.+76     	; 0x786a <ShowAddr+0x9c>
    781e:	69 5c       	subi	r22, 0xC9	; 201
    7820:	6d 83       	std	Y+5, r22	; 0x05
    7822:	85 e0       	ldi	r24, 0x05	; 5
    7824:	0e 94 a4 38 	call	0x7148	; 0x7148 <lcd_goto>
    7828:	65 e0       	ldi	r22, 0x05	; 5
    782a:	ce 01       	movw	r24, r28
    782c:	01 96       	adiw	r24, 0x01	; 1
    782e:	0e 94 0d 39 	call	0x721a	; 0x721a <lcd_puts>
    7832:	0f 90       	pop	r0
    7834:	0f 90       	pop	r0
    7836:	0f 90       	pop	r0
    7838:	0f 90       	pop	r0
    783a:	0f 90       	pop	r0
    783c:	df 91       	pop	r29
    783e:	cf 91       	pop	r28
    7840:	08 95       	ret
    7842:	89 5c       	subi	r24, 0xC9	; 201
    7844:	89 83       	std	Y+1, r24	; 0x01
    7846:	87 2f       	mov	r24, r23
    7848:	82 95       	swap	r24
    784a:	8f 70       	andi	r24, 0x0F	; 15
    784c:	8a 30       	cpi	r24, 0x0A	; 10
    784e:	80 f2       	brcs	.-96     	; 0x77f0 <ShowAddr+0x22>
    7850:	89 5c       	subi	r24, 0xC9	; 201
    7852:	8a 83       	std	Y+2, r24	; 0x02
    7854:	87 2f       	mov	r24, r23
    7856:	8f 70       	andi	r24, 0x0F	; 15
    7858:	8a 30       	cpi	r24, 0x0A	; 10
    785a:	80 f2       	brcs	.-96     	; 0x77fc <ShowAddr+0x2e>
    785c:	89 5c       	subi	r24, 0xC9	; 201
    785e:	cf cf       	rjmp	.-98     	; 0x77fe <ShowAddr+0x30>
    7860:	89 5c       	subi	r24, 0xC9	; 201
    7862:	8c 83       	std	Y+4, r24	; 0x04
    7864:	6f 70       	andi	r22, 0x0F	; 15
    7866:	6a 30       	cpi	r22, 0x0A	; 10
    7868:	d0 f6       	brcc	.-76     	; 0x781e <ShowAddr+0x50>
    786a:	60 5d       	subi	r22, 0xD0	; 208
    786c:	d9 cf       	rjmp	.-78     	; 0x7820 <ShowAddr+0x52>

0000786e <__udivmodsi4>:
    786e:	a1 e2       	ldi	r26, 0x21	; 33
    7870:	1a 2e       	mov	r1, r26
    7872:	aa 1b       	sub	r26, r26
    7874:	bb 1b       	sub	r27, r27
    7876:	fd 01       	movw	r30, r26
    7878:	0d c0       	rjmp	.+26     	; 0x7894 <__udivmodsi4_ep>

0000787a <__udivmodsi4_loop>:
    787a:	aa 1f       	adc	r26, r26
    787c:	bb 1f       	adc	r27, r27
    787e:	ee 1f       	adc	r30, r30
    7880:	ff 1f       	adc	r31, r31
    7882:	a2 17       	cp	r26, r18
    7884:	b3 07       	cpc	r27, r19
    7886:	e4 07       	cpc	r30, r20
    7888:	f5 07       	cpc	r31, r21
    788a:	20 f0       	brcs	.+8      	; 0x7894 <__udivmodsi4_ep>
    788c:	a2 1b       	sub	r26, r18
    788e:	b3 0b       	sbc	r27, r19
    7890:	e4 0b       	sbc	r30, r20
    7892:	f5 0b       	sbc	r31, r21

00007894 <__udivmodsi4_ep>:
    7894:	66 1f       	adc	r22, r22
    7896:	77 1f       	adc	r23, r23
    7898:	88 1f       	adc	r24, r24
    789a:	99 1f       	adc	r25, r25
    789c:	1a 94       	dec	r1
    789e:	69 f7       	brne	.-38     	; 0x787a <__udivmodsi4_loop>
    78a0:	60 95       	com	r22
    78a2:	70 95       	com	r23
    78a4:	80 95       	com	r24
    78a6:	90 95       	com	r25
    78a8:	9b 01       	movw	r18, r22
    78aa:	ac 01       	movw	r20, r24
    78ac:	bd 01       	movw	r22, r26
    78ae:	cf 01       	movw	r24, r30
    78b0:	08 95       	ret

000078b2 <__umulhisi3>:
    78b2:	a2 9f       	mul	r26, r18
    78b4:	b0 01       	movw	r22, r0
    78b6:	b3 9f       	mul	r27, r19
    78b8:	c0 01       	movw	r24, r0
    78ba:	a3 9f       	mul	r26, r19
    78bc:	70 0d       	add	r23, r0
    78be:	81 1d       	adc	r24, r1
    78c0:	11 24       	eor	r1, r1
    78c2:	91 1d       	adc	r25, r1
    78c4:	b2 9f       	mul	r27, r18
    78c6:	70 0d       	add	r23, r0
    78c8:	81 1d       	adc	r24, r1
    78ca:	11 24       	eor	r1, r1
    78cc:	91 1d       	adc	r25, r1
    78ce:	08 95       	ret

000078d0 <__muluhisi3>:
    78d0:	0e 94 59 3c 	call	0x78b2	; 0x78b2 <__umulhisi3>
    78d4:	a5 9f       	mul	r26, r21
    78d6:	90 0d       	add	r25, r0
    78d8:	b4 9f       	mul	r27, r20
    78da:	90 0d       	add	r25, r0
    78dc:	a4 9f       	mul	r26, r20
    78de:	80 0d       	add	r24, r0
    78e0:	91 1d       	adc	r25, r1
    78e2:	11 24       	eor	r1, r1
    78e4:	08 95       	ret

000078e6 <_exit>:
    78e6:	f8 94       	cli

000078e8 <__stop_program>:
    78e8:	ff cf       	rjmp	.-2      	; 0x78e8 <__stop_program>
